
build/output.elf:     file format elf32-littlearm

Disassembly of section .init:

00008000 <_start>:
    8000:	e3a0d902 	mov	sp, #32768	; 0x8000
    8004:	ea000234 	b	88dc <initialize>
    8008:	ea0005b3 	b	96dc <master_process>
    800c:	e59ff018 	ldr	pc, [pc, #24]	; 802c <_dummy_reset_handler_address>
    8010:	e59ff018 	ldr	pc, [pc, #24]	; 8030 <_dummy_undefined_handler_address>
    8014:	e59ff018 	ldr	pc, [pc, #24]	; 8034 <_dummy_svc_handler_address>
    8018:	e59ff018 	ldr	pc, [pc, #24]	; 8038 <_dummy_prefetch_abort_handler_address>
    801c:	e59ff018 	ldr	pc, [pc, #24]	; 803c <_dummy_data_abort_handler_address>
    8020:	e1a00000 	nop			(mov r0,r0)
    8024:	e59ff014 	ldr	pc, [pc, #20]	; 8040 <_dummy_irq_handler_address>
    8028:	e59ff014 	ldr	pc, [pc, #20]	; 8044 <_dummy_fiq_handler_address>

0000802c <_dummy_reset_handler_address>:
    802c:	e1a00000 	nop			(mov r0,r0)

00008030 <_dummy_undefined_handler_address>:
    8030:	e1a00000 	nop			(mov r0,r0)

00008034 <_dummy_svc_handler_address>:
    8034:	e1a00000 	nop			(mov r0,r0)

00008038 <_dummy_prefetch_abort_handler_address>:
    8038:	e1a00000 	nop			(mov r0,r0)

0000803c <_dummy_data_abort_handler_address>:
    803c:	e1a00000 	nop			(mov r0,r0)

00008040 <_dummy_irq_handler_address>:
    8040:	e1a00000 	nop			(mov r0,r0)

00008044 <_dummy_fiq_handler_address>:
    8044:	e1a00000 	nop			(mov r0,r0)
    8048:	e1a00000 	nop			(mov r0,r0)
    804c:	e1a00000 	nop			(mov r0,r0)
    8050:	ea000155 	b	85ac <svc_handler>
    8054:	e1a00000 	nop			(mov r0,r0)
    8058:	e1a00000 	nop			(mov r0,r0)
    805c:	ea0001e5 	b	87f8 <irq_handler>
    8060:	e1a00000 	nop			(mov r0,r0)
    8064:	ea0006c2 	b	9b74 <console_proc>
    8068:	ea000ae5 	b	ac04 <new_process>
Disassembly of section .text:

00008070 <GetMailboxBase>:
    8070:	e59f0060 	ldr	r0, [pc, #96]	; 80d8 <wait2$+0x14>
    8074:	e1a0f00e 	mov	pc, lr

00008078 <MailboxRead>:
    8078:	e200300f 	and	r3, r0, #15	; 0xf
    807c:	e1a0200e 	mov	r2, lr
    8080:	ebfffffa 	bl	8070 <GetMailboxBase>
    8084:	e1a0e002 	mov	lr, r2

00008088 <rightmail$>:
    8088:	e5902018 	ldr	r2, [r0, #24]
    808c:	e3120101 	tst	r2, #1073741824	; 0x40000000
    8090:	1afffffc 	bne	8088 <rightmail$>
    8094:	e5901000 	ldr	r1, [r0]
    8098:	e201200f 	and	r2, r1, #15	; 0xf
    809c:	e1320003 	teq	r2, r3
    80a0:	1afffff8 	bne	8088 <rightmail$>
    80a4:	e3c1000f 	bic	r0, r1, #15	; 0xf
    80a8:	e1a0f00e 	mov	pc, lr

000080ac <MailboxWrite>:
    80ac:	e201200f 	and	r2, r1, #15	; 0xf
    80b0:	e3c0100f 	bic	r1, r0, #15	; 0xf
    80b4:	e1811002 	orr	r1, r1, r2
    80b8:	e1a0200e 	mov	r2, lr
    80bc:	ebffffeb 	bl	8070 <GetMailboxBase>
    80c0:	e1a0e002 	mov	lr, r2

000080c4 <wait2$>:
    80c4:	e5902018 	ldr	r2, [r0, #24]
    80c8:	e3120102 	tst	r2, #-2147483648	; 0x80000000
    80cc:	1afffffc 	bne	80c4 <wait2$>
    80d0:	e5801020 	str	r1, [r0, #32]
    80d4:	e1a0f00e 	mov	pc, lr
    80d8:	2000b880 	.word	0x2000b880

000080dc <InitialiseFrameBuffer>:
    80dc:	e3500a01 	cmp	r0, #4096	; 0x1000
    80e0:	93510a01 	cmpls	r1, #4096	; 0x1000
    80e4:	93520020 	cmpls	r2, #32	; 0x20
    80e8:	83a00000 	movhi	r0, #0	; 0x0
    80ec:	81a0f00e 	movhi	pc, lr
    80f0:	e92d4010 	push	{r4, lr}
    80f4:	e59f403c 	ldr	r4, [pc, #60]	; 8138 <InitialiseFrameBuffer+0x5c>
    80f8:	e5840000 	str	r0, [r4]
    80fc:	e5841004 	str	r1, [r4, #4]
    8100:	e5840008 	str	r0, [r4, #8]
    8104:	e584100c 	str	r1, [r4, #12]
    8108:	e5842014 	str	r2, [r4, #20]
    810c:	e1a00004 	mov	r0, r4
    8110:	e2800101 	add	r0, r0, #1073741824	; 0x40000000
    8114:	e3a01001 	mov	r1, #1	; 0x1
    8118:	ebffffe3 	bl	80ac <MailboxWrite>
    811c:	e3a00001 	mov	r0, #1	; 0x1
    8120:	ebffffd4 	bl	8078 <MailboxRead>
    8124:	e3300000 	teq	r0, #0	; 0x0
    8128:	13a00000 	movne	r0, #0	; 0x0
    812c:	18bd8010 	popne	{r4, pc}
    8130:	e1a00004 	mov	r0, r4
    8134:	e8bd8010 	pop	{r4, pc}
    8138:	00014000 	.word	0x00014000

0000813c <GetSystemTimerBase>:
    813c:	e59f0034 	ldr	r0, [pc, #52]	; 8178 <loop$+0x14>
    8140:	e1a0f00e 	mov	pc, lr

00008144 <GetTimeStamp>:
    8144:	e92d4000 	push	{lr}
    8148:	ebfffffb 	bl	813c <GetSystemTimerBase>
    814c:	e1c000d4 	ldrd	r0, [r0, #4]
    8150:	e8bd8000 	pop	{pc}

00008154 <Wait>:
    8154:	e1a02000 	mov	r2, r0
    8158:	e92d4000 	push	{lr}
    815c:	ebfffff8 	bl	8144 <GetTimeStamp>
    8160:	e1a03000 	mov	r3, r0

00008164 <loop$>:
    8164:	ebfffff6 	bl	8144 <GetTimeStamp>
    8168:	e0401003 	sub	r1, r0, r3
    816c:	e1510002 	cmp	r1, r2
    8170:	9afffffb 	bls	8164 <loop$>
    8174:	e8bd8000 	pop	{pc}
    8178:	20003000 	.word	0x20003000

0000817c <SetForeColour>:
    817c:	e3500801 	cmp	r0, #65536	; 0x10000
    8180:	81a0f00e 	movhi	pc, lr
    8184:	01a0f00e 	moveq	pc, lr
    8188:	e59f11b4 	ldr	r1, [pc, #436]	; 8344 <stringLoopEnd$+0x4>
    818c:	e1c100b0 	strh	r0, [r1]
    8190:	e1a0f00e 	mov	pc, lr

00008194 <SetGraphicsAddress>:
    8194:	e59f11ac 	ldr	r1, [pc, #428]	; 8348 <stringLoopEnd$+0x8>
    8198:	e5810000 	str	r0, [r1]
    819c:	e1a0f00e 	mov	pc, lr

000081a0 <DrawPixel>:
    81a0:	e59f21a0 	ldr	r2, [pc, #416]	; 8348 <stringLoopEnd$+0x8>
    81a4:	e5922000 	ldr	r2, [r2]
    81a8:	e5923004 	ldr	r3, [r2, #4]
    81ac:	e2433001 	sub	r3, r3, #1	; 0x1
    81b0:	e1510003 	cmp	r1, r3
    81b4:	81a0f00e 	movhi	pc, lr
    81b8:	e5923000 	ldr	r3, [r2]
    81bc:	e2433001 	sub	r3, r3, #1	; 0x1
    81c0:	e1500003 	cmp	r0, r3
    81c4:	81a0f00e 	movhi	pc, lr
    81c8:	e5922020 	ldr	r2, [r2, #32]
    81cc:	e2833001 	add	r3, r3, #1	; 0x1
    81d0:	e0200391 	mla	r0, r1, r3, r0
    81d4:	e0822080 	add	r2, r2, r0, lsl #1
    81d8:	e59f3164 	ldr	r3, [pc, #356]	; 8344 <stringLoopEnd$+0x4>
    81dc:	e1d330b0 	ldrh	r3, [r3]
    81e0:	e1c230b0 	strh	r3, [r2]
    81e4:	e1a0f00e 	mov	pc, lr

000081e8 <DrawLine>:
    81e8:	e92d5ff0 	push	{r4, r5, r6, r7, r8, r9, sl, fp, ip, lr}
    81ec:	e1a09000 	mov	r9, r0
    81f0:	e1a0a002 	mov	sl, r2
    81f4:	e1a0b001 	mov	fp, r1
    81f8:	e1a0c003 	mov	ip, r3
    81fc:	e159000a 	cmp	r9, sl
    8200:	c049400a 	subgt	r4, r9, sl
    8204:	c3e06000 	mvngt	r6, #0	; 0x0
    8208:	d04a4009 	suble	r4, sl, r9
    820c:	d3a06001 	movle	r6, #1	; 0x1
    8210:	e15b000c 	cmp	fp, ip
    8214:	c04c500b 	subgt	r5, ip, fp
    8218:	c3e07000 	mvngt	r7, #0	; 0x0
    821c:	d04b500c 	suble	r5, fp, ip
    8220:	d3a07001 	movle	r7, #1	; 0x1
    8224:	e0848005 	add	r8, r4, r5
    8228:	e08aa006 	add	sl, sl, r6
    822c:	e08cc007 	add	ip, ip, r7

00008230 <pixelLoop$>:
    8230:	e139000a 	teq	r9, sl
    8234:	113b000c 	teqne	fp, ip
    8238:	08bd9ff0 	popeq	{r4, r5, r6, r7, r8, r9, sl, fp, ip, pc}
    823c:	e1a00009 	mov	r0, r9
    8240:	e1a0100b 	mov	r1, fp
    8244:	ebffffd5 	bl	81a0 <DrawPixel>
    8248:	e1550088 	cmp	r5, r8, lsl #1
    824c:	d0888005 	addle	r8, r8, r5
    8250:	d0899006 	addle	r9, r9, r6
    8254:	e1540088 	cmp	r4, r8, lsl #1
    8258:	a0888004 	addge	r8, r8, r4
    825c:	a08bb007 	addge	fp, fp, r7
    8260:	eafffff2 	b	8230 <pixelLoop$>

00008264 <DrawCharacter>:
    8264:	e350007f 	cmp	r0, #127	; 0x7f
    8268:	83a00000 	movhi	r0, #0	; 0x0
    826c:	83a01000 	movhi	r1, #0	; 0x0
    8270:	81a0f00e 	movhi	pc, lr
    8274:	e1a04001 	mov	r4, r1
    8278:	e1a05002 	mov	r5, r2
    827c:	e92d41f0 	push	{r4, r5, r6, r7, r8, lr}
    8280:	e59f60c4 	ldr	r6, [pc, #196]	; 834c <stringLoopEnd$+0xc>
    8284:	e0866200 	add	r6, r6, r0, lsl #4

00008288 <lineLoop$>:
    8288:	e5d67000 	ldrb	r7, [r6]
    828c:	e3a08008 	mov	r8, #8	; 0x8

00008290 <charPixelLoop$>:
    8290:	e2588001 	subs	r8, r8, #1	; 0x1
    8294:	ba000006 	blt	82b4 <charPixelLoopEnd$>
    8298:	e1a07087 	lsl	r7, r7, #1
    829c:	e3170c01 	tst	r7, #256	; 0x100
    82a0:	0afffffa 	beq	8290 <charPixelLoop$>
    82a4:	e0840008 	add	r0, r4, r8
    82a8:	e1a01005 	mov	r1, r5
    82ac:	ebffffbb 	bl	81a0 <DrawPixel>
    82b0:	eafffff6 	b	8290 <charPixelLoop$>

000082b4 <charPixelLoopEnd$>:
    82b4:	e2855001 	add	r5, r5, #1	; 0x1
    82b8:	e2866001 	add	r6, r6, #1	; 0x1
    82bc:	e316000f 	tst	r6, #15	; 0xf
    82c0:	1afffff0 	bne	8288 <lineLoop$>
    82c4:	e3a00008 	mov	r0, #8	; 0x8
    82c8:	e3a01010 	mov	r1, #16	; 0x10
    82cc:	e8bd81f0 	pop	{r4, r5, r6, r7, r8, pc}

000082d0 <DrawString>:
    82d0:	e92d43f0 	push	{r4, r5, r6, r7, r8, r9, lr}
    82d4:	e1a07000 	mov	r7, r0
    82d8:	e1a04002 	mov	r4, r2
    82dc:	e1a06004 	mov	r6, r4
    82e0:	e1a05003 	mov	r5, r3
    82e4:	e1a08001 	mov	r8, r1

000082e8 <stringLoop$>:
    82e8:	e2588001 	subs	r8, r8, #1	; 0x1
    82ec:	ba000013 	blt	8340 <stringLoopEnd$>
    82f0:	e5d79000 	ldrb	r9, [r7]
    82f4:	e2877001 	add	r7, r7, #1	; 0x1
    82f8:	e1a00009 	mov	r0, r9
    82fc:	e1a01004 	mov	r1, r4
    8300:	e1a02005 	mov	r2, r5
    8304:	ebffffd6 	bl	8264 <DrawCharacter>
    8308:	e339000a 	teq	r9, #10	; 0xa
    830c:	01a04006 	moveq	r4, r6
    8310:	00855001 	addeq	r5, r5, r1
    8314:	0afffff3 	beq	82e8 <stringLoop$>
    8318:	e3390009 	teq	r9, #9	; 0x9
    831c:	10844000 	addne	r4, r4, r0
    8320:	1afffff0 	bne	82e8 <stringLoop$>
    8324:	e0800100 	add	r0, r0, r0, lsl #2
    8328:	e1a01006 	mov	r1, r6

0000832c <stringLoopTab$>:
    832c:	e0811000 	add	r1, r1, r0
    8330:	e1540001 	cmp	r4, r1
    8334:	aafffffc 	bge	832c <stringLoopTab$>
    8338:	e1a04001 	mov	r4, r1
    833c:	eaffffe9 	b	82e8 <stringLoop$>

00008340 <stringLoopEnd$>:
    8340:	e8bd83f0 	pop	{r4, r5, r6, r7, r8, r9, pc}
    8344:	00015000 	.word	0x00015000
    8348:	00015004 	.word	0x00015004
    834c:	00015010 	.word	0x00015010

00008350 <GetGpioAddress>:
    8350:	e59f008c 	ldr	r0, [pc, #140]	; 83e4 <SetGpio+0x3c>
    8354:	e1a0f00e 	mov	pc, lr

00008358 <SetGpioFunction>:
    8358:	e3500035 	cmp	r0, #53	; 0x35
    835c:	93510007 	cmpls	r1, #7	; 0x7
    8360:	81a0f00e 	movhi	pc, lr
    8364:	e92d4000 	push	{lr}
    8368:	e1a02000 	mov	r2, r0
    836c:	ebfffff7 	bl	8350 <GetGpioAddress>

00008370 <functionLoop$>:
    8370:	e3520009 	cmp	r2, #9	; 0x9
    8374:	8242200a 	subhi	r2, r2, #10	; 0xa
    8378:	82800004 	addhi	r0, r0, #4	; 0x4
    837c:	8afffffb 	bhi	8370 <functionLoop$>
    8380:	e0822082 	add	r2, r2, r2, lsl #1
    8384:	e1a01211 	lsl	r1, r1, r2
    8388:	e3a03007 	mov	r3, #7	; 0x7
    838c:	e1a03213 	lsl	r3, r3, r2
    8390:	e1e03003 	mvn	r3, r3
    8394:	e5902000 	ldr	r2, [r0]
    8398:	e0022003 	and	r2, r2, r3
    839c:	e1811002 	orr	r1, r1, r2
    83a0:	e5801000 	str	r1, [r0]
    83a4:	e8bd8000 	pop	{pc}

000083a8 <SetGpio>:
    83a8:	e3500035 	cmp	r0, #53	; 0x35
    83ac:	81a0f00e 	movhi	pc, lr
    83b0:	e92d4000 	push	{lr}
    83b4:	e1a02000 	mov	r2, r0
    83b8:	ebffffe4 	bl	8350 <GetGpioAddress>
    83bc:	e1a032a2 	lsr	r3, r2, #5
    83c0:	e1a03103 	lsl	r3, r3, #2
    83c4:	e0800003 	add	r0, r0, r3
    83c8:	e202201f 	and	r2, r2, #31	; 0x1f
    83cc:	e3a03001 	mov	r3, #1	; 0x1
    83d0:	e1a03213 	lsl	r3, r3, r2
    83d4:	e3310000 	teq	r1, #0	; 0x0
    83d8:	05803028 	streq	r3, [r0, #40]
    83dc:	1580301c 	strne	r3, [r0, #28]
    83e0:	e8bd8000 	pop	{pc}
    83e4:	20200000 	.word	0x20200000

000083e8 <KeyboardUpdate>:
    83e8:	e92d4030 	push	{r4, r5, lr}
    83ec:	e59f0128 	ldr	r0, [pc, #296]	; 851c <keyboardGetCharReturn$+0x4>
    83f0:	e5904000 	ldr	r4, [r0]
    83f4:	e3340000 	teq	r4, #0	; 0x0
    83f8:	1a00000c 	bne	8430 <haveKeyboard$>

000083fc <getKeyboard$>:
    83fc:	eb001837 	bl	e4e0 <UsbCheckForChange>
    8400:	eb0010ab 	bl	c6b4 <KeyboardCount>
    8404:	e3300000 	teq	r0, #0	; 0x0
    8408:	059f110c 	ldreq	r1, [pc, #268]	; 851c <keyboardGetCharReturn$+0x4>
    840c:	05810000 	streq	r0, [r1]
    8410:	0a000014 	beq	8468 <return$>
    8414:	e3a00000 	mov	r0, #0	; 0x0
    8418:	eb000ee0 	bl	bfa0 <KeyboardGetAddress>
    841c:	e59f10f8 	ldr	r1, [pc, #248]	; 851c <keyboardGetCharReturn$+0x4>
    8420:	e5810000 	str	r0, [r1]
    8424:	e3300000 	teq	r0, #0	; 0x0
    8428:	0a00000e 	beq	8468 <return$>
    842c:	e1a04000 	mov	r4, r0

00008430 <haveKeyboard$>:
    8430:	e3a05000 	mov	r5, #0	; 0x0

00008434 <saveKeys$>:
    8434:	e1a00004 	mov	r0, r4
    8438:	e1a01005 	mov	r1, r5
    843c:	eb001265 	bl	cdd8 <KeyboardGetKeyDown>
    8440:	e59f10d8 	ldr	r1, [pc, #216]	; 8520 <keyboardGetCharReturn$+0x8>
    8444:	e0811085 	add	r1, r1, r5, lsl #1
    8448:	e1c100b0 	strh	r0, [r1]
    844c:	e2855001 	add	r5, r5, #1	; 0x1
    8450:	e3550006 	cmp	r5, #6	; 0x6
    8454:	bafffff6 	blt	8434 <saveKeys$>
    8458:	e1a00004 	mov	r0, r4
    845c:	eb001132 	bl	c92c <KeyboardPoll>
    8460:	e3300000 	teq	r0, #0	; 0x0
    8464:	1affffe4 	bne	83fc <getKeyboard$>

00008468 <return$>:
    8468:	e8bd8030 	pop	{r4, r5, pc}

0000846c <KeyWasDown>:
    846c:	e59f10ac 	ldr	r1, [pc, #172]	; 8520 <keyboardGetCharReturn$+0x8>
    8470:	e3a02000 	mov	r2, #0	; 0x0

00008474 <keySearch$>:
    8474:	e1d130b0 	ldrh	r3, [r1]
    8478:	e1330000 	teq	r3, r0
    847c:	03a00001 	moveq	r0, #1	; 0x1
    8480:	01a0f00e 	moveq	pc, lr
    8484:	e2811002 	add	r1, r1, #2	; 0x2
    8488:	e2822001 	add	r2, r2, #1	; 0x1
    848c:	e3520006 	cmp	r2, #6	; 0x6
    8490:	bafffff7 	blt	8474 <keySearch$>
    8494:	e3a00000 	mov	r0, #0	; 0x0
    8498:	e1a0f00e 	mov	pc, lr

0000849c <KeyboardGetChar>:
    849c:	e59f0078 	ldr	r0, [pc, #120]	; 851c <keyboardGetCharReturn$+0x4>
    84a0:	e5901000 	ldr	r1, [r0]
    84a4:	e3310000 	teq	r1, #0	; 0x0
    84a8:	03a00000 	moveq	r0, #0	; 0x0
    84ac:	01a0f00e 	moveq	pc, lr
    84b0:	e92d4070 	push	{r4, r5, r6, lr}
    84b4:	e1a04001 	mov	r4, r1
    84b8:	e3a05000 	mov	r5, #0	; 0x0

000084bc <keyLoop$>:
    84bc:	e1a00004 	mov	r0, r4
    84c0:	e1a01005 	mov	r1, r5
    84c4:	eb001243 	bl	cdd8 <KeyboardGetKeyDown>
    84c8:	e3300000 	teq	r0, #0	; 0x0
    84cc:	0a000010 	beq	8514 <keyLoopBreak$>
    84d0:	e1a06000 	mov	r6, r0
    84d4:	ebffffe4 	bl	846c <KeyWasDown>
    84d8:	e3300000 	teq	r0, #0	; 0x0
    84dc:	1a000009 	bne	8508 <keyLoopContinue$>
    84e0:	e3560068 	cmp	r6, #104	; 0x68
    84e4:	aa000007 	bge	8508 <keyLoopContinue$>
    84e8:	e1a00004 	mov	r0, r4
    84ec:	eb0011df 	bl	cc70 <KeyboardGetModifiers>
    84f0:	e3100022 	tst	r0, #34	; 0x22
    84f4:	059f0028 	ldreq	r0, [pc, #40]	; 8524 <keyboardGetCharReturn$+0xc>
    84f8:	159f0028 	ldrne	r0, [pc, #40]	; 8528 <keyboardGetCharReturn$+0x10>
    84fc:	e7d00006 	ldrb	r0, [r0, r6]
    8500:	e3300000 	teq	r0, #0	; 0x0
    8504:	1a000003 	bne	8518 <keyboardGetCharReturn$>

00008508 <keyLoopContinue$>:
    8508:	e2855001 	add	r5, r5, #1	; 0x1
    850c:	e3550006 	cmp	r5, #6	; 0x6
    8510:	baffffe9 	blt	84bc <keyLoop$>

00008514 <keyLoopBreak$>:
    8514:	e3a00000 	mov	r0, #0	; 0x0

00008518 <keyboardGetCharReturn$>:
    8518:	e8bd8070 	pop	{r4, r5, r6, pc}
    851c:	00015810 	.word	0x00015810
    8520:	00015814 	.word	0x00015814
    8524:	00015820 	.word	0x00015820
    8528:	00015888 	.word	0x00015888

0000852c <idt_init>:
    852c:	e92d4800 	push	{fp, lr}
    8530:	e28db004 	add	fp, sp, #4	; 0x4
    8534:	e24dd008 	sub	sp, sp, #8	; 0x8
    8538:	e3a03902 	mov	r3, #32768	; 0x8000
    853c:	e283302c 	add	r3, r3, #44	; 0x2c
    8540:	e50b300c 	str	r3, [fp, #-12]
    8544:	e3a03000 	mov	r3, #0	; 0x0
    8548:	e50b3008 	str	r3, [fp, #-8]
    854c:	ea00000b 	b	8580 <idt_init+0x54>
    8550:	e51b3008 	ldr	r3, [fp, #-8]
    8554:	e1a02103 	lsl	r2, r3, #2
    8558:	e51b300c 	ldr	r3, [fp, #-12]
    855c:	e0832002 	add	r2, r3, r2
    8560:	e51b3008 	ldr	r3, [fp, #-8]
    8564:	e2833a02 	add	r3, r3, #8192	; 0x2000
    8568:	e2833012 	add	r3, r3, #18	; 0x12
    856c:	e1a03103 	lsl	r3, r3, #2
    8570:	e5823000 	str	r3, [r2]
    8574:	e51b3008 	ldr	r3, [fp, #-8]
    8578:	e2833001 	add	r3, r3, #1	; 0x1
    857c:	e50b3008 	str	r3, [fp, #-8]
    8580:	e51b3008 	ldr	r3, [fp, #-8]
    8584:	e3530006 	cmp	r3, #6	; 0x6
    8588:	dafffff0 	ble	8550 <idt_init+0x24>
    858c:	e3a00000 	mov	r0, #0	; 0x0
    8590:	e3a01902 	mov	r1, #32768	; 0x8000
    8594:	e281100c 	add	r1, r1, #12	; 0xc
    8598:	e3a0203c 	mov	r2, #60	; 0x3c
    859c:	eb0000fb 	bl	8990 <memcpy>
    85a0:	e24bd004 	sub	sp, fp, #4	; 0x4
    85a4:	e8bd4800 	pop	{fp, lr}
    85a8:	e12fff1e 	bx	lr

000085ac <svc_handler>:
    85ac:	e3a0d902 	mov	sp, #32768	; 0x8000
    85b0:	e92d1000 	push	{ip}
    85b4:	e92d0800 	push	{fp}
    85b8:	e92d0400 	push	{sl}
    85bc:	e3a0a01f 	mov	sl, #31	; 0x1f
    85c0:	e10fb000 	mrs	fp, CPSR
    85c4:	e1a0c00b 	mov	ip, fp
    85c8:	e18bb00a 	orr	fp, fp, sl
    85cc:	e129f00b 	msr	CPSR_fc, fp
    85d0:	e92d4000 	push	{lr}
    85d4:	e92d0001 	push	{r0}
    85d8:	e92d0002 	push	{r1}
    85dc:	e92d0004 	push	{r2}
    85e0:	e92d0008 	push	{r3}
    85e4:	e92d0010 	push	{r4}
    85e8:	e92d0020 	push	{r5}
    85ec:	e92d0040 	push	{r6}
    85f0:	e92d0080 	push	{r7}
    85f4:	e92d0100 	push	{r8}
    85f8:	e92d0200 	push	{r9}
    85fc:	e1a0000d 	mov	r0, sp
    8600:	e129f00c 	msr	CPSR_fc, ip
    8604:	e8bd0002 	pop	{r1}
    8608:	e8bd0004 	pop	{r2}
    860c:	e8bd0008 	pop	{r3}
    8610:	e14f4000 	mrs	r4, SPSR
    8614:	e1a0500d 	mov	r5, sp
    8618:	e1a0d000 	mov	sp, r0
    861c:	e92d0002 	push	{r1}
    8620:	e92d0004 	push	{r2}
    8624:	e92d0008 	push	{r3}
    8628:	e92d0010 	push	{r4}
    862c:	e1a0000d 	mov	r0, sp
    8630:	e1a0100e 	mov	r1, lr
    8634:	e1a0d005 	mov	sp, r5
    8638:	e1a04000 	mov	r4, r0
    863c:	e1a05001 	mov	r5, r1
    8640:	e92d4810 	push	{r4, fp, lr}
    8644:	e28db008 	add	fp, sp, #8	; 0x8
    8648:	e24dd024 	sub	sp, sp, #36	; 0x24
    864c:	e59f319c 	ldr	r3, [pc, #412]	; 87f0 <svc_handler+0x244>
    8650:	e5930000 	ldr	r0, [r3]
    8654:	e59f3194 	ldr	r3, [pc, #404]	; 87f0 <svc_handler+0x244>
    8658:	e5931000 	ldr	r1, [r3]
    865c:	e5804008 	str	r4, [r0, #8]
    8660:	e581500c 	str	r5, [r1, #12]
    8664:	e59f3184 	ldr	r3, [pc, #388]	; 87f0 <svc_handler+0x244>
    8668:	e5933000 	ldr	r3, [r3]
    866c:	e5933008 	ldr	r3, [r3, #8]
    8670:	e2833020 	add	r3, r3, #32	; 0x20
    8674:	e50b3020 	str	r3, [fp, #-32]
    8678:	e51b3020 	ldr	r3, [fp, #-32]
    867c:	e2833014 	add	r3, r3, #20	; 0x14
    8680:	e5932000 	ldr	r2, [r3]
    8684:	e59f3168 	ldr	r3, [pc, #360]	; 87f4 <svc_handler+0x248>
    8688:	e7934102 	ldr	r4, [r3, r2, lsl #2]
    868c:	e51b3020 	ldr	r3, [fp, #-32]
    8690:	e2833010 	add	r3, r3, #16	; 0x10
    8694:	e5931000 	ldr	r1, [r3]
    8698:	e51b3020 	ldr	r3, [fp, #-32]
    869c:	e283300c 	add	r3, r3, #12	; 0xc
    86a0:	e593e000 	ldr	lr, [r3]
    86a4:	e51b3020 	ldr	r3, [fp, #-32]
    86a8:	e2833008 	add	r3, r3, #8	; 0x8
    86ac:	e5932000 	ldr	r2, [r3]
    86b0:	e51b3020 	ldr	r3, [fp, #-32]
    86b4:	e2833004 	add	r3, r3, #4	; 0x4
    86b8:	e593c000 	ldr	ip, [r3]
    86bc:	e51b3020 	ldr	r3, [fp, #-32]
    86c0:	e5933000 	ldr	r3, [r3]
    86c4:	e58d3000 	str	r3, [sp]
    86c8:	e1a00001 	mov	r0, r1
    86cc:	e1a0100e 	mov	r1, lr
    86d0:	e1a0300c 	mov	r3, ip
    86d4:	e1a0e00f 	mov	lr, pc
    86d8:	e12fff14 	bx	r4
    86dc:	e1a03000 	mov	r3, r0
    86e0:	e1a04001 	mov	r4, r1
    86e4:	e50b301c 	str	r3, [fp, #-28]
    86e8:	e50b4018 	str	r4, [fp, #-24]
    86ec:	e24b201c 	sub	r2, fp, #28	; 0x1c
    86f0:	e8920006 	ldm	r2, {r1, r2}
    86f4:	e1a03002 	mov	r3, r2
    86f8:	e3a04000 	mov	r4, #0	; 0x0
    86fc:	e50b3014 	str	r3, [fp, #-20]
    8700:	e51b301c 	ldr	r3, [fp, #-28]
    8704:	e50b3010 	str	r3, [fp, #-16]
    8708:	e51b3020 	ldr	r3, [fp, #-32]
    870c:	e2832010 	add	r2, r3, #16	; 0x10
    8710:	e51b3014 	ldr	r3, [fp, #-20]
    8714:	e5823000 	str	r3, [r2]
    8718:	e51b3020 	ldr	r3, [fp, #-32]
    871c:	e2832014 	add	r2, r3, #20	; 0x14
    8720:	e51b3010 	ldr	r3, [fp, #-16]
    8724:	e5823000 	str	r3, [r2]
    8728:	e59f30c0 	ldr	r3, [pc, #192]	; 87f0 <svc_handler+0x244>
    872c:	e5933000 	ldr	r3, [r3]
    8730:	e593200c 	ldr	r2, [r3, #12]
    8734:	e59f30b4 	ldr	r3, [pc, #180]	; 87f0 <svc_handler+0x244>
    8738:	e5933000 	ldr	r3, [r3]
    873c:	e5933008 	ldr	r3, [r3, #8]
    8740:	e1a0e002 	mov	lr, r2
    8744:	e1a0000d 	mov	r0, sp
    8748:	e3a0a01f 	mov	sl, #31	; 0x1f
    874c:	e10fb000 	mrs	fp, CPSR
    8750:	e1a0c00b 	mov	ip, fp
    8754:	e18bb00a 	orr	fp, fp, sl
    8758:	e129f00b 	msr	CPSR_fc, fp
    875c:	e1a0d003 	mov	sp, r3
    8760:	e8bd0020 	pop	{r5}
    8764:	e8bd0040 	pop	{r6}
    8768:	e8bd0080 	pop	{r7}
    876c:	e8bd0100 	pop	{r8}
    8770:	e8bd0200 	pop	{r9}
    8774:	e1a0100d 	mov	r1, sp
    8778:	e1a0d000 	mov	sp, r0
    877c:	e92d0200 	push	{r9}
    8780:	e92d0100 	push	{r8}
    8784:	e92d0080 	push	{r7}
    8788:	e92d0040 	push	{r6}
    878c:	e92d0020 	push	{r5}
    8790:	e1a0900d 	mov	r9, sp
    8794:	e1a0d001 	mov	sp, r1
    8798:	e8bd0100 	pop	{r8}
    879c:	e8bd0080 	pop	{r7}
    87a0:	e8bd0040 	pop	{r6}
    87a4:	e8bd0020 	pop	{r5}
    87a8:	e8bd0010 	pop	{r4}
    87ac:	e8bd0008 	pop	{r3}
    87b0:	e8bd0004 	pop	{r2}
    87b4:	e8bd0002 	pop	{r1}
    87b8:	e8bd0001 	pop	{r0}
    87bc:	e8bd4000 	pop	{lr}
    87c0:	e129f00c 	msr	CPSR_fc, ip
    87c4:	e1a0d009 	mov	sp, r9
    87c8:	e8bd0200 	pop	{r9}
    87cc:	e169f009 	msr	SPSR_fc, r9
    87d0:	e8bd1000 	pop	{ip}
    87d4:	e8bd0800 	pop	{fp}
    87d8:	e8bd0400 	pop	{sl}
    87dc:	e8bd0200 	pop	{r9}
    87e0:	e1b0f00e 	movs	pc, lr
    87e4:	e24bd008 	sub	sp, fp, #8	; 0x8
    87e8:	e8bd4810 	pop	{r4, fp, lr}
    87ec:	e12fff1e 	bx	lr
    87f0:	0001598c 	.word	0x0001598c
    87f4:	00015994 	.word	0x00015994

000087f8 <irq_handler>:
    87f8:	e3a0d902 	mov	sp, #32768	; 0x8000
    87fc:	e92d1000 	push	{ip}
    8800:	e92d0800 	push	{fp}
    8804:	e92d0400 	push	{sl}
    8808:	e3a0a01f 	mov	sl, #31	; 0x1f
    880c:	e10fb000 	mrs	fp, CPSR
    8810:	e1a0c00b 	mov	ip, fp
    8814:	e18bb00a 	orr	fp, fp, sl
    8818:	e129f00b 	msr	CPSR_fc, fp
    881c:	e92d4000 	push	{lr}
    8820:	e92d0001 	push	{r0}
    8824:	e92d0002 	push	{r1}
    8828:	e92d0004 	push	{r2}
    882c:	e92d0008 	push	{r3}
    8830:	e92d0010 	push	{r4}
    8834:	e92d0020 	push	{r5}
    8838:	e92d0040 	push	{r6}
    883c:	e92d0080 	push	{r7}
    8840:	e92d0100 	push	{r8}
    8844:	e92d0200 	push	{r9}
    8848:	e1a0000d 	mov	r0, sp
    884c:	e129f00c 	msr	CPSR_fc, ip
    8850:	e8bd0002 	pop	{r1}
    8854:	e8bd0004 	pop	{r2}
    8858:	e8bd0008 	pop	{r3}
    885c:	e14f4000 	mrs	r4, SPSR
    8860:	e1a0500d 	mov	r5, sp
    8864:	e1a0d000 	mov	sp, r0
    8868:	e92d0002 	push	{r1}
    886c:	e92d0004 	push	{r2}
    8870:	e92d0008 	push	{r3}
    8874:	e92d0010 	push	{r4}
    8878:	e1a0000d 	mov	r0, sp
    887c:	e1a0100e 	mov	r1, lr
    8880:	e1a0d005 	mov	sp, r5
    8884:	e1a04000 	mov	r4, r0
    8888:	e1a05001 	mov	r5, r1
    888c:	e92d4800 	push	{fp, lr}
    8890:	e28db004 	add	fp, sp, #4	; 0x4
    8894:	e59f303c 	ldr	r3, [pc, #60]	; 88d8 <irq_handler+0xe0>
    8898:	e5930000 	ldr	r0, [r3]
    889c:	e59f3034 	ldr	r3, [pc, #52]	; 88d8 <irq_handler+0xe0>
    88a0:	e5931000 	ldr	r1, [r3]
    88a4:	e5804008 	str	r4, [r0, #8]
    88a8:	e581500c 	str	r5, [r1, #12]
    88ac:	e59f3024 	ldr	r3, [pc, #36]	; 88d8 <irq_handler+0xe0>
    88b0:	e5932000 	ldr	r2, [r3]
    88b4:	e59f301c 	ldr	r3, [pc, #28]	; 88d8 <irq_handler+0xe0>
    88b8:	e5933000 	ldr	r3, [r3]
    88bc:	e593300c 	ldr	r3, [r3, #12]
    88c0:	e2433004 	sub	r3, r3, #4	; 0x4
    88c4:	e582300c 	str	r3, [r2, #12]
    88c8:	eb0002db 	bl	943c <schedule>
    88cc:	e24bd004 	sub	sp, fp, #4	; 0x4
    88d0:	e8bd4800 	pop	{fp, lr}
    88d4:	e12fff1e 	bx	lr
    88d8:	0001598c 	.word	0x0001598c

000088dc <initialize>:
    88dc:	e92d4800 	push	{fp, lr}
    88e0:	e28db004 	add	fp, sp, #4	; 0x4
    88e4:	eb00053d 	bl	9de0 <input_init>
    88e8:	eb000546 	bl	9e08 <output_init>
    88ec:	eb00024a 	bl	921c <memory_init>
    88f0:	ebffff0d 	bl	852c <idt_init>
    88f4:	eb000b82 	bl	b704 <syscalls_init>
    88f8:	eb00046d 	bl	9ab4 <timer_interrupt_init>
    88fc:	eb000255 	bl	9258 <processes_init>
    8900:	e24bd004 	sub	sp, fp, #4	; 0x4
    8904:	e8bd4800 	pop	{fp, lr}
    8908:	e12fff1e 	bx	lr

0000890c <ledon>:
    890c:	e92d4800 	push	{fp, lr}
    8910:	e28db004 	add	fp, sp, #4	; 0x4
    8914:	e3a00010 	mov	r0, #16	; 0x10
    8918:	e3a01001 	mov	r1, #1	; 0x1
    891c:	ebfffe8d 	bl	8358 <SetGpioFunction>
    8920:	e3a00010 	mov	r0, #16	; 0x10
    8924:	e3a01000 	mov	r1, #0	; 0x0
    8928:	ebfffe9e 	bl	83a8 <SetGpio>
    892c:	e24bd004 	sub	sp, fp, #4	; 0x4
    8930:	e8bd4800 	pop	{fp, lr}
    8934:	e12fff1e 	bx	lr

00008938 <ledoff>:
    8938:	e92d4800 	push	{fp, lr}
    893c:	e28db004 	add	fp, sp, #4	; 0x4
    8940:	e3a00010 	mov	r0, #16	; 0x10
    8944:	e3a01001 	mov	r1, #1	; 0x1
    8948:	ebfffe82 	bl	8358 <SetGpioFunction>
    894c:	e3a00010 	mov	r0, #16	; 0x10
    8950:	e3a01001 	mov	r1, #1	; 0x1
    8954:	ebfffe93 	bl	83a8 <SetGpio>
    8958:	e24bd004 	sub	sp, fp, #4	; 0x4
    895c:	e8bd4800 	pop	{fp, lr}
    8960:	e12fff1e 	bx	lr

00008964 <ledblink>:
    8964:	e92d4800 	push	{fp, lr}
    8968:	e28db004 	add	fp, sp, #4	; 0x4
    896c:	ebffffe6 	bl	890c <ledon>
    8970:	e3a00a7a 	mov	r0, #499712	; 0x7a000
    8974:	e2800e12 	add	r0, r0, #288	; 0x120
    8978:	ebfffdf5 	bl	8154 <Wait>
    897c:	ebffffed 	bl	8938 <ledoff>
    8980:	e3a00a7a 	mov	r0, #499712	; 0x7a000
    8984:	e2800e12 	add	r0, r0, #288	; 0x120
    8988:	ebfffdf1 	bl	8154 <Wait>
    898c:	eafffff6 	b	896c <ledblink+0x8>

00008990 <memcpy>:
    8990:	e52db004 	push	{fp}		; (str fp, [sp, #-4]!)
    8994:	e28db000 	add	fp, sp, #0	; 0x0
    8998:	e24dd01c 	sub	sp, sp, #28	; 0x1c
    899c:	e50b0010 	str	r0, [fp, #-16]
    89a0:	e50b1014 	str	r1, [fp, #-20]
    89a4:	e50b2018 	str	r2, [fp, #-24]
    89a8:	e51b2010 	ldr	r2, [fp, #-16]
    89ac:	e51b3014 	ldr	r3, [fp, #-20]
    89b0:	e1520003 	cmp	r2, r3
    89b4:	2a000012 	bcs	8a04 <memcpy+0x74>
    89b8:	e3a03000 	mov	r3, #0	; 0x0
    89bc:	e50b3008 	str	r3, [fp, #-8]
    89c0:	ea00000a 	b	89f0 <memcpy+0x60>
    89c4:	e51b2010 	ldr	r2, [fp, #-16]
    89c8:	e51b3008 	ldr	r3, [fp, #-8]
    89cc:	e0821003 	add	r1, r2, r3
    89d0:	e51b2014 	ldr	r2, [fp, #-20]
    89d4:	e51b3008 	ldr	r3, [fp, #-8]
    89d8:	e0823003 	add	r3, r2, r3
    89dc:	e5d33000 	ldrb	r3, [r3]
    89e0:	e5c13000 	strb	r3, [r1]
    89e4:	e51b3008 	ldr	r3, [fp, #-8]
    89e8:	e2833001 	add	r3, r3, #1	; 0x1
    89ec:	e50b3008 	str	r3, [fp, #-8]
    89f0:	e51b2008 	ldr	r2, [fp, #-8]
    89f4:	e51b3018 	ldr	r3, [fp, #-24]
    89f8:	e1520003 	cmp	r2, r3
    89fc:	3afffff0 	bcc	89c4 <memcpy+0x34>
    8a00:	ea000015 	b	8a5c <memcpy+0xcc>
    8a04:	e51b3018 	ldr	r3, [fp, #-24]
    8a08:	e2433001 	sub	r3, r3, #1	; 0x1
    8a0c:	e50b3008 	str	r3, [fp, #-8]
    8a10:	ea00000a 	b	8a40 <memcpy+0xb0>
    8a14:	e51b2010 	ldr	r2, [fp, #-16]
    8a18:	e51b3008 	ldr	r3, [fp, #-8]
    8a1c:	e0821003 	add	r1, r2, r3
    8a20:	e51b2014 	ldr	r2, [fp, #-20]
    8a24:	e51b3008 	ldr	r3, [fp, #-8]
    8a28:	e0823003 	add	r3, r2, r3
    8a2c:	e5d33000 	ldrb	r3, [r3]
    8a30:	e5c13000 	strb	r3, [r1]
    8a34:	e51b3008 	ldr	r3, [fp, #-8]
    8a38:	e2433001 	sub	r3, r3, #1	; 0x1
    8a3c:	e50b3008 	str	r3, [fp, #-8]
    8a40:	e51b3008 	ldr	r3, [fp, #-8]
    8a44:	e3530000 	cmp	r3, #0	; 0x0
    8a48:	1afffff1 	bne	8a14 <memcpy+0x84>
    8a4c:	e51b2010 	ldr	r2, [fp, #-16]
    8a50:	e51b3014 	ldr	r3, [fp, #-20]
    8a54:	e5d33000 	ldrb	r3, [r3]
    8a58:	e5c23000 	strb	r3, [r2]
    8a5c:	e51b3010 	ldr	r3, [fp, #-16]
    8a60:	e1a00003 	mov	r0, r3
    8a64:	e28bd000 	add	sp, fp, #0	; 0x0
    8a68:	e8bd0800 	pop	{fp}
    8a6c:	e12fff1e 	bx	lr

00008a70 <toHexString>:
    8a70:	e52db004 	push	{fp}		; (str fp, [sp, #-4]!)
    8a74:	e28db000 	add	fp, sp, #0	; 0x0
    8a78:	e24dd014 	sub	sp, sp, #20	; 0x14
    8a7c:	e50b0010 	str	r0, [fp, #-16]
    8a80:	e50b1014 	str	r1, [fp, #-20]
    8a84:	e3a03000 	mov	r3, #0	; 0x0
    8a88:	e50b300c 	str	r3, [fp, #-12]
    8a8c:	e51b2014 	ldr	r2, [fp, #-20]
    8a90:	e3a03030 	mov	r3, #48	; 0x30
    8a94:	e5c23000 	strb	r3, [r2]
    8a98:	e51b3014 	ldr	r3, [fp, #-20]
    8a9c:	e2832001 	add	r2, r3, #1	; 0x1
    8aa0:	e3a03078 	mov	r3, #120	; 0x78
    8aa4:	e5c23000 	strb	r3, [r2]
    8aa8:	e51b3010 	ldr	r3, [fp, #-16]
    8aac:	e50b3008 	str	r3, [fp, #-8]
    8ab0:	e3a03001 	mov	r3, #1	; 0x1
    8ab4:	e50b300c 	str	r3, [fp, #-12]
    8ab8:	ea00000f 	b	8afc <toHexString+0x8c>
    8abc:	e51b300c 	ldr	r3, [fp, #-12]
    8ac0:	e263300a 	rsb	r3, r3, #10	; 0xa
    8ac4:	e1a02003 	mov	r2, r3
    8ac8:	e51b3014 	ldr	r3, [fp, #-20]
    8acc:	e0831002 	add	r1, r3, r2
    8ad0:	e51b3008 	ldr	r3, [fp, #-8]
    8ad4:	e203200f 	and	r2, r3, #15	; 0xf
    8ad8:	e59f3034 	ldr	r3, [pc, #52]	; 8b14 <toHexString+0xa4>
    8adc:	e7d33002 	ldrb	r3, [r3, r2]
    8ae0:	e5c13000 	strb	r3, [r1]
    8ae4:	e51b3008 	ldr	r3, [fp, #-8]
    8ae8:	e1a03223 	lsr	r3, r3, #4
    8aec:	e50b3008 	str	r3, [fp, #-8]
    8af0:	e51b300c 	ldr	r3, [fp, #-12]
    8af4:	e2833001 	add	r3, r3, #1	; 0x1
    8af8:	e50b300c 	str	r3, [fp, #-12]
    8afc:	e51b300c 	ldr	r3, [fp, #-12]
    8b00:	e3530008 	cmp	r3, #8	; 0x8
    8b04:	daffffec 	ble	8abc <toHexString+0x4c>
    8b08:	e28bd000 	add	sp, fp, #0	; 0x0
    8b0c:	e8bd0800 	pop	{fp}
    8b10:	e12fff1e 	bx	lr
    8b14:	000158f0 	.word	0x000158f0

00008b18 <toBinString>:
    8b18:	e52db004 	push	{fp}		; (str fp, [sp, #-4]!)
    8b1c:	e28db000 	add	fp, sp, #0	; 0x0
    8b20:	e24dd014 	sub	sp, sp, #20	; 0x14
    8b24:	e50b0010 	str	r0, [fp, #-16]
    8b28:	e50b1014 	str	r1, [fp, #-20]
    8b2c:	e3a03000 	mov	r3, #0	; 0x0
    8b30:	e50b300c 	str	r3, [fp, #-12]
    8b34:	e51b3010 	ldr	r3, [fp, #-16]
    8b38:	e50b3008 	str	r3, [fp, #-8]
    8b3c:	e3a0301f 	mov	r3, #31	; 0x1f
    8b40:	e50b300c 	str	r3, [fp, #-12]
    8b44:	ea00000e 	b	8b84 <toBinString+0x6c>
    8b48:	e51b200c 	ldr	r2, [fp, #-12]
    8b4c:	e51b3014 	ldr	r3, [fp, #-20]
    8b50:	e0832002 	add	r2, r3, r2
    8b54:	e51b3008 	ldr	r3, [fp, #-8]
    8b58:	e20330ff 	and	r3, r3, #255	; 0xff
    8b5c:	e2033001 	and	r3, r3, #1	; 0x1
    8b60:	e2833030 	add	r3, r3, #48	; 0x30
    8b64:	e20330ff 	and	r3, r3, #255	; 0xff
    8b68:	e5c23000 	strb	r3, [r2]
    8b6c:	e51b3008 	ldr	r3, [fp, #-8]
    8b70:	e1a030a3 	lsr	r3, r3, #1
    8b74:	e50b3008 	str	r3, [fp, #-8]
    8b78:	e51b300c 	ldr	r3, [fp, #-12]
    8b7c:	e2433001 	sub	r3, r3, #1	; 0x1
    8b80:	e50b300c 	str	r3, [fp, #-12]
    8b84:	e51b300c 	ldr	r3, [fp, #-12]
    8b88:	e3530000 	cmp	r3, #0	; 0x0
    8b8c:	aaffffed 	bge	8b48 <toBinString+0x30>
    8b90:	e28bd000 	add	sp, fp, #0	; 0x0
    8b94:	e8bd0800 	pop	{fp}
    8b98:	e12fff1e 	bx	lr

00008b9c <toDecimalString>:
    8b9c:	e92d4800 	push	{fp, lr}
    8ba0:	e28db004 	add	fp, sp, #4	; 0x4
    8ba4:	e24dd018 	sub	sp, sp, #24	; 0x18
    8ba8:	e50b0010 	str	r0, [fp, #-16]
    8bac:	e50b1014 	str	r1, [fp, #-20]
    8bb0:	e3a03000 	mov	r3, #0	; 0x0
    8bb4:	e50b300c 	str	r3, [fp, #-12]
    8bb8:	e51b3010 	ldr	r3, [fp, #-16]
    8bbc:	e3530000 	cmp	r3, #0	; 0x0
    8bc0:	ba000002 	blt	8bd0 <toDecimalString+0x34>
    8bc4:	e51b3010 	ldr	r3, [fp, #-16]
    8bc8:	e50b3008 	str	r3, [fp, #-8]
    8bcc:	ea000002 	b	8bdc <toDecimalString+0x40>
    8bd0:	e51b3010 	ldr	r3, [fp, #-16]
    8bd4:	e2633000 	rsb	r3, r3, #0	; 0x0
    8bd8:	e50b3008 	str	r3, [fp, #-8]
    8bdc:	e51b300c 	ldr	r3, [fp, #-12]
    8be0:	e263300a 	rsb	r3, r3, #10	; 0xa
    8be4:	e1a02003 	mov	r2, r3
    8be8:	e51b3014 	ldr	r3, [fp, #-20]
    8bec:	e0830002 	add	r0, r3, r2
    8bf0:	e51b1008 	ldr	r1, [fp, #-8]
    8bf4:	e59f30e4 	ldr	r3, [pc, #228]	; 8ce0 <toDecimalString+0x144>
    8bf8:	e0c32391 	smull	r2, r3, r1, r3
    8bfc:	e1a02143 	asr	r2, r3, #2
    8c00:	e1a03fc1 	asr	r3, r1, #31
    8c04:	e0633002 	rsb	r3, r3, r2
    8c08:	e50b3018 	str	r3, [fp, #-24]
    8c0c:	e51b3018 	ldr	r3, [fp, #-24]
    8c10:	e1a03083 	lsl	r3, r3, #1
    8c14:	e1a02103 	lsl	r2, r3, #2
    8c18:	e0833002 	add	r3, r3, r2
    8c1c:	e0633001 	rsb	r3, r3, r1
    8c20:	e50b3018 	str	r3, [fp, #-24]
    8c24:	e51b2018 	ldr	r2, [fp, #-24]
    8c28:	e20230ff 	and	r3, r2, #255	; 0xff
    8c2c:	e2833030 	add	r3, r3, #48	; 0x30
    8c30:	e20330ff 	and	r3, r3, #255	; 0xff
    8c34:	e5c03000 	strb	r3, [r0]
    8c38:	e51b1008 	ldr	r1, [fp, #-8]
    8c3c:	e59f309c 	ldr	r3, [pc, #156]	; 8ce0 <toDecimalString+0x144>
    8c40:	e0c32391 	smull	r2, r3, r1, r3
    8c44:	e1a02143 	asr	r2, r3, #2
    8c48:	e1a03fc1 	asr	r3, r1, #31
    8c4c:	e0633002 	rsb	r3, r3, r2
    8c50:	e50b3008 	str	r3, [fp, #-8]
    8c54:	e51b300c 	ldr	r3, [fp, #-12]
    8c58:	e2833001 	add	r3, r3, #1	; 0x1
    8c5c:	e50b300c 	str	r3, [fp, #-12]
    8c60:	e51b3008 	ldr	r3, [fp, #-8]
    8c64:	e3530000 	cmp	r3, #0	; 0x0
    8c68:	caffffdb 	bgt	8bdc <toDecimalString+0x40>
    8c6c:	e51b3010 	ldr	r3, [fp, #-16]
    8c70:	e3530000 	cmp	r3, #0	; 0x0
    8c74:	aa000009 	bge	8ca0 <toDecimalString+0x104>
    8c78:	e51b300c 	ldr	r3, [fp, #-12]
    8c7c:	e263300a 	rsb	r3, r3, #10	; 0xa
    8c80:	e1a02003 	mov	r2, r3
    8c84:	e51b3014 	ldr	r3, [fp, #-20]
    8c88:	e0832002 	add	r2, r3, r2
    8c8c:	e3a0302d 	mov	r3, #45	; 0x2d
    8c90:	e5c23000 	strb	r3, [r2]
    8c94:	e51b300c 	ldr	r3, [fp, #-12]
    8c98:	e2833001 	add	r3, r3, #1	; 0x1
    8c9c:	e50b300c 	str	r3, [fp, #-12]
    8ca0:	e51b300c 	ldr	r3, [fp, #-12]
    8ca4:	e353000a 	cmp	r3, #10	; 0xa
    8ca8:	ca000007 	bgt	8ccc <toDecimalString+0x130>
    8cac:	e51b300c 	ldr	r3, [fp, #-12]
    8cb0:	e263200b 	rsb	r2, r3, #11	; 0xb
    8cb4:	e51b3014 	ldr	r3, [fp, #-20]
    8cb8:	e0833002 	add	r3, r3, r2
    8cbc:	e51b200c 	ldr	r2, [fp, #-12]
    8cc0:	e51b0014 	ldr	r0, [fp, #-20]
    8cc4:	e1a01003 	mov	r1, r3
    8cc8:	ebffff30 	bl	8990 <memcpy>
    8ccc:	e51b300c 	ldr	r3, [fp, #-12]
    8cd0:	e1a00003 	mov	r0, r3
    8cd4:	e24bd004 	sub	sp, fp, #4	; 0x4
    8cd8:	e8bd4800 	pop	{fp, lr}
    8cdc:	e12fff1e 	bx	lr
    8ce0:	66666667 	.word	0x66666667

00008ce4 <clearScreen>:
    8ce4:	e52db004 	push	{fp}		; (str fp, [sp, #-4]!)
    8ce8:	e28db000 	add	fp, sp, #0	; 0x0
    8cec:	e24dd00c 	sub	sp, sp, #12	; 0xc
    8cf0:	e3a03000 	mov	r3, #0	; 0x0
    8cf4:	e50b3008 	str	r3, [fp, #-8]
    8cf8:	ea00000a 	b	8d28 <clearScreen+0x44>
    8cfc:	e59f3048 	ldr	r3, [pc, #72]	; 8d4c <clearScreen+0x68>
    8d00:	e5933000 	ldr	r3, [r3]
    8d04:	e5933020 	ldr	r3, [r3, #32]
    8d08:	e1a02003 	mov	r2, r3
    8d0c:	e51b3008 	ldr	r3, [fp, #-8]
    8d10:	e0822003 	add	r2, r2, r3
    8d14:	e3a03000 	mov	r3, #0	; 0x0
    8d18:	e5c23000 	strb	r3, [r2]
    8d1c:	e51b3008 	ldr	r3, [fp, #-8]
    8d20:	e2833001 	add	r3, r3, #1	; 0x1
    8d24:	e50b3008 	str	r3, [fp, #-8]
    8d28:	e51b2008 	ldr	r2, [fp, #-8]
    8d2c:	e59f3018 	ldr	r3, [pc, #24]	; 8d4c <clearScreen+0x68>
    8d30:	e5933000 	ldr	r3, [r3]
    8d34:	e5933024 	ldr	r3, [r3, #36]
    8d38:	e1520003 	cmp	r2, r3
    8d3c:	3affffee 	bcc	8cfc <clearScreen+0x18>
    8d40:	e28bd000 	add	sp, fp, #0	; 0x0
    8d44:	e8bd0800 	pop	{fp}
    8d48:	e12fff1e 	bx	lr
    8d4c:	000159e8 	.word	0x000159e8

00008d50 <kmalloc>:
    8d50:	e92d4800 	push	{fp, lr}
    8d54:	e28db004 	add	fp, sp, #4	; 0x4
    8d58:	e24dd008 	sub	sp, sp, #8	; 0x8
    8d5c:	e50b0008 	str	r0, [fp, #-8]
    8d60:	e59f0018 	ldr	r0, [pc, #24]	; 8d80 <kmalloc+0x30>
    8d64:	e51b1008 	ldr	r1, [fp, #-8]
    8d68:	eb000005 	bl	8d84 <memory_allocator>
    8d6c:	e1a03000 	mov	r3, r0
    8d70:	e1a00003 	mov	r0, r3
    8d74:	e24bd004 	sub	sp, fp, #4	; 0x4
    8d78:	e8bd4800 	pop	{fp, lr}
    8d7c:	e12fff1e 	bx	lr
    8d80:	00015970 	.word	0x00015970

00008d84 <memory_allocator>:
    8d84:	e92d4800 	push	{fp, lr}
    8d88:	e28db004 	add	fp, sp, #4	; 0x4
    8d8c:	e24dd020 	sub	sp, sp, #32	; 0x20
    8d90:	e50b0020 	str	r0, [fp, #-32]
    8d94:	e50b1024 	str	r1, [fp, #-36]
    8d98:	e51b3024 	ldr	r3, [fp, #-36]
    8d9c:	e2033003 	and	r3, r3, #3	; 0x3
    8da0:	e2633004 	rsb	r3, r3, #4	; 0x4
    8da4:	e50b301c 	str	r3, [fp, #-28]
    8da8:	e51b2024 	ldr	r2, [fp, #-36]
    8dac:	e51b301c 	ldr	r3, [fp, #-28]
    8db0:	e0823003 	add	r3, r2, r3
    8db4:	e2833004 	add	r3, r3, #4	; 0x4
    8db8:	e50b3018 	str	r3, [fp, #-24]
    8dbc:	e3a03000 	mov	r3, #0	; 0x0
    8dc0:	e50b3014 	str	r3, [fp, #-20]
    8dc4:	e51b3020 	ldr	r3, [fp, #-32]
    8dc8:	e50b3010 	str	r3, [fp, #-16]
    8dcc:	e3a03000 	mov	r3, #0	; 0x0
    8dd0:	e50b300c 	str	r3, [fp, #-12]
    8dd4:	e51b301c 	ldr	r3, [fp, #-28]
    8dd8:	e3530004 	cmp	r3, #4	; 0x4
    8ddc:	1a000043 	bne	8ef0 <memory_allocator+0x16c>
    8de0:	e51b3018 	ldr	r3, [fp, #-24]
    8de4:	e2433004 	sub	r3, r3, #4	; 0x4
    8de8:	e50b3018 	str	r3, [fp, #-24]
    8dec:	ea00003f 	b	8ef0 <memory_allocator+0x16c>
    8df0:	e51b3010 	ldr	r3, [fp, #-16]
    8df4:	e5932004 	ldr	r2, [r3, #4]
    8df8:	e51b3018 	ldr	r3, [fp, #-24]
    8dfc:	e1520003 	cmp	r2, r3
    8e00:	3a000035 	bcc	8edc <memory_allocator+0x158>
    8e04:	e51b3010 	ldr	r3, [fp, #-16]
    8e08:	e5933000 	ldr	r3, [r3]
    8e0c:	e50b300c 	str	r3, [fp, #-12]
    8e10:	e51b200c 	ldr	r2, [fp, #-12]
    8e14:	e51b3018 	ldr	r3, [fp, #-24]
    8e18:	e5823000 	str	r3, [r2]
    8e1c:	e51b3010 	ldr	r3, [fp, #-16]
    8e20:	e5932000 	ldr	r2, [r3]
    8e24:	e51b3018 	ldr	r3, [fp, #-24]
    8e28:	e0822003 	add	r2, r2, r3
    8e2c:	e51b3010 	ldr	r3, [fp, #-16]
    8e30:	e5832000 	str	r2, [r3]
    8e34:	e51b3010 	ldr	r3, [fp, #-16]
    8e38:	e5932004 	ldr	r2, [r3, #4]
    8e3c:	e51b3018 	ldr	r3, [fp, #-24]
    8e40:	e0632002 	rsb	r2, r3, r2
    8e44:	e51b3010 	ldr	r3, [fp, #-16]
    8e48:	e5832004 	str	r2, [r3, #4]
    8e4c:	e51b3010 	ldr	r3, [fp, #-16]
    8e50:	e5933004 	ldr	r3, [r3, #4]
    8e54:	e3530000 	cmp	r3, #0	; 0x0
    8e58:	1a000024 	bne	8ef0 <memory_allocator+0x16c>
    8e5c:	e51b3014 	ldr	r3, [fp, #-20]
    8e60:	e3530000 	cmp	r3, #0	; 0x0
    8e64:	1a000015 	bne	8ec0 <memory_allocator+0x13c>
    8e68:	e51b3010 	ldr	r3, [fp, #-16]
    8e6c:	e5933008 	ldr	r3, [r3, #8]
    8e70:	e3530000 	cmp	r3, #0	; 0x0
    8e74:	0a00001d 	beq	8ef0 <memory_allocator+0x16c>
    8e78:	e51b3010 	ldr	r3, [fp, #-16]
    8e7c:	e5933008 	ldr	r3, [r3, #8]
    8e80:	e50b3008 	str	r3, [fp, #-8]
    8e84:	e51b3008 	ldr	r3, [fp, #-8]
    8e88:	e5932000 	ldr	r2, [r3]
    8e8c:	e51b3020 	ldr	r3, [fp, #-32]
    8e90:	e5832000 	str	r2, [r3]
    8e94:	e51b3008 	ldr	r3, [fp, #-8]
    8e98:	e5932004 	ldr	r2, [r3, #4]
    8e9c:	e51b3020 	ldr	r3, [fp, #-32]
    8ea0:	e5832004 	str	r2, [r3, #4]
    8ea4:	e51b3008 	ldr	r3, [fp, #-8]
    8ea8:	e5932008 	ldr	r2, [r3, #8]
    8eac:	e51b3020 	ldr	r3, [fp, #-32]
    8eb0:	e5832008 	str	r2, [r3, #8]
    8eb4:	e51b0008 	ldr	r0, [fp, #-8]
    8eb8:	eb00001d 	bl	8f34 <kfree>
    8ebc:	ea00000b 	b	8ef0 <memory_allocator+0x16c>
    8ec0:	e51b3010 	ldr	r3, [fp, #-16]
    8ec4:	e5932008 	ldr	r2, [r3, #8]
    8ec8:	e51b3014 	ldr	r3, [fp, #-20]
    8ecc:	e5832008 	str	r2, [r3, #8]
    8ed0:	e51b0010 	ldr	r0, [fp, #-16]
    8ed4:	eb000016 	bl	8f34 <kfree>
    8ed8:	ea000004 	b	8ef0 <memory_allocator+0x16c>
    8edc:	e51b3010 	ldr	r3, [fp, #-16]
    8ee0:	e50b3014 	str	r3, [fp, #-20]
    8ee4:	e51b3010 	ldr	r3, [fp, #-16]
    8ee8:	e5933008 	ldr	r3, [r3, #8]
    8eec:	e50b3010 	str	r3, [fp, #-16]
    8ef0:	e51b300c 	ldr	r3, [fp, #-12]
    8ef4:	e3530000 	cmp	r3, #0	; 0x0
    8ef8:	1a000002 	bne	8f08 <memory_allocator+0x184>
    8efc:	e51b3010 	ldr	r3, [fp, #-16]
    8f00:	e3530000 	cmp	r3, #0	; 0x0
    8f04:	1affffb9 	bne	8df0 <memory_allocator+0x6c>
    8f08:	e51b300c 	ldr	r3, [fp, #-12]
    8f0c:	e3530000 	cmp	r3, #0	; 0x0
    8f10:	0a000002 	beq	8f20 <memory_allocator+0x19c>
    8f14:	e51b300c 	ldr	r3, [fp, #-12]
    8f18:	e2833004 	add	r3, r3, #4	; 0x4
    8f1c:	e50b300c 	str	r3, [fp, #-12]
    8f20:	e51b300c 	ldr	r3, [fp, #-12]
    8f24:	e1a00003 	mov	r0, r3
    8f28:	e24bd004 	sub	sp, fp, #4	; 0x4
    8f2c:	e8bd4800 	pop	{fp, lr}
    8f30:	e12fff1e 	bx	lr

00008f34 <kfree>:
    8f34:	e92d4800 	push	{fp, lr}
    8f38:	e28db004 	add	fp, sp, #4	; 0x4
    8f3c:	e24dd008 	sub	sp, sp, #8	; 0x8
    8f40:	e50b0008 	str	r0, [fp, #-8]
    8f44:	e59f0010 	ldr	r0, [pc, #16]	; 8f5c <kfree+0x28>
    8f48:	e51b1008 	ldr	r1, [fp, #-8]
    8f4c:	eb000003 	bl	8f60 <memory_deallocator>
    8f50:	e24bd004 	sub	sp, fp, #4	; 0x4
    8f54:	e8bd4800 	pop	{fp, lr}
    8f58:	e12fff1e 	bx	lr
    8f5c:	00015970 	.word	0x00015970

00008f60 <memory_deallocator>:
    8f60:	e92d4800 	push	{fp, lr}
    8f64:	e28db004 	add	fp, sp, #4	; 0x4
    8f68:	e24dd020 	sub	sp, sp, #32	; 0x20
    8f6c:	e50b0020 	str	r0, [fp, #-32]
    8f70:	e50b1024 	str	r1, [fp, #-36]
    8f74:	e51b3024 	ldr	r3, [fp, #-36]
    8f78:	e5933000 	ldr	r3, [r3]
    8f7c:	e50b3018 	str	r3, [fp, #-24]
    8f80:	e3a03000 	mov	r3, #0	; 0x0
    8f84:	e50b3014 	str	r3, [fp, #-20]
    8f88:	e51b3020 	ldr	r3, [fp, #-32]
    8f8c:	e50b3010 	str	r3, [fp, #-16]
    8f90:	e51b3020 	ldr	r3, [fp, #-32]
    8f94:	e5933004 	ldr	r3, [r3, #4]
    8f98:	e3530000 	cmp	r3, #0	; 0x0
    8f9c:	1a00000b 	bne	8fd0 <memory_deallocator+0x70>
    8fa0:	e51b2020 	ldr	r2, [fp, #-32]
    8fa4:	e51b3024 	ldr	r3, [fp, #-36]
    8fa8:	e5823000 	str	r3, [r2]
    8fac:	e51b2020 	ldr	r2, [fp, #-32]
    8fb0:	e51b3018 	ldr	r3, [fp, #-24]
    8fb4:	e5823004 	str	r3, [r2, #4]
    8fb8:	ea000094 	b	9210 <memory_deallocator+0x2b0>
    8fbc:	e51b3010 	ldr	r3, [fp, #-16]
    8fc0:	e50b3014 	str	r3, [fp, #-20]
    8fc4:	e51b3010 	ldr	r3, [fp, #-16]
    8fc8:	e5933008 	ldr	r3, [r3, #8]
    8fcc:	e50b3010 	str	r3, [fp, #-16]
    8fd0:	e51b3010 	ldr	r3, [fp, #-16]
    8fd4:	e3530000 	cmp	r3, #0	; 0x0
    8fd8:	0a000004 	beq	8ff0 <memory_deallocator+0x90>
    8fdc:	e51b3010 	ldr	r3, [fp, #-16]
    8fe0:	e5932000 	ldr	r2, [r3]
    8fe4:	e51b3024 	ldr	r3, [fp, #-36]
    8fe8:	e1520003 	cmp	r2, r3
    8fec:	3afffff2 	bcc	8fbc <memory_deallocator+0x5c>
    8ff0:	e51b3014 	ldr	r3, [fp, #-20]
    8ff4:	e3530000 	cmp	r3, #0	; 0x0
    8ff8:	0a000053 	beq	914c <memory_deallocator+0x1ec>
    8ffc:	e51b3014 	ldr	r3, [fp, #-20]
    9000:	e5932000 	ldr	r2, [r3]
    9004:	e51b3014 	ldr	r3, [fp, #-20]
    9008:	e5933004 	ldr	r3, [r3, #4]
    900c:	e0822003 	add	r2, r2, r3
    9010:	e51b3024 	ldr	r3, [fp, #-36]
    9014:	e1520003 	cmp	r2, r3
    9018:	1a00001f 	bne	909c <memory_deallocator+0x13c>
    901c:	e51b3014 	ldr	r3, [fp, #-20]
    9020:	e5932004 	ldr	r2, [r3, #4]
    9024:	e51b3018 	ldr	r3, [fp, #-24]
    9028:	e0822003 	add	r2, r2, r3
    902c:	e51b3014 	ldr	r3, [fp, #-20]
    9030:	e5832004 	str	r2, [r3, #4]
    9034:	e51b3010 	ldr	r3, [fp, #-16]
    9038:	e3530000 	cmp	r3, #0	; 0x0
    903c:	0a000073 	beq	9210 <memory_deallocator+0x2b0>
    9040:	e51b3014 	ldr	r3, [fp, #-20]
    9044:	e5932000 	ldr	r2, [r3]
    9048:	e51b3014 	ldr	r3, [fp, #-20]
    904c:	e5933004 	ldr	r3, [r3, #4]
    9050:	e0822003 	add	r2, r2, r3
    9054:	e51b3010 	ldr	r3, [fp, #-16]
    9058:	e5933000 	ldr	r3, [r3]
    905c:	e1520003 	cmp	r2, r3
    9060:	1a00006a 	bne	9210 <memory_deallocator+0x2b0>
    9064:	e51b3014 	ldr	r3, [fp, #-20]
    9068:	e5932004 	ldr	r2, [r3, #4]
    906c:	e51b3010 	ldr	r3, [fp, #-16]
    9070:	e5933004 	ldr	r3, [r3, #4]
    9074:	e0822003 	add	r2, r2, r3
    9078:	e51b3014 	ldr	r3, [fp, #-20]
    907c:	e5832004 	str	r2, [r3, #4]
    9080:	e51b3010 	ldr	r3, [fp, #-16]
    9084:	e5932008 	ldr	r2, [r3, #8]
    9088:	e51b3014 	ldr	r3, [fp, #-20]
    908c:	e5832008 	str	r2, [r3, #8]
    9090:	e51b0010 	ldr	r0, [fp, #-16]
    9094:	ebffffa6 	bl	8f34 <kfree>
    9098:	ea00005c 	b	9210 <memory_deallocator+0x2b0>
    909c:	e51b3010 	ldr	r3, [fp, #-16]
    90a0:	e3530000 	cmp	r3, #0	; 0x0
    90a4:	0a000014 	beq	90fc <memory_deallocator+0x19c>
    90a8:	e51b2024 	ldr	r2, [fp, #-36]
    90ac:	e51b3018 	ldr	r3, [fp, #-24]
    90b0:	e0822003 	add	r2, r2, r3
    90b4:	e51b3010 	ldr	r3, [fp, #-16]
    90b8:	e5933000 	ldr	r3, [r3]
    90bc:	e1520003 	cmp	r2, r3
    90c0:	1a00000d 	bne	90fc <memory_deallocator+0x19c>
    90c4:	e51b3010 	ldr	r3, [fp, #-16]
    90c8:	e5932000 	ldr	r2, [r3]
    90cc:	e51b3018 	ldr	r3, [fp, #-24]
    90d0:	e2633000 	rsb	r3, r3, #0	; 0x0
    90d4:	e0822003 	add	r2, r2, r3
    90d8:	e51b3010 	ldr	r3, [fp, #-16]
    90dc:	e5832000 	str	r2, [r3]
    90e0:	e51b3010 	ldr	r3, [fp, #-16]
    90e4:	e5932004 	ldr	r2, [r3, #4]
    90e8:	e51b3018 	ldr	r3, [fp, #-24]
    90ec:	e0822003 	add	r2, r2, r3
    90f0:	e51b3010 	ldr	r3, [fp, #-16]
    90f4:	e5832004 	str	r2, [r3, #4]
    90f8:	ea000044 	b	9210 <memory_deallocator+0x2b0>
    90fc:	e3a0000c 	mov	r0, #12	; 0xc
    9100:	ebffff12 	bl	8d50 <kmalloc>
    9104:	e1a03000 	mov	r3, r0
    9108:	e50b300c 	str	r3, [fp, #-12]
    910c:	e51b300c 	ldr	r3, [fp, #-12]
    9110:	e3530000 	cmp	r3, #0	; 0x0
    9114:	0a00003d 	beq	9210 <memory_deallocator+0x2b0>
    9118:	e51b200c 	ldr	r2, [fp, #-12]
    911c:	e51b3024 	ldr	r3, [fp, #-36]
    9120:	e5823000 	str	r3, [r2]
    9124:	e51b200c 	ldr	r2, [fp, #-12]
    9128:	e51b3018 	ldr	r3, [fp, #-24]
    912c:	e5823004 	str	r3, [r2, #4]
    9130:	e51b200c 	ldr	r2, [fp, #-12]
    9134:	e51b3010 	ldr	r3, [fp, #-16]
    9138:	e5823008 	str	r3, [r2, #8]
    913c:	e51b2014 	ldr	r2, [fp, #-20]
    9140:	e51b300c 	ldr	r3, [fp, #-12]
    9144:	e5823008 	str	r3, [r2, #8]
    9148:	ea000030 	b	9210 <memory_deallocator+0x2b0>
    914c:	e51b2024 	ldr	r2, [fp, #-36]
    9150:	e51b3018 	ldr	r3, [fp, #-24]
    9154:	e0822003 	add	r2, r2, r3
    9158:	e51b3010 	ldr	r3, [fp, #-16]
    915c:	e5933000 	ldr	r3, [r3]
    9160:	e1520003 	cmp	r2, r3
    9164:	1a00000d 	bne	91a0 <memory_deallocator+0x240>
    9168:	e51b3010 	ldr	r3, [fp, #-16]
    916c:	e5932000 	ldr	r2, [r3]
    9170:	e51b3018 	ldr	r3, [fp, #-24]
    9174:	e2633000 	rsb	r3, r3, #0	; 0x0
    9178:	e0822003 	add	r2, r2, r3
    917c:	e51b3010 	ldr	r3, [fp, #-16]
    9180:	e5832000 	str	r2, [r3]
    9184:	e51b3010 	ldr	r3, [fp, #-16]
    9188:	e5932004 	ldr	r2, [r3, #4]
    918c:	e51b3018 	ldr	r3, [fp, #-24]
    9190:	e0822003 	add	r2, r2, r3
    9194:	e51b3010 	ldr	r3, [fp, #-16]
    9198:	e5832004 	str	r2, [r3, #4]
    919c:	ea00001b 	b	9210 <memory_deallocator+0x2b0>
    91a0:	e3a0000c 	mov	r0, #12	; 0xc
    91a4:	ebfffee9 	bl	8d50 <kmalloc>
    91a8:	e1a03000 	mov	r3, r0
    91ac:	e50b3008 	str	r3, [fp, #-8]
    91b0:	e51b3008 	ldr	r3, [fp, #-8]
    91b4:	e3530000 	cmp	r3, #0	; 0x0
    91b8:	0a000014 	beq	9210 <memory_deallocator+0x2b0>
    91bc:	e51b3010 	ldr	r3, [fp, #-16]
    91c0:	e5932000 	ldr	r2, [r3]
    91c4:	e51b3008 	ldr	r3, [fp, #-8]
    91c8:	e5832000 	str	r2, [r3]
    91cc:	e51b3010 	ldr	r3, [fp, #-16]
    91d0:	e5932004 	ldr	r2, [r3, #4]
    91d4:	e51b3008 	ldr	r3, [fp, #-8]
    91d8:	e5832004 	str	r2, [r3, #4]
    91dc:	e51b3010 	ldr	r3, [fp, #-16]
    91e0:	e5932008 	ldr	r2, [r3, #8]
    91e4:	e51b3008 	ldr	r3, [fp, #-8]
    91e8:	e5832008 	str	r2, [r3, #8]
    91ec:	e51b2010 	ldr	r2, [fp, #-16]
    91f0:	e51b3024 	ldr	r3, [fp, #-36]
    91f4:	e5823000 	str	r3, [r2]
    91f8:	e51b2010 	ldr	r2, [fp, #-16]
    91fc:	e51b3018 	ldr	r3, [fp, #-24]
    9200:	e5823004 	str	r3, [r2, #4]
    9204:	e51b2010 	ldr	r2, [fp, #-16]
    9208:	e51b3008 	ldr	r3, [fp, #-8]
    920c:	e5823008 	str	r3, [r2, #8]
    9210:	e24bd004 	sub	sp, fp, #4	; 0x4
    9214:	e8bd4800 	pop	{fp, lr}
    9218:	e12fff1e 	bx	lr

0000921c <memory_init>:
    921c:	e52db004 	push	{fp}		; (str fp, [sp, #-4]!)
    9220:	e28db000 	add	fp, sp, #0	; 0x0
    9224:	e59f2028 	ldr	r2, [pc, #40]	; 9254 <memory_init+0x38>
    9228:	e3a03601 	mov	r3, #1048576	; 0x100000
    922c:	e5823000 	str	r3, [r2]
    9230:	e59f201c 	ldr	r2, [pc, #28]	; 9254 <memory_init+0x38>
    9234:	e3a03201 	mov	r3, #268435456	; 0x10000000
    9238:	e5823004 	str	r3, [r2, #4]
    923c:	e59f2010 	ldr	r2, [pc, #16]	; 9254 <memory_init+0x38>
    9240:	e3a03000 	mov	r3, #0	; 0x0
    9244:	e5823008 	str	r3, [r2, #8]
    9248:	e28bd000 	add	sp, fp, #0	; 0x0
    924c:	e8bd0800 	pop	{fp}
    9250:	e12fff1e 	bx	lr
    9254:	00015970 	.word	0x00015970

00009258 <processes_init>:
    9258:	e92d4800 	push	{fp, lr}
    925c:	e28db004 	add	fp, sp, #4	; 0x4
    9260:	e24dd008 	sub	sp, sp, #8	; 0x8
    9264:	e3a00058 	mov	r0, #88	; 0x58
    9268:	ebfffeb8 	bl	8d50 <kmalloc>
    926c:	e1a03000 	mov	r3, r0
    9270:	e50b3008 	str	r3, [fp, #-8]
    9274:	e51b2008 	ldr	r2, [fp, #-8]
    9278:	e3a03001 	mov	r3, #1	; 0x1
    927c:	e5823000 	str	r3, [r2]
    9280:	e51b2008 	ldr	r2, [fp, #-8]
    9284:	e3a03000 	mov	r3, #0	; 0x0
    9288:	e5823004 	str	r3, [r2, #4]
    928c:	e51b2008 	ldr	r2, [fp, #-8]
    9290:	e3a03902 	mov	r3, #32768	; 0x8000
    9294:	e2833008 	add	r3, r3, #8	; 0x8
    9298:	e582300c 	str	r3, [r2, #12]
    929c:	e3a00802 	mov	r0, #131072	; 0x20000
    92a0:	ebfffeaa 	bl	8d50 <kmalloc>
    92a4:	e1a02000 	mov	r2, r0
    92a8:	e51b3008 	ldr	r3, [fp, #-8]
    92ac:	e5832010 	str	r2, [r3, #16]
    92b0:	e51b3008 	ldr	r3, [fp, #-8]
    92b4:	e5932010 	ldr	r2, [r3, #16]
    92b8:	e51b3008 	ldr	r3, [fp, #-8]
    92bc:	e583201c 	str	r2, [r3, #28]
    92c0:	e51b2008 	ldr	r2, [fp, #-8]
    92c4:	e3a03801 	mov	r3, #65536	; 0x10000
    92c8:	e5823014 	str	r3, [r2, #20]
    92cc:	e51b3008 	ldr	r3, [fp, #-8]
    92d0:	e5933010 	ldr	r3, [r3, #16]
    92d4:	e2833b7f 	add	r3, r3, #130048	; 0x1fc00
    92d8:	e2833ff1 	add	r3, r3, #964	; 0x3c4
    92dc:	e51b2008 	ldr	r2, [fp, #-8]
    92e0:	e5823008 	str	r3, [r2, #8]
    92e4:	e51b3008 	ldr	r3, [fp, #-8]
    92e8:	e5933008 	ldr	r3, [r3, #8]
    92ec:	e1a02003 	mov	r2, r3
    92f0:	e3a03e15 	mov	r3, #336	; 0x150
    92f4:	e5823000 	str	r3, [r2]
    92f8:	e51b2008 	ldr	r2, [fp, #-8]
    92fc:	e3a03000 	mov	r3, #0	; 0x0
    9300:	e5823018 	str	r3, [r2, #24]
    9304:	e51b2008 	ldr	r2, [fp, #-8]
    9308:	e3a03000 	mov	r3, #0	; 0x0
    930c:	e5c23020 	strb	r3, [r2, #32]
    9310:	e51b2008 	ldr	r2, [fp, #-8]
    9314:	e3a03000 	mov	r3, #0	; 0x0
    9318:	e5823024 	str	r3, [r2, #36]
    931c:	e51b2008 	ldr	r2, [fp, #-8]
    9320:	e3a03000 	mov	r3, #0	; 0x0
    9324:	e5823028 	str	r3, [r2, #40]
    9328:	e51b2008 	ldr	r2, [fp, #-8]
    932c:	e3a03000 	mov	r3, #0	; 0x0
    9330:	e582302c 	str	r3, [r2, #44]
    9334:	e51b2008 	ldr	r2, [fp, #-8]
    9338:	e3a03000 	mov	r3, #0	; 0x0
    933c:	e5823030 	str	r3, [r2, #48]
    9340:	e3a00008 	mov	r0, #8	; 0x8
    9344:	ebfffe81 	bl	8d50 <kmalloc>
    9348:	e1a03000 	mov	r3, r0
    934c:	e50b300c 	str	r3, [fp, #-12]
    9350:	e51b200c 	ldr	r2, [fp, #-12]
    9354:	e51b3008 	ldr	r3, [fp, #-8]
    9358:	e5823000 	str	r3, [r2]
    935c:	e59f2044 	ldr	r2, [pc, #68]	; 93a8 <processes_init+0x150>
    9360:	e51b300c 	ldr	r3, [fp, #-12]
    9364:	e5823000 	str	r3, [r2]
    9368:	e59f2038 	ldr	r2, [pc, #56]	; 93a8 <processes_init+0x150>
    936c:	e51b300c 	ldr	r3, [fp, #-12]
    9370:	e5823004 	str	r3, [r2, #4]
    9374:	e51b200c 	ldr	r2, [fp, #-12]
    9378:	e3a03000 	mov	r3, #0	; 0x0
    937c:	e5823004 	str	r3, [r2, #4]
    9380:	e59f2024 	ldr	r2, [pc, #36]	; 93ac <processes_init+0x154>
    9384:	e3a03000 	mov	r3, #0	; 0x0
    9388:	e5823000 	str	r3, [r2]
    938c:	e59f2018 	ldr	r2, [pc, #24]	; 93ac <processes_init+0x154>
    9390:	e3a03000 	mov	r3, #0	; 0x0
    9394:	e5823004 	str	r3, [r2, #4]
    9398:	eb000027 	bl	943c <schedule>
    939c:	e24bd004 	sub	sp, fp, #4	; 0x4
    93a0:	e8bd4800 	pop	{fp, lr}
    93a4:	e12fff1e 	bx	lr
    93a8:	00015984 	.word	0x00015984
    93ac:	0001597c 	.word	0x0001597c

000093b0 <get_by_pid>:
    93b0:	e52db004 	push	{fp}		; (str fp, [sp, #-4]!)
    93b4:	e28db000 	add	fp, sp, #0	; 0x0
    93b8:	e24dd014 	sub	sp, sp, #20	; 0x14
    93bc:	e50b0010 	str	r0, [fp, #-16]
    93c0:	e59f3070 	ldr	r3, [pc, #112]	; 9438 <get_by_pid+0x88>
    93c4:	e5933000 	ldr	r3, [r3]
    93c8:	e50b3008 	str	r3, [fp, #-8]
    93cc:	ea000002 	b	93dc <get_by_pid+0x2c>
    93d0:	e51b3008 	ldr	r3, [fp, #-8]
    93d4:	e5933004 	ldr	r3, [r3, #4]
    93d8:	e50b3008 	str	r3, [fp, #-8]
    93dc:	e51b3008 	ldr	r3, [fp, #-8]
    93e0:	e3530000 	cmp	r3, #0	; 0x0
    93e4:	0a000005 	beq	9400 <get_by_pid+0x50>
    93e8:	e51b3008 	ldr	r3, [fp, #-8]
    93ec:	e5933000 	ldr	r3, [r3]
    93f0:	e5932000 	ldr	r2, [r3]
    93f4:	e51b3010 	ldr	r3, [fp, #-16]
    93f8:	e1520003 	cmp	r2, r3
    93fc:	1afffff3 	bne	93d0 <get_by_pid+0x20>
    9400:	e51b3008 	ldr	r3, [fp, #-8]
    9404:	e3530000 	cmp	r3, #0	; 0x0
    9408:	1a000002 	bne	9418 <get_by_pid+0x68>
    940c:	e3a03000 	mov	r3, #0	; 0x0
    9410:	e50b3014 	str	r3, [fp, #-20]
    9414:	ea000002 	b	9424 <get_by_pid+0x74>
    9418:	e51b3008 	ldr	r3, [fp, #-8]
    941c:	e5933000 	ldr	r3, [r3]
    9420:	e50b3014 	str	r3, [fp, #-20]
    9424:	e51b3014 	ldr	r3, [fp, #-20]
    9428:	e1a00003 	mov	r0, r3
    942c:	e28bd000 	add	sp, fp, #0	; 0x0
    9430:	e8bd0800 	pop	{fp}
    9434:	e12fff1e 	bx	lr
    9438:	00015984 	.word	0x00015984

0000943c <schedule>:
    943c:	e92d4810 	push	{r4, fp, lr}
    9440:	e28db008 	add	fp, sp, #8	; 0x8
    9444:	e24dd024 	sub	sp, sp, #36	; 0x24
    9448:	eb000142 	bl	9958 <disableTimer>
    944c:	ebfffb3c 	bl	8144 <GetTimeStamp>
    9450:	e1a03000 	mov	r3, r0
    9454:	e1a04001 	mov	r4, r1
    9458:	e50b3024 	str	r3, [fp, #-36]
    945c:	e50b4020 	str	r4, [fp, #-32]
    9460:	e3a03000 	mov	r3, #0	; 0x0
    9464:	e50b3018 	str	r3, [fp, #-24]
    9468:	e59f3260 	ldr	r3, [pc, #608]	; 96d0 <schedule+0x294>
    946c:	e5933000 	ldr	r3, [r3]
    9470:	e50b3014 	str	r3, [fp, #-20]
    9474:	ea000038 	b	955c <schedule+0x120>
    9478:	e51b3014 	ldr	r3, [fp, #-20]
    947c:	e5933000 	ldr	r3, [r3]
    9480:	e2832048 	add	r2, r3, #72	; 0x48
    9484:	e8920006 	ldm	r2, {r1, r2}
    9488:	e50b102c 	str	r1, [fp, #-44]
    948c:	e50b2028 	str	r2, [fp, #-40]
    9490:	e51b3020 	ldr	r3, [fp, #-32]
    9494:	e51b2028 	ldr	r2, [fp, #-40]
    9498:	e1530002 	cmp	r3, r2
    949c:	3a000029 	bcc	9548 <schedule+0x10c>
    94a0:	e51b3020 	ldr	r3, [fp, #-32]
    94a4:	e51b1028 	ldr	r1, [fp, #-40]
    94a8:	e1530001 	cmp	r3, r1
    94ac:	1a000006 	bne	94cc <schedule+0x90>
    94b0:	e51b3024 	ldr	r3, [fp, #-36]
    94b4:	e51b202c 	ldr	r2, [fp, #-44]
    94b8:	e1530002 	cmp	r3, r2
    94bc:	3a000021 	bcc	9548 <schedule+0x10c>
    94c0:	e51b3024 	ldr	r3, [fp, #-36]
    94c4:	e51b102c 	ldr	r1, [fp, #-44]
    94c8:	e1530001 	cmp	r3, r1
    94cc:	e51b3014 	ldr	r3, [fp, #-20]
    94d0:	e5932000 	ldr	r2, [r3]
    94d4:	e3a03000 	mov	r3, #0	; 0x0
    94d8:	e5c23020 	strb	r3, [r2, #32]
    94dc:	e51b3018 	ldr	r3, [fp, #-24]
    94e0:	e3530000 	cmp	r3, #0	; 0x0
    94e4:	1a000004 	bne	94fc <schedule+0xc0>
    94e8:	e51b3014 	ldr	r3, [fp, #-20]
    94ec:	e5932004 	ldr	r2, [r3, #4]
    94f0:	e59f31d8 	ldr	r3, [pc, #472]	; 96d0 <schedule+0x294>
    94f4:	e5832000 	str	r2, [r3]
    94f8:	ea000003 	b	950c <schedule+0xd0>
    94fc:	e51b3014 	ldr	r3, [fp, #-20]
    9500:	e5932004 	ldr	r2, [r3, #4]
    9504:	e51b3018 	ldr	r3, [fp, #-24]
    9508:	e5832004 	str	r2, [r3, #4]
    950c:	e51b3014 	ldr	r3, [fp, #-20]
    9510:	e5933004 	ldr	r3, [r3, #4]
    9514:	e3530000 	cmp	r3, #0	; 0x0
    9518:	1a000002 	bne	9528 <schedule+0xec>
    951c:	e59f21ac 	ldr	r2, [pc, #428]	; 96d0 <schedule+0x294>
    9520:	e51b3018 	ldr	r3, [fp, #-24]
    9524:	e5823004 	str	r3, [r2, #4]
    9528:	e51b3014 	ldr	r3, [fp, #-20]
    952c:	e50b3010 	str	r3, [fp, #-16]
    9530:	e51b3014 	ldr	r3, [fp, #-20]
    9534:	e5933004 	ldr	r3, [r3, #4]
    9538:	e50b3014 	str	r3, [fp, #-20]
    953c:	e51b0010 	ldr	r0, [fp, #-16]
    9540:	ebfffe7b 	bl	8f34 <kfree>
    9544:	ea000004 	b	955c <schedule+0x120>
    9548:	e51b3014 	ldr	r3, [fp, #-20]
    954c:	e50b3018 	str	r3, [fp, #-24]
    9550:	e51b3014 	ldr	r3, [fp, #-20]
    9554:	e5933004 	ldr	r3, [r3, #4]
    9558:	e50b3014 	str	r3, [fp, #-20]
    955c:	e51b3014 	ldr	r3, [fp, #-20]
    9560:	e3530000 	cmp	r3, #0	; 0x0
    9564:	1affffc3 	bne	9478 <schedule+0x3c>
    9568:	e59f3164 	ldr	r3, [pc, #356]	; 96d4 <schedule+0x298>
    956c:	e5933000 	ldr	r3, [r3]
    9570:	e50b3014 	str	r3, [fp, #-20]
    9574:	ea00001c 	b	95ec <schedule+0x1b0>
    9578:	e51b3014 	ldr	r3, [fp, #-20]
    957c:	e5933004 	ldr	r3, [r3, #4]
    9580:	e3530000 	cmp	r3, #0	; 0x0
    9584:	0a00000d 	beq	95c0 <schedule+0x184>
    9588:	e51b3014 	ldr	r3, [fp, #-20]
    958c:	e5932004 	ldr	r2, [r3, #4]
    9590:	e59f313c 	ldr	r3, [pc, #316]	; 96d4 <schedule+0x298>
    9594:	e5832000 	str	r2, [r3]
    9598:	e59f3134 	ldr	r3, [pc, #308]	; 96d4 <schedule+0x298>
    959c:	e5932004 	ldr	r2, [r3, #4]
    95a0:	e51b3014 	ldr	r3, [fp, #-20]
    95a4:	e5823004 	str	r3, [r2, #4]
    95a8:	e59f2124 	ldr	r2, [pc, #292]	; 96d4 <schedule+0x298>
    95ac:	e51b3014 	ldr	r3, [fp, #-20]
    95b0:	e5823004 	str	r3, [r2, #4]
    95b4:	e51b2014 	ldr	r2, [fp, #-20]
    95b8:	e3a03000 	mov	r3, #0	; 0x0
    95bc:	e5823004 	str	r3, [r2, #4]
    95c0:	e51b3014 	ldr	r3, [fp, #-20]
    95c4:	e5933000 	ldr	r3, [r3]
    95c8:	e5d33020 	ldrb	r3, [r3, #32]
    95cc:	e3530000 	cmp	r3, #0	; 0x0
    95d0:	1a000005 	bne	95ec <schedule+0x1b0>
    95d4:	e51b3014 	ldr	r3, [fp, #-20]
    95d8:	e5932000 	ldr	r2, [r3]
    95dc:	e59f30f4 	ldr	r3, [pc, #244]	; 96d8 <schedule+0x29c>
    95e0:	e5832000 	str	r2, [r3]
    95e4:	e3a03000 	mov	r3, #0	; 0x0
    95e8:	e50b3014 	str	r3, [fp, #-20]
    95ec:	e51b3014 	ldr	r3, [fp, #-20]
    95f0:	e3530000 	cmp	r3, #0	; 0x0
    95f4:	1affffdf 	bne	9578 <schedule+0x13c>
    95f8:	eb0000ca 	bl	9928 <ackTimerInterrupt>
    95fc:	e3e00000 	mvn	r0, #0	; 0x0
    9600:	eb00011e 	bl	9a80 <loadTimerValue>
    9604:	eb0000e3 	bl	9998 <enableTimer>
    9608:	e59f30c8 	ldr	r3, [pc, #200]	; 96d8 <schedule+0x29c>
    960c:	e5933000 	ldr	r3, [r3]
    9610:	e593200c 	ldr	r2, [r3, #12]
    9614:	e59f30bc 	ldr	r3, [pc, #188]	; 96d8 <schedule+0x29c>
    9618:	e5933000 	ldr	r3, [r3]
    961c:	e5933008 	ldr	r3, [r3, #8]
    9620:	e1a0e002 	mov	lr, r2
    9624:	e1a0000d 	mov	r0, sp
    9628:	e3a0a01f 	mov	sl, #31	; 0x1f
    962c:	e10fb000 	mrs	fp, CPSR
    9630:	e1a0c00b 	mov	ip, fp
    9634:	e18bb00a 	orr	fp, fp, sl
    9638:	e129f00b 	msr	CPSR_fc, fp
    963c:	e1a0d003 	mov	sp, r3
    9640:	e8bd0020 	pop	{r5}
    9644:	e8bd0040 	pop	{r6}
    9648:	e8bd0080 	pop	{r7}
    964c:	e8bd0100 	pop	{r8}
    9650:	e8bd0200 	pop	{r9}
    9654:	e1a0100d 	mov	r1, sp
    9658:	e1a0d000 	mov	sp, r0
    965c:	e92d0200 	push	{r9}
    9660:	e92d0100 	push	{r8}
    9664:	e92d0080 	push	{r7}
    9668:	e92d0040 	push	{r6}
    966c:	e92d0020 	push	{r5}
    9670:	e1a0900d 	mov	r9, sp
    9674:	e1a0d001 	mov	sp, r1
    9678:	e8bd0100 	pop	{r8}
    967c:	e8bd0080 	pop	{r7}
    9680:	e8bd0040 	pop	{r6}
    9684:	e8bd0020 	pop	{r5}
    9688:	e8bd0010 	pop	{r4}
    968c:	e8bd0008 	pop	{r3}
    9690:	e8bd0004 	pop	{r2}
    9694:	e8bd0002 	pop	{r1}
    9698:	e8bd0001 	pop	{r0}
    969c:	e8bd4000 	pop	{lr}
    96a0:	e129f00c 	msr	CPSR_fc, ip
    96a4:	e1a0d009 	mov	sp, r9
    96a8:	e8bd0200 	pop	{r9}
    96ac:	e169f009 	msr	SPSR_fc, r9
    96b0:	e8bd1000 	pop	{ip}
    96b4:	e8bd0800 	pop	{fp}
    96b8:	e8bd0400 	pop	{sl}
    96bc:	e8bd0200 	pop	{r9}
    96c0:	e1b0f00e 	movs	pc, lr
    96c4:	e24bd008 	sub	sp, fp, #8	; 0x8
    96c8:	e8bd4810 	pop	{r4, fp, lr}
    96cc:	e12fff1e 	bx	lr
    96d0:	0001597c 	.word	0x0001597c
    96d4:	00015984 	.word	0x00015984
    96d8:	0001598c 	.word	0x0001598c

000096dc <master_process>:
    96dc:	e92d4810 	push	{r4, fp, lr}
    96e0:	e28db008 	add	fp, sp, #8	; 0x8
    96e4:	e24dd0b4 	sub	sp, sp, #180	; 0xb4
    96e8:	e59f31c4 	ldr	r3, [pc, #452]	; 98b4 <master_process+0x1d8>
    96ec:	e24b205b 	sub	r2, fp, #91	; 0x5b
    96f0:	e3a0c031 	mov	ip, #49	; 0x31
    96f4:	e1a00002 	mov	r0, r2
    96f8:	e1a01003 	mov	r1, r3
    96fc:	e1a0200c 	mov	r2, ip
    9700:	ebfffca2 	bl	8990 <memcpy>
    9704:	e59f31ac 	ldr	r3, [pc, #428]	; 98b8 <master_process+0x1dc>
    9708:	e24b206b 	sub	r2, fp, #107	; 0x6b
    970c:	e3a0c010 	mov	ip, #16	; 0x10
    9710:	e1a00002 	mov	r0, r2
    9714:	e1a01003 	mov	r1, r3
    9718:	e1a0200c 	mov	r2, ip
    971c:	ebfffc9b 	bl	8990 <memcpy>
    9720:	e59f3194 	ldr	r3, [pc, #404]	; 98bc <master_process+0x1e0>
    9724:	e24b2077 	sub	r2, fp, #119	; 0x77
    9728:	e3a0c00c 	mov	ip, #12	; 0xc
    972c:	e1a00002 	mov	r0, r2
    9730:	e1a01003 	mov	r1, r3
    9734:	e1a0200c 	mov	r2, ip
    9738:	ebfffc94 	bl	8990 <memcpy>
    973c:	e59f317c 	ldr	r3, [pc, #380]	; 98c0 <master_process+0x1e4>
    9740:	e24b2087 	sub	r2, fp, #135	; 0x87
    9744:	e3a0c010 	mov	ip, #16	; 0x10
    9748:	e1a00002 	mov	r0, r2
    974c:	e1a01003 	mov	r1, r3
    9750:	e1a0200c 	mov	r2, ip
    9754:	ebfffc8d 	bl	8990 <memcpy>
    9758:	e59f3164 	ldr	r3, [pc, #356]	; 98c4 <master_process+0x1e8>
    975c:	e24b40a0 	sub	r4, fp, #160	; 0xa0
    9760:	e1a0c003 	mov	ip, r3
    9764:	e8bc000f 	ldm	ip!, {r0, r1, r2, r3}
    9768:	e8a4000f 	stmia	r4!, {r0, r1, r2, r3}
    976c:	e89c0007 	ldm	ip, {r0, r1, r2}
    9770:	e8a40003 	stmia	r4!, {r0, r1}
    9774:	e5c42000 	strb	r2, [r4]
    9778:	e59f3148 	ldr	r3, [pc, #328]	; 98c8 <master_process+0x1ec>
    977c:	e24b20ba 	sub	r2, fp, #186	; 0xba
    9780:	e3a0c01a 	mov	ip, #26	; 0x1a
    9784:	e1a00002 	mov	r0, r2
    9788:	e1a01003 	mov	r1, r3
    978c:	e1a0200c 	mov	r2, ip
    9790:	ebfffc7e 	bl	8990 <memcpy>
    9794:	e24b305b 	sub	r3, fp, #91	; 0x5b
    9798:	e1a00003 	mov	r0, r3
    979c:	e3a01030 	mov	r1, #48	; 0x30
    97a0:	eb00077d 	bl	b59c <osc_drawstringln>
    97a4:	e24b306b 	sub	r3, fp, #107	; 0x6b
    97a8:	e1a00003 	mov	r0, r3
    97ac:	e3a0100f 	mov	r1, #15	; 0xf
    97b0:	eb000779 	bl	b59c <osc_drawstringln>
    97b4:	e24b3077 	sub	r3, fp, #119	; 0x77
    97b8:	e1a00003 	mov	r0, r3
    97bc:	e3a0100b 	mov	r1, #11	; 0xb
    97c0:	eb000775 	bl	b59c <osc_drawstringln>
    97c4:	e24b3087 	sub	r3, fp, #135	; 0x87
    97c8:	e1a00003 	mov	r0, r3
    97cc:	e3a0100f 	mov	r1, #15	; 0xf
    97d0:	eb000771 	bl	b59c <osc_drawstringln>
    97d4:	e24b30a0 	sub	r3, fp, #160	; 0xa0
    97d8:	e1a00003 	mov	r0, r3
    97dc:	e3a01018 	mov	r1, #24	; 0x18
    97e0:	eb00076d 	bl	b59c <osc_drawstringln>
    97e4:	e24b302a 	sub	r3, fp, #42	; 0x2a
    97e8:	e1a00003 	mov	r0, r3
    97ec:	e3a01019 	mov	r1, #25	; 0x19
    97f0:	e51b2010 	ldr	r2, [fp, #-16]
    97f4:	eb000776 	bl	b5d4 <osc_getstring>
    97f8:	e59f00cc 	ldr	r0, [pc, #204]	; 98cc <master_process+0x1f0>
    97fc:	e3a01001 	mov	r1, #1	; 0x1
    9800:	eb000765 	bl	b59c <osc_drawstringln>
    9804:	e24b302a 	sub	r3, fp, #42	; 0x2a
    9808:	e1a00003 	mov	r0, r3
    980c:	e59f10bc 	ldr	r1, [pc, #188]	; 98d0 <master_process+0x1f4>
    9810:	eb000815 	bl	b86c <strcmp>
    9814:	e1a03000 	mov	r3, r0
    9818:	e3530000 	cmp	r3, #0	; 0x0
    981c:	1a000009 	bne	9848 <master_process+0x16c>
    9820:	e59f30ac 	ldr	r3, [pc, #172]	; 98d4 <master_process+0x1f8>
    9824:	e1a00003 	mov	r0, r3
    9828:	eb0006bd 	bl	b324 <osc_create_process>
    982c:	e59f30a4 	ldr	r3, [pc, #164]	; 98d8 <master_process+0x1fc>
    9830:	e1a00003 	mov	r0, r3
    9834:	eb0006ba 	bl	b324 <osc_create_process>
    9838:	e59f309c 	ldr	r3, [pc, #156]	; 98dc <master_process+0x200>
    983c:	e1a00003 	mov	r0, r3
    9840:	eb0006b7 	bl	b324 <osc_create_process>
    9844:	ea000019 	b	98b0 <master_process+0x1d4>
    9848:	e24b302a 	sub	r3, fp, #42	; 0x2a
    984c:	e1a00003 	mov	r0, r3
    9850:	e59f1088 	ldr	r1, [pc, #136]	; 98e0 <master_process+0x204>
    9854:	eb000804 	bl	b86c <strcmp>
    9858:	e1a03000 	mov	r3, r0
    985c:	e3530000 	cmp	r3, #0	; 0x0
    9860:	1a000003 	bne	9874 <master_process+0x198>
    9864:	e59f3078 	ldr	r3, [pc, #120]	; 98e4 <master_process+0x208>
    9868:	e1a00003 	mov	r0, r3
    986c:	eb0006ac 	bl	b324 <osc_create_process>
    9870:	ea00000e 	b	98b0 <master_process+0x1d4>
    9874:	e24b302a 	sub	r3, fp, #42	; 0x2a
    9878:	e1a00003 	mov	r0, r3
    987c:	e59f1064 	ldr	r1, [pc, #100]	; 98e8 <master_process+0x20c>
    9880:	eb0007f9 	bl	b86c <strcmp>
    9884:	e1a03000 	mov	r3, r0
    9888:	e3530000 	cmp	r3, #0	; 0x0
    988c:	1a000003 	bne	98a0 <master_process+0x1c4>
    9890:	e59f3054 	ldr	r3, [pc, #84]	; 98ec <master_process+0x210>
    9894:	e1a00003 	mov	r0, r3
    9898:	eb0006a1 	bl	b324 <osc_create_process>
    989c:	ea000003 	b	98b0 <master_process+0x1d4>
    98a0:	e24b30ba 	sub	r3, fp, #186	; 0xba
    98a4:	e1a00003 	mov	r0, r3
    98a8:	e3a01019 	mov	r1, #25	; 0x19
    98ac:	eb00073a 	bl	b59c <osc_drawstringln>
    98b0:	eafffffe 	b	98b0 <master_process+0x1d4>
    98b4:	00012ce8 	.word	0x00012ce8
    98b8:	00012d1c 	.word	0x00012d1c
    98bc:	00012d2c 	.word	0x00012d2c
    98c0:	00012d38 	.word	0x00012d38
    98c4:	00012d48 	.word	0x00012d48
    98c8:	00012d64 	.word	0x00012d64
    98cc:	00012cd8 	.word	0x00012cd8
    98d0:	00012cdc 	.word	0x00012cdc
    98d4:	0000b8ec 	.word	0x0000b8ec
    98d8:	0000b91c 	.word	0x0000b91c
    98dc:	0000b94c 	.word	0x0000b94c
    98e0:	00012ce0 	.word	0x00012ce0
    98e4:	0000b97c 	.word	0x0000b97c
    98e8:	00012ce4 	.word	0x00012ce4
    98ec:	0000bbb0 	.word	0x0000bbb0

000098f0 <loadPreDivValue>:
    98f0:	e52db004 	push	{fp}		; (str fp, [sp, #-4]!)
    98f4:	e28db000 	add	fp, sp, #0	; 0x0
    98f8:	e24dd014 	sub	sp, sp, #20	; 0x14
    98fc:	e50b0010 	str	r0, [fp, #-16]
    9900:	e3a03202 	mov	r3, #536870912	; 0x20000000
    9904:	e2833b2d 	add	r3, r3, #46080	; 0xb400
    9908:	e283301c 	add	r3, r3, #28	; 0x1c
    990c:	e50b3008 	str	r3, [fp, #-8]
    9910:	e51b2008 	ldr	r2, [fp, #-8]
    9914:	e51b3010 	ldr	r3, [fp, #-16]
    9918:	e5823000 	str	r3, [r2]
    991c:	e28bd000 	add	sp, fp, #0	; 0x0
    9920:	e8bd0800 	pop	{fp}
    9924:	e12fff1e 	bx	lr

00009928 <ackTimerInterrupt>:
    9928:	e52db004 	push	{fp}		; (str fp, [sp, #-4]!)
    992c:	e28db000 	add	fp, sp, #0	; 0x0
    9930:	e24dd00c 	sub	sp, sp, #12	; 0xc
    9934:	e3a03b2d 	mov	r3, #46080	; 0xb400
    9938:	e28332c2 	add	r3, r3, #536870924	; 0x2000000c
    993c:	e50b3008 	str	r3, [fp, #-8]
    9940:	e51b2008 	ldr	r2, [fp, #-8]
    9944:	e3a03000 	mov	r3, #0	; 0x0
    9948:	e5823000 	str	r3, [r2]
    994c:	e28bd000 	add	sp, fp, #0	; 0x0
    9950:	e8bd0800 	pop	{fp}
    9954:	e12fff1e 	bx	lr

00009958 <disableTimer>:
    9958:	e52db004 	push	{fp}		; (str fp, [sp, #-4]!)
    995c:	e28db000 	add	fp, sp, #0	; 0x0
    9960:	e24dd00c 	sub	sp, sp, #12	; 0xc
    9964:	e3a03b2d 	mov	r3, #46080	; 0xb400
    9968:	e2833282 	add	r3, r3, #536870920	; 0x20000008
    996c:	e50b300c 	str	r3, [fp, #-12]
    9970:	e51b300c 	ldr	r3, [fp, #-12]
    9974:	e5933000 	ldr	r3, [r3]
    9978:	e50b3008 	str	r3, [fp, #-8]
    997c:	e51b3008 	ldr	r3, [fp, #-8]
    9980:	e3c32080 	bic	r2, r3, #128	; 0x80
    9984:	e51b300c 	ldr	r3, [fp, #-12]
    9988:	e5832000 	str	r2, [r3]
    998c:	e28bd000 	add	sp, fp, #0	; 0x0
    9990:	e8bd0800 	pop	{fp}
    9994:	e12fff1e 	bx	lr

00009998 <enableTimer>:
    9998:	e52db004 	push	{fp}		; (str fp, [sp, #-4]!)
    999c:	e28db000 	add	fp, sp, #0	; 0x0
    99a0:	e24dd00c 	sub	sp, sp, #12	; 0xc
    99a4:	e3a03b2d 	mov	r3, #46080	; 0xb400
    99a8:	e2833282 	add	r3, r3, #536870920	; 0x20000008
    99ac:	e50b300c 	str	r3, [fp, #-12]
    99b0:	e51b300c 	ldr	r3, [fp, #-12]
    99b4:	e5933000 	ldr	r3, [r3]
    99b8:	e50b3008 	str	r3, [fp, #-8]
    99bc:	e51b3008 	ldr	r3, [fp, #-8]
    99c0:	e3832080 	orr	r2, r3, #128	; 0x80
    99c4:	e51b300c 	ldr	r3, [fp, #-12]
    99c8:	e5832000 	str	r2, [r3]
    99cc:	e28bd000 	add	sp, fp, #0	; 0x0
    99d0:	e8bd0800 	pop	{fp}
    99d4:	e12fff1e 	bx	lr

000099d8 <enableTimerInterrupts>:
    99d8:	e92d4800 	push	{fp, lr}
    99dc:	e28db004 	add	fp, sp, #4	; 0x4
    99e0:	e24dd010 	sub	sp, sp, #16	; 0x10
    99e4:	e3a03202 	mov	r3, #536870912	; 0x20000000
    99e8:	e2833cb2 	add	r3, r3, #45568	; 0xb200
    99ec:	e2833018 	add	r3, r3, #24	; 0x18
    99f0:	e50b3014 	str	r3, [fp, #-20]
    99f4:	e51b3014 	ldr	r3, [fp, #-20]
    99f8:	e5933000 	ldr	r3, [r3]
    99fc:	e50b3010 	str	r3, [fp, #-16]
    9a00:	e3a03b2d 	mov	r3, #46080	; 0xb400
    9a04:	e2833282 	add	r3, r3, #536870920	; 0x20000008
    9a08:	e50b300c 	str	r3, [fp, #-12]
    9a0c:	e51b300c 	ldr	r3, [fp, #-12]
    9a10:	e5933000 	ldr	r3, [r3]
    9a14:	e50b3008 	str	r3, [fp, #-8]
    9a18:	ebffffc2 	bl	9928 <ackTimerInterrupt>
    9a1c:	e51b3010 	ldr	r3, [fp, #-16]
    9a20:	e3832001 	orr	r2, r3, #1	; 0x1
    9a24:	e51b3014 	ldr	r3, [fp, #-20]
    9a28:	e5832000 	str	r2, [r3]
    9a2c:	e51b3008 	ldr	r3, [fp, #-8]
    9a30:	e3832020 	orr	r2, r3, #32	; 0x20
    9a34:	e51b300c 	ldr	r3, [fp, #-12]
    9a38:	e5832000 	str	r2, [r3]
    9a3c:	e24bd004 	sub	sp, fp, #4	; 0x4
    9a40:	e8bd4800 	pop	{fp, lr}
    9a44:	e12fff1e 	bx	lr

00009a48 <getTimerValue>:
    9a48:	e52db004 	push	{fp}		; (str fp, [sp, #-4]!)
    9a4c:	e28db000 	add	fp, sp, #0	; 0x0
    9a50:	e24dd00c 	sub	sp, sp, #12	; 0xc
    9a54:	e3a03b2d 	mov	r3, #46080	; 0xb400
    9a58:	e2833242 	add	r3, r3, #536870916	; 0x20000004
    9a5c:	e50b300c 	str	r3, [fp, #-12]
    9a60:	e51b300c 	ldr	r3, [fp, #-12]
    9a64:	e5933000 	ldr	r3, [r3]
    9a68:	e50b3008 	str	r3, [fp, #-8]
    9a6c:	e51b3008 	ldr	r3, [fp, #-8]
    9a70:	e1a00003 	mov	r0, r3
    9a74:	e28bd000 	add	sp, fp, #0	; 0x0
    9a78:	e8bd0800 	pop	{fp}
    9a7c:	e12fff1e 	bx	lr

00009a80 <loadTimerValue>:
    9a80:	e52db004 	push	{fp}		; (str fp, [sp, #-4]!)
    9a84:	e28db000 	add	fp, sp, #0	; 0x0
    9a88:	e24dd014 	sub	sp, sp, #20	; 0x14
    9a8c:	e50b0010 	str	r0, [fp, #-16]
    9a90:	e3a03202 	mov	r3, #536870912	; 0x20000000
    9a94:	e2833b2d 	add	r3, r3, #46080	; 0xb400
    9a98:	e50b3008 	str	r3, [fp, #-8]
    9a9c:	e51b2008 	ldr	r2, [fp, #-8]
    9aa0:	e51b3010 	ldr	r3, [fp, #-16]
    9aa4:	e5823000 	str	r3, [r2]
    9aa8:	e28bd000 	add	sp, fp, #0	; 0x0
    9aac:	e8bd0800 	pop	{fp}
    9ab0:	e12fff1e 	bx	lr

00009ab4 <timer_interrupt_init>:
    9ab4:	e92d4800 	push	{fp, lr}
    9ab8:	e28db004 	add	fp, sp, #4	; 0x4
    9abc:	e3a00064 	mov	r0, #100	; 0x64
    9ac0:	ebffff8a 	bl	98f0 <loadPreDivValue>
    9ac4:	ebffffc3 	bl	99d8 <enableTimerInterrupts>
    9ac8:	e3e00000 	mvn	r0, #0	; 0x0
    9acc:	ebffffeb 	bl	9a80 <loadTimerValue>
    9ad0:	ebffffb0 	bl	9998 <enableTimer>
    9ad4:	e24bd004 	sub	sp, fp, #4	; 0x4
    9ad8:	e8bd4800 	pop	{fp, lr}
    9adc:	e12fff1e 	bx	lr

00009ae0 <move_screen_up>:
    9ae0:	e92d4800 	push	{fp, lr}
    9ae4:	e28db004 	add	fp, sp, #4	; 0x4
    9ae8:	e24dd008 	sub	sp, sp, #8	; 0x8
    9aec:	e59f307c 	ldr	r3, [pc, #124]	; 9b70 <move_screen_up+0x90>
    9af0:	e5933000 	ldr	r3, [r3]
    9af4:	e2833805 	add	r3, r3, #327680	; 0x50000
    9af8:	e50b300c 	str	r3, [fp, #-12]
    9afc:	e59f306c 	ldr	r3, [pc, #108]	; 9b70 <move_screen_up+0x90>
    9b00:	e5932000 	ldr	r2, [r3]
    9b04:	e59f3064 	ldr	r3, [pc, #100]	; 9b70 <move_screen_up+0x90>
    9b08:	e5933000 	ldr	r3, [r3]
    9b0c:	e2833813 	add	r3, r3, #1245184	; 0x130000
    9b10:	e1a00002 	mov	r0, r2
    9b14:	e1a01003 	mov	r1, r3
    9b18:	e3a02805 	mov	r2, #327680	; 0x50000
    9b1c:	ebfffb9b 	bl	8990 <memcpy>
    9b20:	e3a03000 	mov	r3, #0	; 0x0
    9b24:	e50b3008 	str	r3, [fp, #-8]
    9b28:	ea000008 	b	9b50 <move_screen_up+0x70>
    9b2c:	e51b3008 	ldr	r3, [fp, #-8]
    9b30:	e1a02103 	lsl	r2, r3, #2
    9b34:	e51b300c 	ldr	r3, [fp, #-12]
    9b38:	e0832002 	add	r2, r3, r2
    9b3c:	e3a03000 	mov	r3, #0	; 0x0
    9b40:	e5823000 	str	r3, [r2]
    9b44:	e51b3008 	ldr	r3, [fp, #-8]
    9b48:	e2833001 	add	r3, r3, #1	; 0x1
    9b4c:	e50b3008 	str	r3, [fp, #-8]
    9b50:	e51b2008 	ldr	r2, [fp, #-8]
    9b54:	e3a03913 	mov	r3, #311296	; 0x4c000
    9b58:	e2433001 	sub	r3, r3, #1	; 0x1
    9b5c:	e1520003 	cmp	r2, r3
    9b60:	9afffff1 	bls	9b2c <move_screen_up+0x4c>
    9b64:	e24bd004 	sub	sp, fp, #4	; 0x4
    9b68:	e8bd4800 	pop	{fp, lr}
    9b6c:	e12fff1e 	bx	lr
    9b70:	000159e8 	.word	0x000159e8

00009b74 <console_proc>:
    9b74:	e92d4800 	push	{fp, lr}
    9b78:	e28db004 	add	fp, sp, #4	; 0x4
    9b7c:	e24ddd05 	sub	sp, sp, #320	; 0x140
    9b80:	e3a03000 	mov	r3, #0	; 0x0
    9b84:	e50b3028 	str	r3, [fp, #-40]
    9b88:	e3a03000 	mov	r3, #0	; 0x0
    9b8c:	e50b3024 	str	r3, [fp, #-36]
    9b90:	e3a03000 	mov	r3, #0	; 0x0
    9b94:	e50b300c 	str	r3, [fp, #-12]
    9b98:	e3a03000 	mov	r3, #0	; 0x0
    9b9c:	e50b3008 	str	r3, [fp, #-8]
    9ba0:	e3a03f42 	mov	r3, #264	; 0x108
    9ba4:	e50b302c 	str	r3, [fp, #-44]
    9ba8:	e24b3030 	sub	r3, fp, #48	; 0x30
    9bac:	e24b2f4e 	sub	r2, fp, #312	; 0x138
    9bb0:	e24bc02c 	sub	ip, fp, #44	; 0x2c
    9bb4:	e1a00003 	mov	r0, r3
    9bb8:	e1a01002 	mov	r1, r2
    9bbc:	e1a0200c 	mov	r2, ip
    9bc0:	eb000595 	bl	b21c <osc_receive>
    9bc4:	e1a03000 	mov	r3, r0
    9bc8:	e50b3018 	str	r3, [fp, #-24]
    9bcc:	e51b3018 	ldr	r3, [fp, #-24]
    9bd0:	e3530000 	cmp	r3, #0	; 0x0
    9bd4:	1afffff1 	bne	9ba0 <console_proc+0x2c>
    9bd8:	e55b3138 	ldrb	r3, [fp, #-312]
    9bdc:	e50b3140 	str	r3, [fp, #-320]
    9be0:	e51b3140 	ldr	r3, [fp, #-320]
    9be4:	e3530000 	cmp	r3, #0	; 0x0
    9be8:	0a000006 	beq	9c08 <console_proc+0x94>
    9bec:	e51b3140 	ldr	r3, [fp, #-320]
    9bf0:	e3530000 	cmp	r3, #0	; 0x0
    9bf4:	baffffe9 	blt	9ba0 <console_proc+0x2c>
    9bf8:	e51b3140 	ldr	r3, [fp, #-320]
    9bfc:	e3530002 	cmp	r3, #2	; 0x2
    9c00:	caffffe6 	bgt	9ba0 <console_proc+0x2c>
    9c04:	ea000030 	b	9ccc <console_proc+0x158>
    9c08:	ebfff9f6 	bl	83e8 <KeyboardUpdate>
    9c0c:	ebfffa22 	bl	849c <KeyboardGetChar>
    9c10:	e1a03000 	mov	r3, r0
    9c14:	e54b300d 	strb	r3, [fp, #-13]
    9c18:	ea000026 	b	9cb8 <console_proc+0x144>
    9c1c:	ebfff9f1 	bl	83e8 <KeyboardUpdate>
    9c20:	ebfffa1d 	bl	849c <KeyboardGetChar>
    9c24:	e1a03000 	mov	r3, r0
    9c28:	e54b300d 	strb	r3, [fp, #-13]
    9c2c:	ebfffb36 	bl	890c <ledon>
    9c30:	e51b300c 	ldr	r3, [fp, #-12]
    9c34:	e51b2008 	ldr	r2, [fp, #-8]
    9c38:	e3a00058 	mov	r0, #88	; 0x58
    9c3c:	e1a01003 	mov	r1, r3
    9c40:	ebfff987 	bl	8264 <DrawCharacter>
    9c44:	e51b300c 	ldr	r3, [fp, #-12]
    9c48:	e2833010 	add	r3, r3, #16	; 0x10
    9c4c:	e1a02003 	mov	r2, r3
    9c50:	e51bc008 	ldr	ip, [fp, #-8]
    9c54:	e55b300d 	ldrb	r3, [fp, #-13]
    9c58:	e1a00003 	mov	r0, r3
    9c5c:	e1a01002 	mov	r1, r2
    9c60:	e1a0200c 	mov	r2, ip
    9c64:	ebfff97e 	bl	8264 <DrawCharacter>
    9c68:	e51b300c 	ldr	r3, [fp, #-12]
    9c6c:	e2833001 	add	r3, r3, #1	; 0x1
    9c70:	e50b300c 	str	r3, [fp, #-12]
    9c74:	e51b3008 	ldr	r3, [fp, #-8]
    9c78:	e2833001 	add	r3, r3, #1	; 0x1
    9c7c:	e50b3008 	str	r3, [fp, #-8]
    9c80:	e55b300d 	ldrb	r3, [fp, #-13]
    9c84:	e3530000 	cmp	r3, #0	; 0x0
    9c88:	0a00000a 	beq	9cb8 <console_proc+0x144>
    9c8c:	e55b300d 	ldrb	r3, [fp, #-13]
    9c90:	e353000a 	cmp	r3, #10	; 0xa
    9c94:	0a000007 	beq	9cb8 <console_proc+0x144>
    9c98:	e55b300d 	ldrb	r3, [fp, #-13]
    9c9c:	e1a00003 	mov	r0, r3
    9ca0:	e51b1028 	ldr	r1, [fp, #-40]
    9ca4:	e51b2024 	ldr	r2, [fp, #-36]
    9ca8:	ebfff96d 	bl	8264 <DrawCharacter>
    9cac:	e51b3028 	ldr	r3, [fp, #-40]
    9cb0:	e2833001 	add	r3, r3, #1	; 0x1
    9cb4:	e50b3028 	str	r3, [fp, #-40]
    9cb8:	e55b300d 	ldrb	r3, [fp, #-13]
    9cbc:	e353000a 	cmp	r3, #10	; 0xa
    9cc0:	1affffd5 	bne	9c1c <console_proc+0xa8>
    9cc4:	ebfffb1b 	bl	8938 <ledoff>
    9cc8:	eaffffb4 	b	9ba0 <console_proc+0x2c>
    9ccc:	e24b3f4e 	sub	r3, fp, #312	; 0x138
    9cd0:	e2833001 	add	r3, r3, #1	; 0x1
    9cd4:	e50b3014 	str	r3, [fp, #-20]
    9cd8:	e3a03000 	mov	r3, #0	; 0x0
    9cdc:	e50b301c 	str	r3, [fp, #-28]
    9ce0:	ea00002c 	b	9d98 <console_proc+0x224>
    9ce4:	e51b3028 	ldr	r3, [fp, #-40]
    9ce8:	e2633080 	rsb	r3, r3, #128	; 0x80
    9cec:	e50b3020 	str	r3, [fp, #-32]
    9cf0:	e51b2034 	ldr	r2, [fp, #-52]
    9cf4:	e51b3020 	ldr	r3, [fp, #-32]
    9cf8:	e1520003 	cmp	r2, r3
    9cfc:	2a000002 	bcs	9d0c <console_proc+0x198>
    9d00:	e51b3034 	ldr	r3, [fp, #-52]
    9d04:	e50b301c 	str	r3, [fp, #-28]
    9d08:	ea000001 	b	9d14 <console_proc+0x1a0>
    9d0c:	e51b3020 	ldr	r3, [fp, #-32]
    9d10:	e50b301c 	str	r3, [fp, #-28]
    9d14:	e51b3028 	ldr	r3, [fp, #-40]
    9d18:	e1a02183 	lsl	r2, r3, #3
    9d1c:	e51b3024 	ldr	r3, [fp, #-36]
    9d20:	e1a03203 	lsl	r3, r3, #4
    9d24:	e51b0014 	ldr	r0, [fp, #-20]
    9d28:	e51b101c 	ldr	r1, [fp, #-28]
    9d2c:	ebfff967 	bl	82d0 <DrawString>
    9d30:	e51b2028 	ldr	r2, [fp, #-40]
    9d34:	e51b301c 	ldr	r3, [fp, #-28]
    9d38:	e0823003 	add	r3, r2, r3
    9d3c:	e50b3028 	str	r3, [fp, #-40]
    9d40:	e51b3028 	ldr	r3, [fp, #-40]
    9d44:	e3530080 	cmp	r3, #128	; 0x80
    9d48:	1a00000a 	bne	9d78 <console_proc+0x204>
    9d4c:	e3a03000 	mov	r3, #0	; 0x0
    9d50:	e50b3028 	str	r3, [fp, #-40]
    9d54:	e51b3024 	ldr	r3, [fp, #-36]
    9d58:	e2833001 	add	r3, r3, #1	; 0x1
    9d5c:	e50b3024 	str	r3, [fp, #-36]
    9d60:	e51b3024 	ldr	r3, [fp, #-36]
    9d64:	e3530030 	cmp	r3, #48	; 0x30
    9d68:	1a000002 	bne	9d78 <console_proc+0x204>
    9d6c:	ebffff5b 	bl	9ae0 <move_screen_up>
    9d70:	e3a0300a 	mov	r3, #10	; 0xa
    9d74:	e50b3024 	str	r3, [fp, #-36]
    9d78:	e51b2034 	ldr	r2, [fp, #-52]
    9d7c:	e51b301c 	ldr	r3, [fp, #-28]
    9d80:	e0633002 	rsb	r3, r3, r2
    9d84:	e50b3034 	str	r3, [fp, #-52]
    9d88:	e51b2014 	ldr	r2, [fp, #-20]
    9d8c:	e51b301c 	ldr	r3, [fp, #-28]
    9d90:	e0823003 	add	r3, r2, r3
    9d94:	e50b3014 	str	r3, [fp, #-20]
    9d98:	e51b3034 	ldr	r3, [fp, #-52]
    9d9c:	e3530000 	cmp	r3, #0	; 0x0
    9da0:	1affffcf 	bne	9ce4 <console_proc+0x170>
    9da4:	e55b3138 	ldrb	r3, [fp, #-312]
    9da8:	e3530002 	cmp	r3, #2	; 0x2
    9dac:	1affff7b 	bne	9ba0 <console_proc+0x2c>
    9db0:	e3a03000 	mov	r3, #0	; 0x0
    9db4:	e50b3028 	str	r3, [fp, #-40]
    9db8:	e51b3024 	ldr	r3, [fp, #-36]
    9dbc:	e2833001 	add	r3, r3, #1	; 0x1
    9dc0:	e50b3024 	str	r3, [fp, #-36]
    9dc4:	e51b3024 	ldr	r3, [fp, #-36]
    9dc8:	e3530030 	cmp	r3, #48	; 0x30
    9dcc:	1affff73 	bne	9ba0 <console_proc+0x2c>
    9dd0:	ebffff42 	bl	9ae0 <move_screen_up>
    9dd4:	e3a0300a 	mov	r3, #10	; 0xa
    9dd8:	e50b3024 	str	r3, [fp, #-36]
    9ddc:	eaffff6f 	b	9ba0 <console_proc+0x2c>

00009de0 <input_init>:
    9de0:	e92d4800 	push	{fp, lr}
    9de4:	e28db004 	add	fp, sp, #4	; 0x4
    9de8:	eb0011a5 	bl	e484 <UsbInitialise>
    9dec:	e1a03000 	mov	r3, r0
    9df0:	e3530000 	cmp	r3, #0	; 0x0
    9df4:	1afffffb 	bne	9de8 <input_init+0x8>
    9df8:	eb0011b8 	bl	e4e0 <UsbCheckForChange>
    9dfc:	e24bd004 	sub	sp, fp, #4	; 0x4
    9e00:	e8bd4800 	pop	{fp, lr}
    9e04:	e12fff1e 	bx	lr

00009e08 <output_init>:
    9e08:	e92d4800 	push	{fp, lr}
    9e0c:	e28db004 	add	fp, sp, #4	; 0x4
    9e10:	e24dd008 	sub	sp, sp, #8	; 0x8
    9e14:	e3a00b01 	mov	r0, #1024	; 0x400
    9e18:	e3a01c03 	mov	r1, #768	; 0x300
    9e1c:	e3a02010 	mov	r2, #16	; 0x10
    9e20:	ebfff8ad 	bl	80dc <InitialiseFrameBuffer>
    9e24:	e1a03000 	mov	r3, r0
    9e28:	e50b3008 	str	r3, [fp, #-8]
    9e2c:	e59f2018 	ldr	r2, [pc, #24]	; 9e4c <output_init+0x44>
    9e30:	e51b3008 	ldr	r3, [fp, #-8]
    9e34:	e5823000 	str	r3, [r2]
    9e38:	e51b0008 	ldr	r0, [fp, #-8]
    9e3c:	ebfff8d4 	bl	8194 <SetGraphicsAddress>
    9e40:	e24bd004 	sub	sp, fp, #4	; 0x4
    9e44:	e8bd4800 	pop	{fp, lr}
    9e48:	e12fff1e 	bx	lr
    9e4c:	000159e8 	.word	0x000159e8

00009e50 <internal_send>:
    9e50:	e92d4810 	push	{r4, fp, lr}
    9e54:	e28db008 	add	fp, sp, #8	; 0x8
    9e58:	e24dd024 	sub	sp, sp, #36	; 0x24
    9e5c:	e50b0018 	str	r0, [fp, #-24]
    9e60:	e50b101c 	str	r1, [fp, #-28]
    9e64:	e50b2020 	str	r2, [fp, #-32]
    9e68:	e50b3024 	str	r3, [fp, #-36]
    9e6c:	e51b0018 	ldr	r0, [fp, #-24]
    9e70:	ebfffd4e 	bl	93b0 <get_by_pid>
    9e74:	e1a03000 	mov	r3, r0
    9e78:	e50b3014 	str	r3, [fp, #-20]
    9e7c:	e3a00010 	mov	r0, #16	; 0x10
    9e80:	ebfffbb2 	bl	8d50 <kmalloc>
    9e84:	e1a03000 	mov	r3, r0
    9e88:	e50b3010 	str	r3, [fp, #-16]
    9e8c:	e51b3010 	ldr	r3, [fp, #-16]
    9e90:	e3530000 	cmp	r3, #0	; 0x0
    9e94:	1a000004 	bne	9eac <internal_send+0x5c>
    9e98:	e3a03013 	mov	r3, #19	; 0x13
    9e9c:	e3a04000 	mov	r4, #0	; 0x0
    9ea0:	e50b302c 	str	r3, [fp, #-44]
    9ea4:	e50b4028 	str	r4, [fp, #-40]
    9ea8:	ea000060 	b	a030 <internal_send+0x1e0>
    9eac:	e51b3018 	ldr	r3, [fp, #-24]
    9eb0:	e3530001 	cmp	r3, #1	; 0x1
    9eb4:	0a000002 	beq	9ec4 <internal_send+0x74>
    9eb8:	e51b3014 	ldr	r3, [fp, #-20]
    9ebc:	e3530000 	cmp	r3, #0	; 0x0
    9ec0:	1a000006 	bne	9ee0 <internal_send+0x90>
    9ec4:	e51b0010 	ldr	r0, [fp, #-16]
    9ec8:	ebfffc19 	bl	8f34 <kfree>
    9ecc:	e3a03011 	mov	r3, #17	; 0x11
    9ed0:	e3a04000 	mov	r4, #0	; 0x0
    9ed4:	e50b302c 	str	r3, [fp, #-44]
    9ed8:	e50b4028 	str	r4, [fp, #-40]
    9edc:	ea000053 	b	a030 <internal_send+0x1e0>
    9ee0:	e51b3010 	ldr	r3, [fp, #-16]
    9ee4:	e3a02000 	mov	r2, #0	; 0x0
    9ee8:	e5832000 	str	r2, [r3]
    9eec:	e51b3020 	ldr	r3, [fp, #-32]
    9ef0:	e3530000 	cmp	r3, #0	; 0x0
    9ef4:	0a000016 	beq	9f54 <internal_send+0x104>
    9ef8:	e51b0020 	ldr	r0, [fp, #-32]
    9efc:	ebfffb93 	bl	8d50 <kmalloc>
    9f00:	e1a02000 	mov	r2, r0
    9f04:	e51b3010 	ldr	r3, [fp, #-16]
    9f08:	e5832000 	str	r2, [r3]
    9f0c:	e51b3010 	ldr	r3, [fp, #-16]
    9f10:	e5933000 	ldr	r3, [r3]
    9f14:	e3530000 	cmp	r3, #0	; 0x0
    9f18:	1a000006 	bne	9f38 <internal_send+0xe8>
    9f1c:	e51b0010 	ldr	r0, [fp, #-16]
    9f20:	ebfffc03 	bl	8f34 <kfree>
    9f24:	e3a03013 	mov	r3, #19	; 0x13
    9f28:	e3a04000 	mov	r4, #0	; 0x0
    9f2c:	e50b302c 	str	r3, [fp, #-44]
    9f30:	e50b4028 	str	r4, [fp, #-40]
    9f34:	ea00003d 	b	a030 <internal_send+0x1e0>
    9f38:	e51b3010 	ldr	r3, [fp, #-16]
    9f3c:	e5933000 	ldr	r3, [r3]
    9f40:	e51b201c 	ldr	r2, [fp, #-28]
    9f44:	e1a00003 	mov	r0, r3
    9f48:	e1a01002 	mov	r1, r2
    9f4c:	e51b2020 	ldr	r2, [fp, #-32]
    9f50:	ebfffa8e 	bl	8990 <memcpy>
    9f54:	e51b2010 	ldr	r2, [fp, #-16]
    9f58:	e51b3020 	ldr	r3, [fp, #-32]
    9f5c:	e5823004 	str	r3, [r2, #4]
    9f60:	e59f30e4 	ldr	r3, [pc, #228]	; a04c <internal_send+0x1fc>
    9f64:	e5933000 	ldr	r3, [r3]
    9f68:	e5932000 	ldr	r2, [r3]
    9f6c:	e51b3010 	ldr	r3, [fp, #-16]
    9f70:	e5832008 	str	r2, [r3, #8]
    9f74:	e51b2010 	ldr	r2, [fp, #-16]
    9f78:	e3a03000 	mov	r3, #0	; 0x0
    9f7c:	e582300c 	str	r3, [r2, #12]
    9f80:	e51b3014 	ldr	r3, [fp, #-20]
    9f84:	e5933030 	ldr	r3, [r3, #48]
    9f88:	e3530000 	cmp	r3, #0	; 0x0
    9f8c:	1a000003 	bne	9fa0 <internal_send+0x150>
    9f90:	e51b2014 	ldr	r2, [fp, #-20]
    9f94:	e51b3010 	ldr	r3, [fp, #-16]
    9f98:	e582302c 	str	r3, [r2, #44]
    9f9c:	ea000003 	b	9fb0 <internal_send+0x160>
    9fa0:	e51b3014 	ldr	r3, [fp, #-20]
    9fa4:	e5932030 	ldr	r2, [r3, #48]
    9fa8:	e51b3010 	ldr	r3, [fp, #-16]
    9fac:	e582300c 	str	r3, [r2, #12]
    9fb0:	e51b2014 	ldr	r2, [fp, #-20]
    9fb4:	e51b3010 	ldr	r3, [fp, #-16]
    9fb8:	e5823030 	str	r3, [r2, #48]
    9fbc:	e51b3014 	ldr	r3, [fp, #-20]
    9fc0:	e5d33020 	ldrb	r3, [r3, #32]
    9fc4:	e3530002 	cmp	r3, #2	; 0x2
    9fc8:	1a000002 	bne	9fd8 <internal_send+0x188>
    9fcc:	e51b3014 	ldr	r3, [fp, #-20]
    9fd0:	e3a02000 	mov	r2, #0	; 0x0
    9fd4:	e5c32020 	strb	r2, [r3, #32]
    9fd8:	e51b3024 	ldr	r3, [fp, #-36]
    9fdc:	e3530001 	cmp	r3, #1	; 0x1
    9fe0:	1a00000e 	bne	a020 <internal_send+0x1d0>
    9fe4:	e59f3060 	ldr	r3, [pc, #96]	; a04c <internal_send+0x1fc>
    9fe8:	e5932000 	ldr	r2, [r3]
    9fec:	e51b3018 	ldr	r3, [fp, #-24]
    9ff0:	e582303c 	str	r3, [r2, #60]
    9ff4:	e59f3050 	ldr	r3, [pc, #80]	; a04c <internal_send+0x1fc>
    9ff8:	e5932000 	ldr	r2, [r3]
    9ffc:	e3a03003 	mov	r3, #3	; 0x3
    a000:	e5c23020 	strb	r3, [r2, #32]
    a004:	e59f3040 	ldr	r3, [pc, #64]	; a04c <internal_send+0x1fc>
    a008:	e5933000 	ldr	r3, [r3]
    a00c:	e5933008 	ldr	r3, [r3, #8]
    a010:	e2832034 	add	r2, r3, #52	; 0x34
    a014:	e3a03000 	mov	r3, #0	; 0x0
    a018:	e5823000 	str	r3, [r2]
    a01c:	ebfffd06 	bl	943c <schedule>
    a020:	e3a03000 	mov	r3, #0	; 0x0
    a024:	e3a04000 	mov	r4, #0	; 0x0
    a028:	e50b302c 	str	r3, [fp, #-44]
    a02c:	e50b4028 	str	r4, [fp, #-40]
    a030:	e24b402c 	sub	r4, fp, #44	; 0x2c
    a034:	e8940018 	ldm	r4, {r3, r4}
    a038:	e1a00003 	mov	r0, r3
    a03c:	e1a01004 	mov	r1, r4
    a040:	e24bd008 	sub	sp, fp, #8	; 0x8
    a044:	e8bd4810 	pop	{r4, fp, lr}
    a048:	e12fff1e 	bx	lr
    a04c:	0001598c 	.word	0x0001598c

0000a050 <internal_get_reply>:
    a050:	e92d4810 	push	{r4, fp, lr}
    a054:	e28db008 	add	fp, sp, #8	; 0x8
    a058:	e24dd01c 	sub	sp, sp, #28	; 0x1c
    a05c:	e50b0018 	str	r0, [fp, #-24]
    a060:	e50b101c 	str	r1, [fp, #-28]
    a064:	e50b2020 	str	r2, [fp, #-32]
    a068:	e50b3024 	str	r3, [fp, #-36]
    a06c:	e51b301c 	ldr	r3, [fp, #-28]
    a070:	e50b3010 	str	r3, [fp, #-16]
    a074:	e59f3080 	ldr	r3, [pc, #128]	; a0fc <internal_get_reply+0xac>
    a078:	e5933000 	ldr	r3, [r3]
    a07c:	e5932038 	ldr	r2, [r3, #56]
    a080:	e51b3010 	ldr	r3, [fp, #-16]
    a084:	e5933000 	ldr	r3, [r3]
    a088:	e1520003 	cmp	r2, r3
    a08c:	2a000004 	bcs	a0a4 <internal_get_reply+0x54>
    a090:	e59f3064 	ldr	r3, [pc, #100]	; a0fc <internal_get_reply+0xac>
    a094:	e5933000 	ldr	r3, [r3]
    a098:	e5932038 	ldr	r2, [r3, #56]
    a09c:	e51b3010 	ldr	r3, [fp, #-16]
    a0a0:	e5832000 	str	r2, [r3]
    a0a4:	e51b1018 	ldr	r1, [fp, #-24]
    a0a8:	e59f304c 	ldr	r3, [pc, #76]	; a0fc <internal_get_reply+0xac>
    a0ac:	e5933000 	ldr	r3, [r3]
    a0b0:	e5932034 	ldr	r2, [r3, #52]
    a0b4:	e51b3010 	ldr	r3, [fp, #-16]
    a0b8:	e5933000 	ldr	r3, [r3]
    a0bc:	e1a00001 	mov	r0, r1
    a0c0:	e1a01002 	mov	r1, r2
    a0c4:	e1a02003 	mov	r2, r3
    a0c8:	ebfffa30 	bl	8990 <memcpy>
    a0cc:	e59f3028 	ldr	r3, [pc, #40]	; a0fc <internal_get_reply+0xac>
    a0d0:	e5933000 	ldr	r3, [r3]
    a0d4:	e5933034 	ldr	r3, [r3, #52]
    a0d8:	e1a00003 	mov	r0, r3
    a0dc:	ebfffb94 	bl	8f34 <kfree>
    a0e0:	e3a03000 	mov	r3, #0	; 0x0
    a0e4:	e3a04000 	mov	r4, #0	; 0x0
    a0e8:	e1a00003 	mov	r0, r3
    a0ec:	e1a01004 	mov	r1, r4
    a0f0:	e24bd008 	sub	sp, fp, #8	; 0x8
    a0f4:	e8bd4810 	pop	{r4, fp, lr}
    a0f8:	e12fff1e 	bx	lr
    a0fc:	0001598c 	.word	0x0001598c

0000a100 <internal_wait_for_send>:
    a100:	e92d4810 	push	{r4, fp, lr}
    a104:	e28db008 	add	fp, sp, #8	; 0x8
    a108:	e24dd014 	sub	sp, sp, #20	; 0x14
    a10c:	e50b0010 	str	r0, [fp, #-16]
    a110:	e50b1014 	str	r1, [fp, #-20]
    a114:	e50b2018 	str	r2, [fp, #-24]
    a118:	e50b301c 	str	r3, [fp, #-28]
    a11c:	e59f303c 	ldr	r3, [pc, #60]	; a160 <internal_wait_for_send+0x60>
    a120:	e5933000 	ldr	r3, [r3]
    a124:	e593302c 	ldr	r3, [r3, #44]
    a128:	e3530000 	cmp	r3, #0	; 0x0
    a12c:	1a000004 	bne	a144 <internal_wait_for_send+0x44>
    a130:	e59f3028 	ldr	r3, [pc, #40]	; a160 <internal_wait_for_send+0x60>
    a134:	e5932000 	ldr	r2, [r3]
    a138:	e3a03002 	mov	r3, #2	; 0x2
    a13c:	e5c23020 	strb	r3, [r2, #32]
    a140:	ebfffcbd 	bl	943c <schedule>
    a144:	e3a03000 	mov	r3, #0	; 0x0
    a148:	e3a04000 	mov	r4, #0	; 0x0
    a14c:	e1a00003 	mov	r0, r3
    a150:	e1a01004 	mov	r1, r4
    a154:	e24bd008 	sub	sp, fp, #8	; 0x8
    a158:	e8bd4810 	pop	{r4, fp, lr}
    a15c:	e12fff1e 	bx	lr
    a160:	0001598c 	.word	0x0001598c

0000a164 <internal_receive>:
    a164:	e92d4810 	push	{r4, fp, lr}
    a168:	e28db008 	add	fp, sp, #8	; 0x8
    a16c:	e24dd024 	sub	sp, sp, #36	; 0x24
    a170:	e50b0020 	str	r0, [fp, #-32]
    a174:	e50b1024 	str	r1, [fp, #-36]
    a178:	e50b2028 	str	r2, [fp, #-40]
    a17c:	e50b302c 	str	r3, [fp, #-44]
    a180:	e51b3020 	ldr	r3, [fp, #-32]
    a184:	e50b3018 	str	r3, [fp, #-24]
    a188:	e51b3028 	ldr	r3, [fp, #-40]
    a18c:	e50b3014 	str	r3, [fp, #-20]
    a190:	e59f30d4 	ldr	r3, [pc, #212]	; a26c <internal_receive+0x108>
    a194:	e5933000 	ldr	r3, [r3]
    a198:	e593302c 	ldr	r3, [r3, #44]
    a19c:	e50b3010 	str	r3, [fp, #-16]
    a1a0:	e59f30c4 	ldr	r3, [pc, #196]	; a26c <internal_receive+0x108>
    a1a4:	e5932000 	ldr	r2, [r3]
    a1a8:	e51b3010 	ldr	r3, [fp, #-16]
    a1ac:	e593300c 	ldr	r3, [r3, #12]
    a1b0:	e582302c 	str	r3, [r2, #44]
    a1b4:	e59f30b0 	ldr	r3, [pc, #176]	; a26c <internal_receive+0x108>
    a1b8:	e5933000 	ldr	r3, [r3]
    a1bc:	e5932030 	ldr	r2, [r3, #48]
    a1c0:	e51b3010 	ldr	r3, [fp, #-16]
    a1c4:	e1520003 	cmp	r2, r3
    a1c8:	1a000004 	bne	a1e0 <internal_receive+0x7c>
    a1cc:	e59f3098 	ldr	r3, [pc, #152]	; a26c <internal_receive+0x108>
    a1d0:	e5932000 	ldr	r2, [r3]
    a1d4:	e51b3010 	ldr	r3, [fp, #-16]
    a1d8:	e593300c 	ldr	r3, [r3, #12]
    a1dc:	e5823030 	str	r3, [r2, #48]
    a1e0:	e51b3010 	ldr	r3, [fp, #-16]
    a1e4:	e5932008 	ldr	r2, [r3, #8]
    a1e8:	e51b3018 	ldr	r3, [fp, #-24]
    a1ec:	e5832000 	str	r2, [r3]
    a1f0:	e51b3010 	ldr	r3, [fp, #-16]
    a1f4:	e5932004 	ldr	r2, [r3, #4]
    a1f8:	e51b3014 	ldr	r3, [fp, #-20]
    a1fc:	e5933000 	ldr	r3, [r3]
    a200:	e1520003 	cmp	r2, r3
    a204:	2a000003 	bcs	a218 <internal_receive+0xb4>
    a208:	e51b3010 	ldr	r3, [fp, #-16]
    a20c:	e5932004 	ldr	r2, [r3, #4]
    a210:	e51b3014 	ldr	r3, [fp, #-20]
    a214:	e5832000 	str	r2, [r3]
    a218:	e51b2024 	ldr	r2, [fp, #-36]
    a21c:	e51b3010 	ldr	r3, [fp, #-16]
    a220:	e5931000 	ldr	r1, [r3]
    a224:	e51b3014 	ldr	r3, [fp, #-20]
    a228:	e5933000 	ldr	r3, [r3]
    a22c:	e1a00002 	mov	r0, r2
    a230:	e1a02003 	mov	r2, r3
    a234:	ebfff9d5 	bl	8990 <memcpy>
    a238:	e51b3010 	ldr	r3, [fp, #-16]
    a23c:	e5933000 	ldr	r3, [r3]
    a240:	e1a00003 	mov	r0, r3
    a244:	ebfffb3a 	bl	8f34 <kfree>
    a248:	e51b0010 	ldr	r0, [fp, #-16]
    a24c:	ebfffb38 	bl	8f34 <kfree>
    a250:	e3a03000 	mov	r3, #0	; 0x0
    a254:	e3a04000 	mov	r4, #0	; 0x0
    a258:	e1a00003 	mov	r0, r3
    a25c:	e1a01004 	mov	r1, r4
    a260:	e24bd008 	sub	sp, fp, #8	; 0x8
    a264:	e8bd4810 	pop	{r4, fp, lr}
    a268:	e12fff1e 	bx	lr
    a26c:	0001598c 	.word	0x0001598c

0000a270 <internal_reply>:
    a270:	e92d4810 	push	{r4, fp, lr}
    a274:	e28db008 	add	fp, sp, #8	; 0x8
    a278:	e24dd024 	sub	sp, sp, #36	; 0x24
    a27c:	e50b0018 	str	r0, [fp, #-24]
    a280:	e50b101c 	str	r1, [fp, #-28]
    a284:	e50b2020 	str	r2, [fp, #-32]
    a288:	e50b3024 	str	r3, [fp, #-36]
    a28c:	e51b0018 	ldr	r0, [fp, #-24]
    a290:	ebfffc46 	bl	93b0 <get_by_pid>
    a294:	e1a03000 	mov	r3, r0
    a298:	e50b3010 	str	r3, [fp, #-16]
    a29c:	e51b3010 	ldr	r3, [fp, #-16]
    a2a0:	e3530000 	cmp	r3, #0	; 0x0
    a2a4:	1a000004 	bne	a2bc <internal_reply+0x4c>
    a2a8:	e3a03011 	mov	r3, #17	; 0x11
    a2ac:	e3a04000 	mov	r4, #0	; 0x0
    a2b0:	e50b302c 	str	r3, [fp, #-44]
    a2b4:	e50b4028 	str	r4, [fp, #-40]
    a2b8:	ea00002b 	b	a36c <internal_reply+0xfc>
    a2bc:	e51b3010 	ldr	r3, [fp, #-16]
    a2c0:	e5d33020 	ldrb	r3, [r3, #32]
    a2c4:	e3530003 	cmp	r3, #3	; 0x3
    a2c8:	1a000006 	bne	a2e8 <internal_reply+0x78>
    a2cc:	e51b3010 	ldr	r3, [fp, #-16]
    a2d0:	e593203c 	ldr	r2, [r3, #60]
    a2d4:	e59f30ac 	ldr	r3, [pc, #172]	; a388 <internal_reply+0x118>
    a2d8:	e5933000 	ldr	r3, [r3]
    a2dc:	e5933000 	ldr	r3, [r3]
    a2e0:	e1520003 	cmp	r2, r3
    a2e4:	0a000004 	beq	a2fc <internal_reply+0x8c>
    a2e8:	e3a03017 	mov	r3, #23	; 0x17
    a2ec:	e3a04000 	mov	r4, #0	; 0x0
    a2f0:	e50b302c 	str	r3, [fp, #-44]
    a2f4:	e50b4028 	str	r4, [fp, #-40]
    a2f8:	ea00001b 	b	a36c <internal_reply+0xfc>
    a2fc:	e51b0020 	ldr	r0, [fp, #-32]
    a300:	ebfffa92 	bl	8d50 <kmalloc>
    a304:	e1a02000 	mov	r2, r0
    a308:	e51b3010 	ldr	r3, [fp, #-16]
    a30c:	e5832034 	str	r2, [r3, #52]
    a310:	e51b3010 	ldr	r3, [fp, #-16]
    a314:	e5933034 	ldr	r3, [r3, #52]
    a318:	e3530000 	cmp	r3, #0	; 0x0
    a31c:	1a000004 	bne	a334 <internal_reply+0xc4>
    a320:	e3a03013 	mov	r3, #19	; 0x13
    a324:	e3a04000 	mov	r4, #0	; 0x0
    a328:	e50b302c 	str	r3, [fp, #-44]
    a32c:	e50b4028 	str	r4, [fp, #-40]
    a330:	ea00000d 	b	a36c <internal_reply+0xfc>
    a334:	e51b3010 	ldr	r3, [fp, #-16]
    a338:	e5933034 	ldr	r3, [r3, #52]
    a33c:	e51b201c 	ldr	r2, [fp, #-28]
    a340:	e1a00003 	mov	r0, r3
    a344:	e1a01002 	mov	r1, r2
    a348:	e51b2020 	ldr	r2, [fp, #-32]
    a34c:	ebfff98f 	bl	8990 <memcpy>
    a350:	e51b2010 	ldr	r2, [fp, #-16]
    a354:	e51b3020 	ldr	r3, [fp, #-32]
    a358:	e5823038 	str	r3, [r2, #56]
    a35c:	e3a03000 	mov	r3, #0	; 0x0
    a360:	e3a04000 	mov	r4, #0	; 0x0
    a364:	e50b302c 	str	r3, [fp, #-44]
    a368:	e50b4028 	str	r4, [fp, #-40]
    a36c:	e24b402c 	sub	r4, fp, #44	; 0x2c
    a370:	e8940018 	ldm	r4, {r3, r4}
    a374:	e1a00003 	mov	r0, r3
    a378:	e1a01004 	mov	r1, r4
    a37c:	e24bd008 	sub	sp, fp, #8	; 0x8
    a380:	e8bd4810 	pop	{r4, fp, lr}
    a384:	e12fff1e 	bx	lr
    a388:	0001598c 	.word	0x0001598c

0000a38c <internal_malloc>:
    a38c:	e92d4810 	push	{r4, fp, lr}
    a390:	e28db008 	add	fp, sp, #8	; 0x8
    a394:	e24dd014 	sub	sp, sp, #20	; 0x14
    a398:	e50b0010 	str	r0, [fp, #-16]
    a39c:	e50b1014 	str	r1, [fp, #-20]
    a3a0:	e50b2018 	str	r2, [fp, #-24]
    a3a4:	e50b301c 	str	r3, [fp, #-28]
    a3a8:	e59f302c 	ldr	r3, [pc, #44]	; a3dc <internal_malloc+0x50>
    a3ac:	e5933000 	ldr	r3, [r3]
    a3b0:	e2833010 	add	r3, r3, #16	; 0x10
    a3b4:	e1a00003 	mov	r0, r3
    a3b8:	e51b1010 	ldr	r1, [fp, #-16]
    a3bc:	ebfffa70 	bl	8d84 <memory_allocator>
    a3c0:	e1a03000 	mov	r3, r0
    a3c4:	e3a04000 	mov	r4, #0	; 0x0
    a3c8:	e1a00003 	mov	r0, r3
    a3cc:	e1a01004 	mov	r1, r4
    a3d0:	e24bd008 	sub	sp, fp, #8	; 0x8
    a3d4:	e8bd4810 	pop	{r4, fp, lr}
    a3d8:	e12fff1e 	bx	lr
    a3dc:	0001598c 	.word	0x0001598c

0000a3e0 <internal_free>:
    a3e0:	e92d4810 	push	{r4, fp, lr}
    a3e4:	e28db008 	add	fp, sp, #8	; 0x8
    a3e8:	e24dd014 	sub	sp, sp, #20	; 0x14
    a3ec:	e50b0010 	str	r0, [fp, #-16]
    a3f0:	e50b1014 	str	r1, [fp, #-20]
    a3f4:	e50b2018 	str	r2, [fp, #-24]
    a3f8:	e50b301c 	str	r3, [fp, #-28]
    a3fc:	e59f3030 	ldr	r3, [pc, #48]	; a434 <internal_free+0x54>
    a400:	e5933000 	ldr	r3, [r3]
    a404:	e2833010 	add	r3, r3, #16	; 0x10
    a408:	e51b2010 	ldr	r2, [fp, #-16]
    a40c:	e1a00003 	mov	r0, r3
    a410:	e1a01002 	mov	r1, r2
    a414:	ebfffad1 	bl	8f60 <memory_deallocator>
    a418:	e3a03000 	mov	r3, #0	; 0x0
    a41c:	e3a04000 	mov	r4, #0	; 0x0
    a420:	e1a00003 	mov	r0, r3
    a424:	e1a01004 	mov	r1, r4
    a428:	e24bd008 	sub	sp, fp, #8	; 0x8
    a42c:	e8bd4810 	pop	{r4, fp, lr}
    a430:	e12fff1e 	bx	lr
    a434:	0001598c 	.word	0x0001598c

0000a438 <internal_dummy_syscall>:
    a438:	e52db004 	push	{fp}		; (str fp, [sp, #-4]!)
    a43c:	e28db000 	add	fp, sp, #0	; 0x0
    a440:	e24dd01c 	sub	sp, sp, #28	; 0x1c
    a444:	e50b0008 	str	r0, [fp, #-8]
    a448:	e50b100c 	str	r1, [fp, #-12]
    a44c:	e50b2010 	str	r2, [fp, #-16]
    a450:	e50b3014 	str	r3, [fp, #-20]
    a454:	e28bd000 	add	sp, fp, #0	; 0x0
    a458:	e8bd0800 	pop	{fp}
    a45c:	e12fff1e 	bx	lr

0000a460 <internal_gettime>:
    a460:	e92d4810 	push	{r4, fp, lr}
    a464:	e28db008 	add	fp, sp, #8	; 0x8
    a468:	e24dd014 	sub	sp, sp, #20	; 0x14
    a46c:	e50b0010 	str	r0, [fp, #-16]
    a470:	e50b1014 	str	r1, [fp, #-20]
    a474:	e50b2018 	str	r2, [fp, #-24]
    a478:	e50b301c 	str	r3, [fp, #-28]
    a47c:	ebfff730 	bl	8144 <GetTimeStamp>
    a480:	e1a03000 	mov	r3, r0
    a484:	e1a04001 	mov	r4, r1
    a488:	e1a00003 	mov	r0, r3
    a48c:	e1a01004 	mov	r1, r4
    a490:	e24bd008 	sub	sp, fp, #8	; 0x8
    a494:	e8bd4810 	pop	{r4, fp, lr}
    a498:	e12fff1e 	bx	lr

0000a49c <internal_drawstring>:
    a49c:	e92d4810 	push	{r4, fp, lr}
    a4a0:	e28db008 	add	fp, sp, #8	; 0x8
    a4a4:	e24dd014 	sub	sp, sp, #20	; 0x14
    a4a8:	e50b0010 	str	r0, [fp, #-16]
    a4ac:	e50b1014 	str	r1, [fp, #-20]
    a4b0:	e50b2018 	str	r2, [fp, #-24]
    a4b4:	e50b301c 	str	r3, [fp, #-28]
    a4b8:	e51b2010 	ldr	r2, [fp, #-16]
    a4bc:	e59f30c4 	ldr	r3, [pc, #196]	; a588 <internal_drawstring+0xec>
    a4c0:	e5933000 	ldr	r3, [r3]
    a4c4:	e1a0c003 	mov	ip, r3
    a4c8:	e59f30bc 	ldr	r3, [pc, #188]	; a58c <internal_drawstring+0xf0>
    a4cc:	e5933000 	ldr	r3, [r3]
    a4d0:	e1a00002 	mov	r0, r2
    a4d4:	e51b1014 	ldr	r1, [fp, #-20]
    a4d8:	e1a0200c 	mov	r2, ip
    a4dc:	ebfff77b 	bl	82d0 <DrawString>
    a4e0:	e51b3014 	ldr	r3, [fp, #-20]
    a4e4:	e1a02183 	lsl	r2, r3, #3
    a4e8:	e59f3098 	ldr	r3, [pc, #152]	; a588 <internal_drawstring+0xec>
    a4ec:	e5933000 	ldr	r3, [r3]
    a4f0:	e0823003 	add	r3, r2, r3
    a4f4:	e1a02003 	mov	r2, r3
    a4f8:	e59f3088 	ldr	r3, [pc, #136]	; a588 <internal_drawstring+0xec>
    a4fc:	e5832000 	str	r2, [r3]
    a500:	e59f3080 	ldr	r3, [pc, #128]	; a588 <internal_drawstring+0xec>
    a504:	e5932000 	ldr	r2, [r3]
    a508:	e3a03fff 	mov	r3, #1020	; 0x3fc
    a50c:	e2833003 	add	r3, r3, #3	; 0x3
    a510:	e1520003 	cmp	r2, r3
    a514:	da000014 	ble	a56c <internal_drawstring+0xd0>
    a518:	e59f2068 	ldr	r2, [pc, #104]	; a588 <internal_drawstring+0xec>
    a51c:	e3a03000 	mov	r3, #0	; 0x0
    a520:	e5823000 	str	r3, [r2]
    a524:	e59f3060 	ldr	r3, [pc, #96]	; a58c <internal_drawstring+0xf0>
    a528:	e5933000 	ldr	r3, [r3]
    a52c:	e2832010 	add	r2, r3, #16	; 0x10
    a530:	e59f3054 	ldr	r3, [pc, #84]	; a58c <internal_drawstring+0xf0>
    a534:	e5832000 	str	r2, [r3]
    a538:	e59f304c 	ldr	r3, [pc, #76]	; a58c <internal_drawstring+0xf0>
    a53c:	e5932000 	ldr	r2, [r3]
    a540:	e3a03fbf 	mov	r3, #764	; 0x2fc
    a544:	e2833003 	add	r3, r3, #3	; 0x3
    a548:	e1520003 	cmp	r2, r3
    a54c:	da000006 	ble	a56c <internal_drawstring+0xd0>
    a550:	ebfff9e3 	bl	8ce4 <clearScreen>
    a554:	e59f202c 	ldr	r2, [pc, #44]	; a588 <internal_drawstring+0xec>
    a558:	e3a03000 	mov	r3, #0	; 0x0
    a55c:	e5823000 	str	r3, [r2]
    a560:	e59f2024 	ldr	r2, [pc, #36]	; a58c <internal_drawstring+0xf0>
    a564:	e3a03000 	mov	r3, #0	; 0x0
    a568:	e5823000 	str	r3, [r2]
    a56c:	e3a03000 	mov	r3, #0	; 0x0
    a570:	e3a04000 	mov	r4, #0	; 0x0
    a574:	e1a00003 	mov	r0, r3
    a578:	e1a01004 	mov	r1, r4
    a57c:	e24bd008 	sub	sp, fp, #8	; 0x8
    a580:	e8bd4810 	pop	{r4, fp, lr}
    a584:	e12fff1e 	bx	lr
    a588:	000159f0 	.word	0x000159f0
    a58c:	000159f4 	.word	0x000159f4

0000a590 <internal_drawstringln>:
    a590:	e92d4810 	push	{r4, fp, lr}
    a594:	e28db008 	add	fp, sp, #8	; 0x8
    a598:	e24dd014 	sub	sp, sp, #20	; 0x14
    a59c:	e50b0010 	str	r0, [fp, #-16]
    a5a0:	e50b1014 	str	r1, [fp, #-20]
    a5a4:	e50b2018 	str	r2, [fp, #-24]
    a5a8:	e50b301c 	str	r3, [fp, #-28]
    a5ac:	e59f30dc 	ldr	r3, [pc, #220]	; a690 <internal_drawstringln+0x100>
    a5b0:	e5933000 	ldr	r3, [r3]
    a5b4:	e3530000 	cmp	r3, #0	; 0x0
    a5b8:	da000011 	ble	a604 <internal_drawstringln+0x74>
    a5bc:	e59f20cc 	ldr	r2, [pc, #204]	; a690 <internal_drawstringln+0x100>
    a5c0:	e3a03000 	mov	r3, #0	; 0x0
    a5c4:	e5823000 	str	r3, [r2]
    a5c8:	e59f30c4 	ldr	r3, [pc, #196]	; a694 <internal_drawstringln+0x104>
    a5cc:	e5933000 	ldr	r3, [r3]
    a5d0:	e2832010 	add	r2, r3, #16	; 0x10
    a5d4:	e59f30b8 	ldr	r3, [pc, #184]	; a694 <internal_drawstringln+0x104>
    a5d8:	e5832000 	str	r2, [r3]
    a5dc:	e59f30b0 	ldr	r3, [pc, #176]	; a694 <internal_drawstringln+0x104>
    a5e0:	e5932000 	ldr	r2, [r3]
    a5e4:	e3a03fbf 	mov	r3, #764	; 0x2fc
    a5e8:	e2833003 	add	r3, r3, #3	; 0x3
    a5ec:	e1520003 	cmp	r2, r3
    a5f0:	da000003 	ble	a604 <internal_drawstringln+0x74>
    a5f4:	ebfff9ba 	bl	8ce4 <clearScreen>
    a5f8:	e59f2094 	ldr	r2, [pc, #148]	; a694 <internal_drawstringln+0x104>
    a5fc:	e3a03000 	mov	r3, #0	; 0x0
    a600:	e5823000 	str	r3, [r2]
    a604:	e51b2010 	ldr	r2, [fp, #-16]
    a608:	e59f3080 	ldr	r3, [pc, #128]	; a690 <internal_drawstringln+0x100>
    a60c:	e5933000 	ldr	r3, [r3]
    a610:	e1a0c003 	mov	ip, r3
    a614:	e59f3078 	ldr	r3, [pc, #120]	; a694 <internal_drawstringln+0x104>
    a618:	e5933000 	ldr	r3, [r3]
    a61c:	e1a00002 	mov	r0, r2
    a620:	e51b1014 	ldr	r1, [fp, #-20]
    a624:	e1a0200c 	mov	r2, ip
    a628:	ebfff728 	bl	82d0 <DrawString>
    a62c:	e59f205c 	ldr	r2, [pc, #92]	; a690 <internal_drawstringln+0x100>
    a630:	e3a03000 	mov	r3, #0	; 0x0
    a634:	e5823000 	str	r3, [r2]
    a638:	e59f3054 	ldr	r3, [pc, #84]	; a694 <internal_drawstringln+0x104>
    a63c:	e5933000 	ldr	r3, [r3]
    a640:	e2832010 	add	r2, r3, #16	; 0x10
    a644:	e59f3048 	ldr	r3, [pc, #72]	; a694 <internal_drawstringln+0x104>
    a648:	e5832000 	str	r2, [r3]
    a64c:	e59f3040 	ldr	r3, [pc, #64]	; a694 <internal_drawstringln+0x104>
    a650:	e5932000 	ldr	r2, [r3]
    a654:	e3a03fbf 	mov	r3, #764	; 0x2fc
    a658:	e2833003 	add	r3, r3, #3	; 0x3
    a65c:	e1520003 	cmp	r2, r3
    a660:	da000003 	ble	a674 <internal_drawstringln+0xe4>
    a664:	ebfff99e 	bl	8ce4 <clearScreen>
    a668:	e59f2024 	ldr	r2, [pc, #36]	; a694 <internal_drawstringln+0x104>
    a66c:	e3a03000 	mov	r3, #0	; 0x0
    a670:	e5823000 	str	r3, [r2]
    a674:	e3a03000 	mov	r3, #0	; 0x0
    a678:	e3a04000 	mov	r4, #0	; 0x0
    a67c:	e1a00003 	mov	r0, r3
    a680:	e1a01004 	mov	r1, r4
    a684:	e24bd008 	sub	sp, fp, #8	; 0x8
    a688:	e8bd4810 	pop	{r4, fp, lr}
    a68c:	e12fff1e 	bx	lr
    a690:	000159f0 	.word	0x000159f0
    a694:	000159f4 	.word	0x000159f4

0000a698 <internal_getstring>:
    a698:	e92d4810 	push	{r4, fp, lr}
    a69c:	e28db008 	add	fp, sp, #8	; 0x8
    a6a0:	e24dd034 	sub	sp, sp, #52	; 0x34
    a6a4:	e50b0028 	str	r0, [fp, #-40]
    a6a8:	e50b102c 	str	r1, [fp, #-44]
    a6ac:	e50b2030 	str	r2, [fp, #-48]
    a6b0:	e50b3034 	str	r3, [fp, #-52]
    a6b4:	e59f3114 	ldr	r3, [pc, #276]	; a7d0 <internal_getstring+0x138>
    a6b8:	e24b2021 	sub	r2, fp, #33	; 0x21
    a6bc:	e3a0c00f 	mov	ip, #15	; 0xf
    a6c0:	e1a00002 	mov	r0, r2
    a6c4:	e1a01003 	mov	r1, r3
    a6c8:	e1a0200c 	mov	r2, ip
    a6cc:	ebfff8af 	bl	8990 <memcpy>
    a6d0:	e3a03000 	mov	r3, #0	; 0x0
    a6d4:	e50b3010 	str	r3, [fp, #-16]
    a6d8:	ebfff742 	bl	83e8 <KeyboardUpdate>
    a6dc:	ebfff76e 	bl	849c <KeyboardGetChar>
    a6e0:	e1a03000 	mov	r3, r0
    a6e4:	e20330ff 	and	r3, r3, #255	; 0xff
    a6e8:	e54b3012 	strb	r3, [fp, #-18]
    a6ec:	e55b3012 	ldrb	r3, [fp, #-18]
    a6f0:	e3530000 	cmp	r3, #0	; 0x0
    a6f4:	0a000013 	beq	a748 <internal_getstring+0xb0>
    a6f8:	e55b3012 	ldrb	r3, [fp, #-18]
    a6fc:	e353000a 	cmp	r3, #10	; 0xa
    a700:	0a000010 	beq	a748 <internal_getstring+0xb0>
    a704:	e24b2012 	sub	r2, fp, #18	; 0x12
    a708:	e3a03000 	mov	r3, #0	; 0x0
    a70c:	e58d3000 	str	r3, [sp]
    a710:	e1a00002 	mov	r0, r2
    a714:	e3a01001 	mov	r1, #1	; 0x1
    a718:	e3a02000 	mov	r2, #0	; 0x0
    a71c:	e3a03000 	mov	r3, #0	; 0x0
    a720:	ebffff5d 	bl	a49c <internal_drawstring>
    a724:	e51b2010 	ldr	r2, [fp, #-16]
    a728:	e51b3028 	ldr	r3, [fp, #-40]
    a72c:	e0823003 	add	r3, r2, r3
    a730:	e1a02003 	mov	r2, r3
    a734:	e55b3012 	ldrb	r3, [fp, #-18]
    a738:	e5c23000 	strb	r3, [r2]
    a73c:	e51b3010 	ldr	r3, [fp, #-16]
    a740:	e2833001 	add	r3, r3, #1	; 0x1
    a744:	e50b3010 	str	r3, [fp, #-16]
    a748:	e51b2010 	ldr	r2, [fp, #-16]
    a74c:	e51b302c 	ldr	r3, [fp, #-44]
    a750:	e1520003 	cmp	r2, r3
    a754:	3a000009 	bcc	a780 <internal_getstring+0xe8>
    a758:	e24b3021 	sub	r3, fp, #33	; 0x21
    a75c:	e3a02000 	mov	r2, #0	; 0x0
    a760:	e58d2000 	str	r2, [sp]
    a764:	e1a00003 	mov	r0, r3
    a768:	e3a01010 	mov	r1, #16	; 0x10
    a76c:	e3a02000 	mov	r2, #0	; 0x0
    a770:	e3a03000 	mov	r3, #0	; 0x0
    a774:	ebffff85 	bl	a590 <internal_drawstringln>
    a778:	e3a03000 	mov	r3, #0	; 0x0
    a77c:	e50b3010 	str	r3, [fp, #-16]
    a780:	e55b3012 	ldrb	r3, [fp, #-18]
    a784:	e353000a 	cmp	r3, #10	; 0xa
    a788:	1affffd2 	bne	a6d8 <internal_getstring+0x40>
    a78c:	e51b2010 	ldr	r2, [fp, #-16]
    a790:	e51b3028 	ldr	r3, [fp, #-40]
    a794:	e0823003 	add	r3, r2, r3
    a798:	e1a02003 	mov	r2, r3
    a79c:	e3a03000 	mov	r3, #0	; 0x0
    a7a0:	e5c23000 	strb	r3, [r2]
    a7a4:	e51b2030 	ldr	r2, [fp, #-48]
    a7a8:	e51b3010 	ldr	r3, [fp, #-16]
    a7ac:	e20330ff 	and	r3, r3, #255	; 0xff
    a7b0:	e5c23000 	strb	r3, [r2]
    a7b4:	e3a03000 	mov	r3, #0	; 0x0
    a7b8:	e3a04000 	mov	r4, #0	; 0x0
    a7bc:	e1a00003 	mov	r0, r3
    a7c0:	e1a01004 	mov	r1, r4
    a7c4:	e24bd008 	sub	sp, fp, #8	; 0x8
    a7c8:	e8bd4810 	pop	{r4, fp, lr}
    a7cc:	e12fff1e 	bx	lr
    a7d0:	00012d80 	.word	0x00012d80

0000a7d4 <internal_drawline>:
    a7d4:	e92d4810 	push	{r4, fp, lr}
    a7d8:	e28db008 	add	fp, sp, #8	; 0x8
    a7dc:	e24dd014 	sub	sp, sp, #20	; 0x14
    a7e0:	e50b0010 	str	r0, [fp, #-16]
    a7e4:	e50b1014 	str	r1, [fp, #-20]
    a7e8:	e50b2018 	str	r2, [fp, #-24]
    a7ec:	e50b301c 	str	r3, [fp, #-28]
    a7f0:	e51b0010 	ldr	r0, [fp, #-16]
    a7f4:	e51b1014 	ldr	r1, [fp, #-20]
    a7f8:	e51b2018 	ldr	r2, [fp, #-24]
    a7fc:	e51b301c 	ldr	r3, [fp, #-28]
    a800:	ebfff678 	bl	81e8 <DrawLine>
    a804:	e3a03000 	mov	r3, #0	; 0x0
    a808:	e3a04000 	mov	r4, #0	; 0x0
    a80c:	e1a00003 	mov	r0, r3
    a810:	e1a01004 	mov	r1, r4
    a814:	e24bd008 	sub	sp, fp, #8	; 0x8
    a818:	e8bd4810 	pop	{r4, fp, lr}
    a81c:	e12fff1e 	bx	lr

0000a820 <internal_changeTextColor>:
    a820:	e92d4810 	push	{r4, fp, lr}
    a824:	e28db008 	add	fp, sp, #8	; 0x8
    a828:	e24dd014 	sub	sp, sp, #20	; 0x14
    a82c:	e50b0010 	str	r0, [fp, #-16]
    a830:	e50b1014 	str	r1, [fp, #-20]
    a834:	e50b2018 	str	r2, [fp, #-24]
    a838:	e50b301c 	str	r3, [fp, #-28]
    a83c:	e51b0010 	ldr	r0, [fp, #-16]
    a840:	ebfff64d 	bl	817c <SetForeColour>
    a844:	e3a03000 	mov	r3, #0	; 0x0
    a848:	e3a04000 	mov	r4, #0	; 0x0
    a84c:	e1a00003 	mov	r0, r3
    a850:	e1a01004 	mov	r1, r4
    a854:	e24bd008 	sub	sp, fp, #8	; 0x8
    a858:	e8bd4810 	pop	{r4, fp, lr}
    a85c:	e12fff1e 	bx	lr

0000a860 <internal_getpid>:
    a860:	e92d0810 	push	{r4, fp}
    a864:	e28db004 	add	fp, sp, #4	; 0x4
    a868:	e24dd010 	sub	sp, sp, #16	; 0x10
    a86c:	e50b0008 	str	r0, [fp, #-8]
    a870:	e50b100c 	str	r1, [fp, #-12]
    a874:	e50b2010 	str	r2, [fp, #-16]
    a878:	e50b3014 	str	r3, [fp, #-20]
    a87c:	e59f301c 	ldr	r3, [pc, #28]	; a8a0 <internal_getpid+0x40>
    a880:	e5933000 	ldr	r3, [r3]
    a884:	e5933000 	ldr	r3, [r3]
    a888:	e3a04000 	mov	r4, #0	; 0x0
    a88c:	e1a00003 	mov	r0, r3
    a890:	e1a01004 	mov	r1, r4
    a894:	e24bd004 	sub	sp, fp, #4	; 0x4
    a898:	e8bd0810 	pop	{r4, fp}
    a89c:	e12fff1e 	bx	lr
    a8a0:	0001598c 	.word	0x0001598c

0000a8a4 <internal_getppid>:
    a8a4:	e92d0810 	push	{r4, fp}
    a8a8:	e28db004 	add	fp, sp, #4	; 0x4
    a8ac:	e24dd010 	sub	sp, sp, #16	; 0x10
    a8b0:	e50b0008 	str	r0, [fp, #-8]
    a8b4:	e50b100c 	str	r1, [fp, #-12]
    a8b8:	e50b2010 	str	r2, [fp, #-16]
    a8bc:	e50b3014 	str	r3, [fp, #-20]
    a8c0:	e59f301c 	ldr	r3, [pc, #28]	; a8e4 <internal_getppid+0x40>
    a8c4:	e5933000 	ldr	r3, [r3]
    a8c8:	e5933004 	ldr	r3, [r3, #4]
    a8cc:	e3a04000 	mov	r4, #0	; 0x0
    a8d0:	e1a00003 	mov	r0, r3
    a8d4:	e1a01004 	mov	r1, r4
    a8d8:	e24bd004 	sub	sp, fp, #4	; 0x4
    a8dc:	e8bd0810 	pop	{r4, fp}
    a8e0:	e12fff1e 	bx	lr
    a8e4:	0001598c 	.word	0x0001598c

0000a8e8 <get_free_pid>:
    a8e8:	e52db004 	push	{fp}		; (str fp, [sp, #-4]!)
    a8ec:	e28db000 	add	fp, sp, #0	; 0x0
    a8f0:	e59f3028 	ldr	r3, [pc, #40]	; a920 <get_free_pid+0x38>
    a8f4:	e5933000 	ldr	r3, [r3]
    a8f8:	e2832001 	add	r2, r3, #1	; 0x1
    a8fc:	e59f301c 	ldr	r3, [pc, #28]	; a920 <get_free_pid+0x38>
    a900:	e5832000 	str	r2, [r3]
    a904:	e59f3014 	ldr	r3, [pc, #20]	; a920 <get_free_pid+0x38>
    a908:	e5933000 	ldr	r3, [r3]
    a90c:	e2433001 	sub	r3, r3, #1	; 0x1
    a910:	e1a00003 	mov	r0, r3
    a914:	e28bd000 	add	sp, fp, #0	; 0x0
    a918:	e8bd0800 	pop	{fp}
    a91c:	e12fff1e 	bx	lr
    a920:	00015900 	.word	0x00015900

0000a924 <internal_create_process>:
    a924:	e92d4810 	push	{r4, fp, lr}
    a928:	e28db008 	add	fp, sp, #8	; 0x8
    a92c:	e24dd02c 	sub	sp, sp, #44	; 0x2c
    a930:	e50b0020 	str	r0, [fp, #-32]
    a934:	e50b1024 	str	r1, [fp, #-36]
    a938:	e50b2028 	str	r2, [fp, #-40]
    a93c:	e50b302c 	str	r3, [fp, #-44]
    a940:	e3a00058 	mov	r0, #88	; 0x58
    a944:	ebfff901 	bl	8d50 <kmalloc>
    a948:	e1a03000 	mov	r3, r0
    a94c:	e50b3010 	str	r3, [fp, #-16]
    a950:	e51b3010 	ldr	r3, [fp, #-16]
    a954:	e3530000 	cmp	r3, #0	; 0x0
    a958:	1a000004 	bne	a970 <internal_create_process+0x4c>
    a95c:	e3a01000 	mov	r1, #0	; 0x0
    a960:	e3a02000 	mov	r2, #0	; 0x0
    a964:	e50b1034 	str	r1, [fp, #-52]
    a968:	e50b2030 	str	r2, [fp, #-48]
    a96c:	ea00009b 	b	abe0 <internal_create_process+0x2bc>
    a970:	ebffffdc 	bl	a8e8 <get_free_pid>
    a974:	e1a02000 	mov	r2, r0
    a978:	e51b3010 	ldr	r3, [fp, #-16]
    a97c:	e5832000 	str	r2, [r3]
    a980:	e59f3274 	ldr	r3, [pc, #628]	; abfc <internal_create_process+0x2d8>
    a984:	e5933000 	ldr	r3, [r3]
    a988:	e5932000 	ldr	r2, [r3]
    a98c:	e51b3010 	ldr	r3, [fp, #-16]
    a990:	e5832004 	str	r2, [r3, #4]
    a994:	e51b2010 	ldr	r2, [fp, #-16]
    a998:	e3a03902 	mov	r3, #32768	; 0x8000
    a99c:	e2833068 	add	r3, r3, #104	; 0x68
    a9a0:	e582300c 	str	r3, [r2, #12]
    a9a4:	e3a00802 	mov	r0, #131072	; 0x20000
    a9a8:	ebfff8e8 	bl	8d50 <kmalloc>
    a9ac:	e1a02000 	mov	r2, r0
    a9b0:	e51b3010 	ldr	r3, [fp, #-16]
    a9b4:	e5832010 	str	r2, [r3, #16]
    a9b8:	e51b3010 	ldr	r3, [fp, #-16]
    a9bc:	e5933010 	ldr	r3, [r3, #16]
    a9c0:	e3530000 	cmp	r3, #0	; 0x0
    a9c4:	1a000006 	bne	a9e4 <internal_create_process+0xc0>
    a9c8:	e51b0010 	ldr	r0, [fp, #-16]
    a9cc:	ebfff958 	bl	8f34 <kfree>
    a9d0:	e3a02000 	mov	r2, #0	; 0x0
    a9d4:	e3a03000 	mov	r3, #0	; 0x0
    a9d8:	e50b2034 	str	r2, [fp, #-52]
    a9dc:	e50b3030 	str	r3, [fp, #-48]
    a9e0:	ea00007e 	b	abe0 <internal_create_process+0x2bc>
    a9e4:	e51b3010 	ldr	r3, [fp, #-16]
    a9e8:	e5932010 	ldr	r2, [r3, #16]
    a9ec:	e51b3010 	ldr	r3, [fp, #-16]
    a9f0:	e583201c 	str	r2, [r3, #28]
    a9f4:	e51b2010 	ldr	r2, [fp, #-16]
    a9f8:	e3a03801 	mov	r3, #65536	; 0x10000
    a9fc:	e5823014 	str	r3, [r2, #20]
    aa00:	e51b3010 	ldr	r3, [fp, #-16]
    aa04:	e5933010 	ldr	r3, [r3, #16]
    aa08:	e2833b7f 	add	r3, r3, #130048	; 0x1fc00
    aa0c:	e2833ff1 	add	r3, r3, #964	; 0x3c4
    aa10:	e51b2010 	ldr	r2, [fp, #-16]
    aa14:	e5823008 	str	r3, [r2, #8]
    aa18:	e51b3010 	ldr	r3, [fp, #-16]
    aa1c:	e5933008 	ldr	r3, [r3, #8]
    aa20:	e1a02003 	mov	r2, r3
    aa24:	e3a03e15 	mov	r3, #336	; 0x150
    aa28:	e5823000 	str	r3, [r2]
    aa2c:	e51b3010 	ldr	r3, [fp, #-16]
    aa30:	e5933008 	ldr	r3, [r3, #8]
    aa34:	e283201c 	add	r2, r3, #28	; 0x1c
    aa38:	e51b3020 	ldr	r3, [fp, #-32]
    aa3c:	e5823000 	str	r3, [r2]
    aa40:	e51b2010 	ldr	r2, [fp, #-16]
    aa44:	e3a03000 	mov	r3, #0	; 0x0
    aa48:	e5823018 	str	r3, [r2, #24]
    aa4c:	e51b2010 	ldr	r2, [fp, #-16]
    aa50:	e3a03000 	mov	r3, #0	; 0x0
    aa54:	e5c23020 	strb	r3, [r2, #32]
    aa58:	e51b2010 	ldr	r2, [fp, #-16]
    aa5c:	e3a03000 	mov	r3, #0	; 0x0
    aa60:	e5823024 	str	r3, [r2, #36]
    aa64:	e51b2010 	ldr	r2, [fp, #-16]
    aa68:	e3a03000 	mov	r3, #0	; 0x0
    aa6c:	e5823028 	str	r3, [r2, #40]
    aa70:	e51b2010 	ldr	r2, [fp, #-16]
    aa74:	e3a03000 	mov	r3, #0	; 0x0
    aa78:	e582302c 	str	r3, [r2, #44]
    aa7c:	e51b2010 	ldr	r2, [fp, #-16]
    aa80:	e3a03000 	mov	r3, #0	; 0x0
    aa84:	e5823030 	str	r3, [r2, #48]
    aa88:	e3a00008 	mov	r0, #8	; 0x8
    aa8c:	ebfff8af 	bl	8d50 <kmalloc>
    aa90:	e1a03000 	mov	r3, r0
    aa94:	e50b3018 	str	r3, [fp, #-24]
    aa98:	e51b3018 	ldr	r3, [fp, #-24]
    aa9c:	e3530000 	cmp	r3, #0	; 0x0
    aaa0:	1a00000a 	bne	aad0 <internal_create_process+0x1ac>
    aaa4:	e51b3010 	ldr	r3, [fp, #-16]
    aaa8:	e5933010 	ldr	r3, [r3, #16]
    aaac:	e1a00003 	mov	r0, r3
    aab0:	ebfff91f 	bl	8f34 <kfree>
    aab4:	e51b0010 	ldr	r0, [fp, #-16]
    aab8:	ebfff91d 	bl	8f34 <kfree>
    aabc:	e3a03000 	mov	r3, #0	; 0x0
    aac0:	e3a04000 	mov	r4, #0	; 0x0
    aac4:	e50b3034 	str	r3, [fp, #-52]
    aac8:	e50b4030 	str	r4, [fp, #-48]
    aacc:	ea000043 	b	abe0 <internal_create_process+0x2bc>
    aad0:	e51b2018 	ldr	r2, [fp, #-24]
    aad4:	e51b3010 	ldr	r3, [fp, #-16]
    aad8:	e5823000 	str	r3, [r2]
    aadc:	e51b2018 	ldr	r2, [fp, #-24]
    aae0:	e3a03000 	mov	r3, #0	; 0x0
    aae4:	e5823004 	str	r3, [r2, #4]
    aae8:	e59f310c 	ldr	r3, [pc, #268]	; abfc <internal_create_process+0x2d8>
    aaec:	e5933000 	ldr	r3, [r3]
    aaf0:	e5933028 	ldr	r3, [r3, #40]
    aaf4:	e3530000 	cmp	r3, #0	; 0x0
    aaf8:	1a000008 	bne	ab20 <internal_create_process+0x1fc>
    aafc:	e59f30f8 	ldr	r3, [pc, #248]	; abfc <internal_create_process+0x2d8>
    ab00:	e5932000 	ldr	r2, [r3]
    ab04:	e51b3018 	ldr	r3, [fp, #-24]
    ab08:	e5823024 	str	r3, [r2, #36]
    ab0c:	e59f30e8 	ldr	r3, [pc, #232]	; abfc <internal_create_process+0x2d8>
    ab10:	e5932000 	ldr	r2, [r3]
    ab14:	e51b3018 	ldr	r3, [fp, #-24]
    ab18:	e5823028 	str	r3, [r2, #40]
    ab1c:	ea000008 	b	ab44 <internal_create_process+0x220>
    ab20:	e59f30d4 	ldr	r3, [pc, #212]	; abfc <internal_create_process+0x2d8>
    ab24:	e5933000 	ldr	r3, [r3]
    ab28:	e5932028 	ldr	r2, [r3, #40]
    ab2c:	e51b3018 	ldr	r3, [fp, #-24]
    ab30:	e5823004 	str	r3, [r2, #4]
    ab34:	e59f30c0 	ldr	r3, [pc, #192]	; abfc <internal_create_process+0x2d8>
    ab38:	e5932000 	ldr	r2, [r3]
    ab3c:	e51b3018 	ldr	r3, [fp, #-24]
    ab40:	e5823028 	str	r3, [r2, #40]
    ab44:	e3a00008 	mov	r0, #8	; 0x8
    ab48:	ebfff880 	bl	8d50 <kmalloc>
    ab4c:	e1a03000 	mov	r3, r0
    ab50:	e50b3014 	str	r3, [fp, #-20]
    ab54:	e51b3014 	ldr	r3, [fp, #-20]
    ab58:	e3530000 	cmp	r3, #0	; 0x0
    ab5c:	1a00000c 	bne	ab94 <internal_create_process+0x270>
    ab60:	e51b3010 	ldr	r3, [fp, #-16]
    ab64:	e5933010 	ldr	r3, [r3, #16]
    ab68:	e1a00003 	mov	r0, r3
    ab6c:	ebfff8f0 	bl	8f34 <kfree>
    ab70:	e51b0010 	ldr	r0, [fp, #-16]
    ab74:	ebfff8ee 	bl	8f34 <kfree>
    ab78:	e51b0018 	ldr	r0, [fp, #-24]
    ab7c:	ebfff8ec 	bl	8f34 <kfree>
    ab80:	e3a01000 	mov	r1, #0	; 0x0
    ab84:	e3a02000 	mov	r2, #0	; 0x0
    ab88:	e50b1034 	str	r1, [fp, #-52]
    ab8c:	e50b2030 	str	r2, [fp, #-48]
    ab90:	ea000012 	b	abe0 <internal_create_process+0x2bc>
    ab94:	e51b2014 	ldr	r2, [fp, #-20]
    ab98:	e51b3010 	ldr	r3, [fp, #-16]
    ab9c:	e5823000 	str	r3, [r2]
    aba0:	e51b2014 	ldr	r2, [fp, #-20]
    aba4:	e3a03000 	mov	r3, #0	; 0x0
    aba8:	e5823004 	str	r3, [r2, #4]
    abac:	e59f304c 	ldr	r3, [pc, #76]	; ac00 <internal_create_process+0x2dc>
    abb0:	e5932004 	ldr	r2, [r3, #4]
    abb4:	e51b3014 	ldr	r3, [fp, #-20]
    abb8:	e5823004 	str	r3, [r2, #4]
    abbc:	e59f203c 	ldr	r2, [pc, #60]	; ac00 <internal_create_process+0x2dc>
    abc0:	e51b3014 	ldr	r3, [fp, #-20]
    abc4:	e5823004 	str	r3, [r2, #4]
    abc8:	e51b3010 	ldr	r3, [fp, #-16]
    abcc:	e5933000 	ldr	r3, [r3]
    abd0:	e1a01003 	mov	r1, r3
    abd4:	e3a02000 	mov	r2, #0	; 0x0
    abd8:	e50b1034 	str	r1, [fp, #-52]
    abdc:	e50b2030 	str	r2, [fp, #-48]
    abe0:	e24b4034 	sub	r4, fp, #52	; 0x34
    abe4:	e8940018 	ldm	r4, {r3, r4}
    abe8:	e1a00003 	mov	r0, r3
    abec:	e1a01004 	mov	r1, r4
    abf0:	e24bd008 	sub	sp, fp, #8	; 0x8
    abf4:	e8bd4810 	pop	{r4, fp, lr}
    abf8:	e12fff1e 	bx	lr
    abfc:	0001598c 	.word	0x0001598c
    ac00:	00015984 	.word	0x00015984

0000ac04 <new_process>:
    ac04:	e92d4800 	push	{fp, lr}
    ac08:	e28db004 	add	fp, sp, #4	; 0x4
    ac0c:	e24dd010 	sub	sp, sp, #16	; 0x10
    ac10:	e1a03006 	mov	r3, r6
    ac14:	e50b3010 	str	r3, [fp, #-16]
    ac18:	e51b3010 	ldr	r3, [fp, #-16]
    ac1c:	e50b300c 	str	r3, [fp, #-12]
    ac20:	e51b300c 	ldr	r3, [fp, #-12]
    ac24:	e1a0e00f 	mov	lr, pc
    ac28:	e12fff13 	bx	r3
    ac2c:	e1a03000 	mov	r3, r0
    ac30:	e50b3008 	str	r3, [fp, #-8]
    ac34:	e51b0008 	ldr	r0, [fp, #-8]
    ac38:	eb0001df 	bl	b3bc <osc_exit>
    ac3c:	e24bd004 	sub	sp, fp, #4	; 0x4
    ac40:	e8bd4800 	pop	{fp, lr}
    ac44:	e12fff1e 	bx	lr

0000ac48 <internal_waitpid>:
    ac48:	e92d4810 	push	{r4, fp, lr}
    ac4c:	e28db008 	add	fp, sp, #8	; 0x8
    ac50:	e24dd02c 	sub	sp, sp, #44	; 0x2c
    ac54:	e50b0020 	str	r0, [fp, #-32]
    ac58:	e50b1024 	str	r1, [fp, #-36]
    ac5c:	e50b2028 	str	r2, [fp, #-40]
    ac60:	e50b302c 	str	r3, [fp, #-44]
    ac64:	e3a03000 	mov	r3, #0	; 0x0
    ac68:	e50b3018 	str	r3, [fp, #-24]
    ac6c:	e59f316c 	ldr	r3, [pc, #364]	; ade0 <internal_waitpid+0x198>
    ac70:	e5933000 	ldr	r3, [r3]
    ac74:	e5933024 	ldr	r3, [r3, #36]
    ac78:	e50b3014 	str	r3, [fp, #-20]
    ac7c:	ea000004 	b	ac94 <internal_waitpid+0x4c>
    ac80:	e51b3014 	ldr	r3, [fp, #-20]
    ac84:	e50b3018 	str	r3, [fp, #-24]
    ac88:	e51b3014 	ldr	r3, [fp, #-20]
    ac8c:	e5933004 	ldr	r3, [r3, #4]
    ac90:	e50b3014 	str	r3, [fp, #-20]
    ac94:	e51b3014 	ldr	r3, [fp, #-20]
    ac98:	e3530000 	cmp	r3, #0	; 0x0
    ac9c:	0a000005 	beq	acb8 <internal_waitpid+0x70>
    aca0:	e51b3014 	ldr	r3, [fp, #-20]
    aca4:	e5933000 	ldr	r3, [r3]
    aca8:	e5932000 	ldr	r2, [r3]
    acac:	e51b3020 	ldr	r3, [fp, #-32]
    acb0:	e1520003 	cmp	r2, r3
    acb4:	1afffff1 	bne	ac80 <internal_waitpid+0x38>
    acb8:	e51b3014 	ldr	r3, [fp, #-20]
    acbc:	e3530000 	cmp	r3, #0	; 0x0
    acc0:	1a000004 	bne	acd8 <internal_waitpid+0x90>
    acc4:	e28f2f43 	add	r2, pc, #268	; 0x10c
    acc8:	e8920006 	ldm	r2, {r1, r2}
    accc:	e50b1034 	str	r1, [fp, #-52]
    acd0:	e50b2030 	str	r2, [fp, #-48]
    acd4:	ea000038 	b	adbc <internal_waitpid+0x174>
    acd8:	e51b3014 	ldr	r3, [fp, #-20]
    acdc:	e5933000 	ldr	r3, [r3]
    ace0:	e5d33020 	ldrb	r3, [r3, #32]
    ace4:	e3530005 	cmp	r3, #5	; 0x5
    ace8:	0a00000f 	beq	ad2c <internal_waitpid+0xe4>
    acec:	e59f30ec 	ldr	r3, [pc, #236]	; ade0 <internal_waitpid+0x198>
    acf0:	e5932000 	ldr	r2, [r3]
    acf4:	e3a03004 	mov	r3, #4	; 0x4
    acf8:	e5c23020 	strb	r3, [r2, #32]
    acfc:	e59f30dc 	ldr	r3, [pc, #220]	; ade0 <internal_waitpid+0x198>
    ad00:	e5933000 	ldr	r3, [r3]
    ad04:	e5933008 	ldr	r3, [r3, #8]
    ad08:	e2832030 	add	r2, r3, #48	; 0x30
    ad0c:	e3a03001 	mov	r3, #1	; 0x1
    ad10:	e5823000 	str	r3, [r2]
    ad14:	ebfff9c8 	bl	943c <schedule>
    ad18:	e3a02000 	mov	r2, #0	; 0x0
    ad1c:	e3a03000 	mov	r3, #0	; 0x0
    ad20:	e50b2034 	str	r2, [fp, #-52]
    ad24:	e50b3030 	str	r3, [fp, #-48]
    ad28:	ea000023 	b	adbc <internal_waitpid+0x174>
    ad2c:	e51b3014 	ldr	r3, [fp, #-20]
    ad30:	e5933000 	ldr	r3, [r3]
    ad34:	e5933050 	ldr	r3, [r3, #80]
    ad38:	e50b3010 	str	r3, [fp, #-16]
    ad3c:	e51b3014 	ldr	r3, [fp, #-20]
    ad40:	e5933000 	ldr	r3, [r3]
    ad44:	e1a00003 	mov	r0, r3
    ad48:	ebfff879 	bl	8f34 <kfree>
    ad4c:	e51b3018 	ldr	r3, [fp, #-24]
    ad50:	e3530000 	cmp	r3, #0	; 0x0
    ad54:	1a000005 	bne	ad70 <internal_waitpid+0x128>
    ad58:	e59f3080 	ldr	r3, [pc, #128]	; ade0 <internal_waitpid+0x198>
    ad5c:	e5932000 	ldr	r2, [r3]
    ad60:	e51b3014 	ldr	r3, [fp, #-20]
    ad64:	e5933004 	ldr	r3, [r3, #4]
    ad68:	e5823024 	str	r3, [r2, #36]
    ad6c:	ea000003 	b	ad80 <internal_waitpid+0x138>
    ad70:	e51b3014 	ldr	r3, [fp, #-20]
    ad74:	e5932004 	ldr	r2, [r3, #4]
    ad78:	e51b3018 	ldr	r3, [fp, #-24]
    ad7c:	e5832004 	str	r2, [r3, #4]
    ad80:	e51b3014 	ldr	r3, [fp, #-20]
    ad84:	e5933004 	ldr	r3, [r3, #4]
    ad88:	e3530000 	cmp	r3, #0	; 0x0
    ad8c:	1a000003 	bne	ada0 <internal_waitpid+0x158>
    ad90:	e59f3048 	ldr	r3, [pc, #72]	; ade0 <internal_waitpid+0x198>
    ad94:	e5932000 	ldr	r2, [r3]
    ad98:	e51b3018 	ldr	r3, [fp, #-24]
    ad9c:	e5823028 	str	r3, [r2, #40]
    ada0:	e51b0014 	ldr	r0, [fp, #-20]
    ada4:	ebfff862 	bl	8f34 <kfree>
    ada8:	e51b3010 	ldr	r3, [fp, #-16]
    adac:	e1a01003 	mov	r1, r3
    adb0:	e1a02fc1 	asr	r2, r1, #31
    adb4:	e50b1034 	str	r1, [fp, #-52]
    adb8:	e50b2030 	str	r2, [fp, #-48]
    adbc:	e24b4034 	sub	r4, fp, #52	; 0x34
    adc0:	e8940018 	ldm	r4, {r3, r4}
    adc4:	e1a00003 	mov	r0, r3
    adc8:	e1a01004 	mov	r1, r4
    adcc:	e24bd008 	sub	sp, fp, #8	; 0x8
    add0:	e8bd4810 	pop	{r4, fp, lr}
    add4:	e12fff1e 	bx	lr
    add8:	0badca11 	.word	0x0badca11
    addc:	00000000 	.word	0x00000000
    ade0:	0001598c 	.word	0x0001598c

0000ade4 <internal_exit>:
    ade4:	e92d4810 	push	{r4, fp, lr}
    ade8:	e28db008 	add	fp, sp, #8	; 0x8
    adec:	e24dd02c 	sub	sp, sp, #44	; 0x2c
    adf0:	e50b0028 	str	r0, [fp, #-40]
    adf4:	e50b102c 	str	r1, [fp, #-44]
    adf8:	e50b2030 	str	r2, [fp, #-48]
    adfc:	e50b3034 	str	r3, [fp, #-52]
    ae00:	e3a03000 	mov	r3, #0	; 0x0
    ae04:	e50b3020 	str	r3, [fp, #-32]
    ae08:	e59f3168 	ldr	r3, [pc, #360]	; af78 <internal_exit+0x194>
    ae0c:	e5933000 	ldr	r3, [r3]
    ae10:	e50b301c 	str	r3, [fp, #-28]
    ae14:	e59f3160 	ldr	r3, [pc, #352]	; af7c <internal_exit+0x198>
    ae18:	e5933000 	ldr	r3, [r3]
    ae1c:	e5933004 	ldr	r3, [r3, #4]
    ae20:	e1a00003 	mov	r0, r3
    ae24:	ebfff961 	bl	93b0 <get_by_pid>
    ae28:	e1a03000 	mov	r3, r0
    ae2c:	e50b3018 	str	r3, [fp, #-24]
    ae30:	e59f3144 	ldr	r3, [pc, #324]	; af7c <internal_exit+0x198>
    ae34:	e5933000 	ldr	r3, [r3]
    ae38:	e5933018 	ldr	r3, [r3, #24]
    ae3c:	e50b3014 	str	r3, [fp, #-20]
    ae40:	ea000006 	b	ae60 <internal_exit+0x7c>
    ae44:	e51b3014 	ldr	r3, [fp, #-20]
    ae48:	e50b3010 	str	r3, [fp, #-16]
    ae4c:	e51b3014 	ldr	r3, [fp, #-20]
    ae50:	e5933008 	ldr	r3, [r3, #8]
    ae54:	e50b3014 	str	r3, [fp, #-20]
    ae58:	e51b0010 	ldr	r0, [fp, #-16]
    ae5c:	ebfff834 	bl	8f34 <kfree>
    ae60:	e51b3014 	ldr	r3, [fp, #-20]
    ae64:	e3530000 	cmp	r3, #0	; 0x0
    ae68:	1afffff5 	bne	ae44 <internal_exit+0x60>
    ae6c:	e59f3108 	ldr	r3, [pc, #264]	; af7c <internal_exit+0x198>
    ae70:	e5933000 	ldr	r3, [r3]
    ae74:	e593301c 	ldr	r3, [r3, #28]
    ae78:	e1a00003 	mov	r0, r3
    ae7c:	ebfff82c 	bl	8f34 <kfree>
    ae80:	ea000004 	b	ae98 <internal_exit+0xb4>
    ae84:	e51b301c 	ldr	r3, [fp, #-28]
    ae88:	e50b3020 	str	r3, [fp, #-32]
    ae8c:	e51b301c 	ldr	r3, [fp, #-28]
    ae90:	e5933004 	ldr	r3, [r3, #4]
    ae94:	e50b301c 	str	r3, [fp, #-28]
    ae98:	e51b301c 	ldr	r3, [fp, #-28]
    ae9c:	e5932000 	ldr	r2, [r3]
    aea0:	e59f30d4 	ldr	r3, [pc, #212]	; af7c <internal_exit+0x198>
    aea4:	e5933000 	ldr	r3, [r3]
    aea8:	e1520003 	cmp	r2, r3
    aeac:	1afffff4 	bne	ae84 <internal_exit+0xa0>
    aeb0:	e51b301c 	ldr	r3, [fp, #-28]
    aeb4:	e5932004 	ldr	r2, [r3, #4]
    aeb8:	e51b3020 	ldr	r3, [fp, #-32]
    aebc:	e5832004 	str	r2, [r3, #4]
    aec0:	e59f20b0 	ldr	r2, [pc, #176]	; af78 <internal_exit+0x194>
    aec4:	e51b3020 	ldr	r3, [fp, #-32]
    aec8:	e5823004 	str	r3, [r2, #4]
    aecc:	e51b001c 	ldr	r0, [fp, #-28]
    aed0:	ebfff817 	bl	8f34 <kfree>
    aed4:	e59f30a0 	ldr	r3, [pc, #160]	; af7c <internal_exit+0x198>
    aed8:	e5933000 	ldr	r3, [r3]
    aedc:	e5933024 	ldr	r3, [r3, #36]
    aee0:	e50b3020 	str	r3, [fp, #-32]
    aee4:	ea000009 	b	af10 <internal_exit+0x12c>
    aee8:	e51b3018 	ldr	r3, [fp, #-24]
    aeec:	e5932028 	ldr	r2, [r3, #40]
    aef0:	e51b3020 	ldr	r3, [fp, #-32]
    aef4:	e5823004 	str	r3, [r2, #4]
    aef8:	e51b2018 	ldr	r2, [fp, #-24]
    aefc:	e51b3020 	ldr	r3, [fp, #-32]
    af00:	e5823028 	str	r3, [r2, #40]
    af04:	e51b3020 	ldr	r3, [fp, #-32]
    af08:	e5933004 	ldr	r3, [r3, #4]
    af0c:	e50b3020 	str	r3, [fp, #-32]
    af10:	e51b3020 	ldr	r3, [fp, #-32]
    af14:	e3530000 	cmp	r3, #0	; 0x0
    af18:	1afffff2 	bne	aee8 <internal_exit+0x104>
    af1c:	e59f3058 	ldr	r3, [pc, #88]	; af7c <internal_exit+0x198>
    af20:	e5932000 	ldr	r2, [r3]
    af24:	e3a03005 	mov	r3, #5	; 0x5
    af28:	e5c23020 	strb	r3, [r2, #32]
    af2c:	e59f3048 	ldr	r3, [pc, #72]	; af7c <internal_exit+0x198>
    af30:	e5932000 	ldr	r2, [r3]
    af34:	e51b3028 	ldr	r3, [fp, #-40]
    af38:	e5823050 	str	r3, [r2, #80]
    af3c:	e51b3018 	ldr	r3, [fp, #-24]
    af40:	e5d33020 	ldrb	r3, [r3, #32]
    af44:	e3530004 	cmp	r3, #4	; 0x4
    af48:	1a000002 	bne	af58 <internal_exit+0x174>
    af4c:	e51b3018 	ldr	r3, [fp, #-24]
    af50:	e3a02000 	mov	r2, #0	; 0x0
    af54:	e5c32020 	strb	r2, [r3, #32]
    af58:	ebfff937 	bl	943c <schedule>
    af5c:	e3a03000 	mov	r3, #0	; 0x0
    af60:	e3a04000 	mov	r4, #0	; 0x0
    af64:	e1a00003 	mov	r0, r3
    af68:	e1a01004 	mov	r1, r4
    af6c:	e24bd008 	sub	sp, fp, #8	; 0x8
    af70:	e8bd4810 	pop	{r4, fp, lr}
    af74:	e12fff1e 	bx	lr
    af78:	00015984 	.word	0x00015984
    af7c:	0001598c 	.word	0x0001598c

0000af80 <internal_sleep>:
    af80:	e92d4810 	push	{r4, fp, lr}
    af84:	e28db008 	add	fp, sp, #8	; 0x8
    af88:	e24dd024 	sub	sp, sp, #36	; 0x24
    af8c:	e50b0020 	str	r0, [fp, #-32]
    af90:	e50b1024 	str	r1, [fp, #-36]
    af94:	e50b2028 	str	r2, [fp, #-40]
    af98:	e50b302c 	str	r3, [fp, #-44]
    af9c:	e3a00008 	mov	r0, #8	; 0x8
    afa0:	ebfff76a 	bl	8d50 <kmalloc>
    afa4:	e1a03000 	mov	r3, r0
    afa8:	e50b3018 	str	r3, [fp, #-24]
    afac:	ebfff464 	bl	8144 <GetTimeStamp>
    afb0:	e1a03000 	mov	r3, r0
    afb4:	e1a04001 	mov	r4, r1
    afb8:	e50b3014 	str	r3, [fp, #-20]
    afbc:	e50b4010 	str	r4, [fp, #-16]
    afc0:	e51b3018 	ldr	r3, [fp, #-24]
    afc4:	e3530000 	cmp	r3, #0	; 0x0
    afc8:	1a000000 	bne	afd0 <internal_sleep+0x50>
    afcc:	ebfff91a 	bl	943c <schedule>
    afd0:	e59f30ac 	ldr	r3, [pc, #172]	; b084 <internal_sleep+0x104>
    afd4:	e5932000 	ldr	r2, [r3]
    afd8:	e51b3018 	ldr	r3, [fp, #-24]
    afdc:	e5832000 	str	r2, [r3]
    afe0:	e51b2018 	ldr	r2, [fp, #-24]
    afe4:	e3a03000 	mov	r3, #0	; 0x0
    afe8:	e5823004 	str	r3, [r2, #4]
    afec:	e59f3090 	ldr	r3, [pc, #144]	; b084 <internal_sleep+0x104>
    aff0:	e5930000 	ldr	r0, [r3]
    aff4:	e51b3020 	ldr	r3, [fp, #-32]
    aff8:	e1a01003 	mov	r1, r3
    affc:	e3a02000 	mov	r2, #0	; 0x0
    b000:	e24b4014 	sub	r4, fp, #20	; 0x14
    b004:	e8940018 	ldm	r4, {r3, r4}
    b008:	e0933001 	adds	r3, r3, r1
    b00c:	e0a44002 	adc	r4, r4, r2
    b010:	e5803048 	str	r3, [r0, #72]
    b014:	e580404c 	str	r4, [r0, #76]
    b018:	e59f3064 	ldr	r3, [pc, #100]	; b084 <internal_sleep+0x104>
    b01c:	e5932000 	ldr	r2, [r3]
    b020:	e3a03001 	mov	r3, #1	; 0x1
    b024:	e5c23020 	strb	r3, [r2, #32]
    b028:	e59f3058 	ldr	r3, [pc, #88]	; b088 <internal_sleep+0x108>
    b02c:	e5933004 	ldr	r3, [r3, #4]
    b030:	e3530000 	cmp	r3, #0	; 0x0
    b034:	1a000003 	bne	b048 <internal_sleep+0xc8>
    b038:	e59f2048 	ldr	r2, [pc, #72]	; b088 <internal_sleep+0x108>
    b03c:	e51b3018 	ldr	r3, [fp, #-24]
    b040:	e5823000 	str	r3, [r2]
    b044:	ea000003 	b	b058 <internal_sleep+0xd8>
    b048:	e59f3038 	ldr	r3, [pc, #56]	; b088 <internal_sleep+0x108>
    b04c:	e5932004 	ldr	r2, [r3, #4]
    b050:	e51b3018 	ldr	r3, [fp, #-24]
    b054:	e5823004 	str	r3, [r2, #4]
    b058:	e59f2028 	ldr	r2, [pc, #40]	; b088 <internal_sleep+0x108>
    b05c:	e51b3018 	ldr	r3, [fp, #-24]
    b060:	e5823004 	str	r3, [r2, #4]
    b064:	ebfff8f4 	bl	943c <schedule>
    b068:	e3a03000 	mov	r3, #0	; 0x0
    b06c:	e3a04000 	mov	r4, #0	; 0x0
    b070:	e1a00003 	mov	r0, r3
    b074:	e1a01004 	mov	r1, r4
    b078:	e24bd008 	sub	sp, fp, #8	; 0x8
    b07c:	e8bd4810 	pop	{r4, fp, lr}
    b080:	e12fff1e 	bx	lr
    b084:	0001598c 	.word	0x0001598c
    b088:	0001597c 	.word	0x0001597c

0000b08c <internal_yield>:
    b08c:	e92d4810 	push	{r4, fp, lr}
    b090:	e28db008 	add	fp, sp, #8	; 0x8
    b094:	e24dd014 	sub	sp, sp, #20	; 0x14
    b098:	e50b0010 	str	r0, [fp, #-16]
    b09c:	e50b1014 	str	r1, [fp, #-20]
    b0a0:	e50b2018 	str	r2, [fp, #-24]
    b0a4:	e50b301c 	str	r3, [fp, #-28]
    b0a8:	ebfff8e3 	bl	943c <schedule>
    b0ac:	e3a03000 	mov	r3, #0	; 0x0
    b0b0:	e3a04000 	mov	r4, #0	; 0x0
    b0b4:	e1a00003 	mov	r0, r3
    b0b8:	e1a01004 	mov	r1, r4
    b0bc:	e24bd008 	sub	sp, fp, #8	; 0x8
    b0c0:	e8bd4810 	pop	{r4, fp, lr}
    b0c4:	e12fff1e 	bx	lr

0000b0c8 <osc_malloc>:
    b0c8:	e52db004 	push	{fp}		; (str fp, [sp, #-4]!)
    b0cc:	e28db000 	add	fp, sp, #0	; 0x0
    b0d0:	e24dd014 	sub	sp, sp, #20	; 0x14
    b0d4:	e50b0010 	str	r0, [fp, #-16]
    b0d8:	e51b3010 	ldr	r3, [fp, #-16]
    b0dc:	e3a00001 	mov	r0, #1	; 0x1
    b0e0:	e1a01003 	mov	r1, r3
    b0e4:	ef000000 	svc	0x00000000
    b0e8:	e1a03000 	mov	r3, r0
    b0ec:	e50b3008 	str	r3, [fp, #-8]
    b0f0:	e51b3008 	ldr	r3, [fp, #-8]
    b0f4:	e1a00003 	mov	r0, r3
    b0f8:	e28bd000 	add	sp, fp, #0	; 0x0
    b0fc:	e8bd0800 	pop	{fp}
    b100:	e12fff1e 	bx	lr

0000b104 <osc_free>:
    b104:	e52db004 	push	{fp}		; (str fp, [sp, #-4]!)
    b108:	e28db000 	add	fp, sp, #0	; 0x0
    b10c:	e24dd00c 	sub	sp, sp, #12	; 0xc
    b110:	e50b0008 	str	r0, [fp, #-8]
    b114:	e51b3008 	ldr	r3, [fp, #-8]
    b118:	e3a00002 	mov	r0, #2	; 0x2
    b11c:	e1a01003 	mov	r1, r3
    b120:	ef000000 	svc	0x00000000
    b124:	e28bd000 	add	sp, fp, #0	; 0x0
    b128:	e8bd0800 	pop	{fp}
    b12c:	e12fff1e 	bx	lr

0000b130 <osc_send>:
    b130:	e52db004 	push	{fp}		; (str fp, [sp, #-4]!)
    b134:	e28db000 	add	fp, sp, #0	; 0x0
    b138:	e24dd024 	sub	sp, sp, #36	; 0x24
    b13c:	e50b0010 	str	r0, [fp, #-16]
    b140:	e50b1014 	str	r1, [fp, #-20]
    b144:	e50b2018 	str	r2, [fp, #-24]
    b148:	e50b301c 	str	r3, [fp, #-28]
    b14c:	e51b1010 	ldr	r1, [fp, #-16]
    b150:	e51b2014 	ldr	r2, [fp, #-20]
    b154:	e51b3018 	ldr	r3, [fp, #-24]
    b158:	e3a00003 	mov	r0, #3	; 0x3
    b15c:	e1a01001 	mov	r1, r1
    b160:	e1a02002 	mov	r2, r2
    b164:	e1a03003 	mov	r3, r3
    b168:	e3a04001 	mov	r4, #1	; 0x1
    b16c:	ef000000 	svc	0x00000000
    b170:	e1a03000 	mov	r3, r0
    b174:	e50b3008 	str	r3, [fp, #-8]
    b178:	e51b3008 	ldr	r3, [fp, #-8]
    b17c:	e3530000 	cmp	r3, #0	; 0x0
    b180:	0a000002 	beq	b190 <osc_send+0x60>
    b184:	e51b3008 	ldr	r3, [fp, #-8]
    b188:	e50b3020 	str	r3, [fp, #-32]
    b18c:	ea000007 	b	b1b0 <osc_send+0x80>
    b190:	e51b201c 	ldr	r2, [fp, #-28]
    b194:	e59b3004 	ldr	r3, [fp, #4]
    b198:	e3a00004 	mov	r0, #4	; 0x4
    b19c:	e1a01002 	mov	r1, r2
    b1a0:	e1a02003 	mov	r2, r3
    b1a4:	ef000000 	svc	0x00000000
    b1a8:	e3a03000 	mov	r3, #0	; 0x0
    b1ac:	e50b3020 	str	r3, [fp, #-32]
    b1b0:	e51b3020 	ldr	r3, [fp, #-32]
    b1b4:	e1a00003 	mov	r0, r3
    b1b8:	e28bd000 	add	sp, fp, #0	; 0x0
    b1bc:	e8bd0800 	pop	{fp}
    b1c0:	e12fff1e 	bx	lr

0000b1c4 <osc_async_send>:
    b1c4:	e52db004 	push	{fp}		; (str fp, [sp, #-4]!)
    b1c8:	e28db000 	add	fp, sp, #0	; 0x0
    b1cc:	e24dd01c 	sub	sp, sp, #28	; 0x1c
    b1d0:	e50b0010 	str	r0, [fp, #-16]
    b1d4:	e50b1014 	str	r1, [fp, #-20]
    b1d8:	e50b2018 	str	r2, [fp, #-24]
    b1dc:	e51b1010 	ldr	r1, [fp, #-16]
    b1e0:	e51b2014 	ldr	r2, [fp, #-20]
    b1e4:	e51b3018 	ldr	r3, [fp, #-24]
    b1e8:	e3a00003 	mov	r0, #3	; 0x3
    b1ec:	e1a01001 	mov	r1, r1
    b1f0:	e1a02002 	mov	r2, r2
    b1f4:	e1a03003 	mov	r3, r3
    b1f8:	e3a04000 	mov	r4, #0	; 0x0
    b1fc:	ef000000 	svc	0x00000000
    b200:	e1a03000 	mov	r3, r0
    b204:	e50b3008 	str	r3, [fp, #-8]
    b208:	e51b3008 	ldr	r3, [fp, #-8]
    b20c:	e1a00003 	mov	r0, r3
    b210:	e28bd000 	add	sp, fp, #0	; 0x0
    b214:	e8bd0800 	pop	{fp}
    b218:	e12fff1e 	bx	lr

0000b21c <osc_receive>:
    b21c:	e52db004 	push	{fp}		; (str fp, [sp, #-4]!)
    b220:	e28db000 	add	fp, sp, #0	; 0x0
    b224:	e24dd014 	sub	sp, sp, #20	; 0x14
    b228:	e50b0008 	str	r0, [fp, #-8]
    b22c:	e50b100c 	str	r1, [fp, #-12]
    b230:	e50b2010 	str	r2, [fp, #-16]
    b234:	e51b1008 	ldr	r1, [fp, #-8]
    b238:	e51b200c 	ldr	r2, [fp, #-12]
    b23c:	e51b3010 	ldr	r3, [fp, #-16]
    b240:	e3a00005 	mov	r0, #5	; 0x5
    b244:	ef000000 	svc	0x00000000
    b248:	e3a00006 	mov	r0, #6	; 0x6
    b24c:	e1a01001 	mov	r1, r1
    b250:	e1a02002 	mov	r2, r2
    b254:	e1a03003 	mov	r3, r3
    b258:	ef000000 	svc	0x00000000
    b25c:	e3a03000 	mov	r3, #0	; 0x0
    b260:	e1a00003 	mov	r0, r3
    b264:	e28bd000 	add	sp, fp, #0	; 0x0
    b268:	e8bd0800 	pop	{fp}
    b26c:	e12fff1e 	bx	lr

0000b270 <osc_reply>:
    b270:	e52db004 	push	{fp}		; (str fp, [sp, #-4]!)
    b274:	e28db000 	add	fp, sp, #0	; 0x0
    b278:	e24dd01c 	sub	sp, sp, #28	; 0x1c
    b27c:	e50b0010 	str	r0, [fp, #-16]
    b280:	e50b1014 	str	r1, [fp, #-20]
    b284:	e50b2018 	str	r2, [fp, #-24]
    b288:	e51b1010 	ldr	r1, [fp, #-16]
    b28c:	e51b2014 	ldr	r2, [fp, #-20]
    b290:	e51b3018 	ldr	r3, [fp, #-24]
    b294:	e3a00007 	mov	r0, #7	; 0x7
    b298:	e1a01001 	mov	r1, r1
    b29c:	e1a02002 	mov	r2, r2
    b2a0:	e1a03003 	mov	r3, r3
    b2a4:	ef000000 	svc	0x00000000
    b2a8:	e1a03000 	mov	r3, r0
    b2ac:	e50b3008 	str	r3, [fp, #-8]
    b2b0:	e51b3008 	ldr	r3, [fp, #-8]
    b2b4:	e1a00003 	mov	r0, r3
    b2b8:	e28bd000 	add	sp, fp, #0	; 0x0
    b2bc:	e8bd0800 	pop	{fp}
    b2c0:	e12fff1e 	bx	lr

0000b2c4 <osc_getpid>:
    b2c4:	e52db004 	push	{fp}		; (str fp, [sp, #-4]!)
    b2c8:	e28db000 	add	fp, sp, #0	; 0x0
    b2cc:	e24dd00c 	sub	sp, sp, #12	; 0xc
    b2d0:	e3a00008 	mov	r0, #8	; 0x8
    b2d4:	ef000000 	svc	0x00000000
    b2d8:	e1a03000 	mov	r3, r0
    b2dc:	e50b3008 	str	r3, [fp, #-8]
    b2e0:	e51b3008 	ldr	r3, [fp, #-8]
    b2e4:	e1a00003 	mov	r0, r3
    b2e8:	e28bd000 	add	sp, fp, #0	; 0x0
    b2ec:	e8bd0800 	pop	{fp}
    b2f0:	e12fff1e 	bx	lr

0000b2f4 <osc_getppid>:
    b2f4:	e52db004 	push	{fp}		; (str fp, [sp, #-4]!)
    b2f8:	e28db000 	add	fp, sp, #0	; 0x0
    b2fc:	e24dd00c 	sub	sp, sp, #12	; 0xc
    b300:	e3a00009 	mov	r0, #9	; 0x9
    b304:	ef000000 	svc	0x00000000
    b308:	e1a03000 	mov	r3, r0
    b30c:	e50b3008 	str	r3, [fp, #-8]
    b310:	e51b3008 	ldr	r3, [fp, #-8]
    b314:	e1a00003 	mov	r0, r3
    b318:	e28bd000 	add	sp, fp, #0	; 0x0
    b31c:	e8bd0800 	pop	{fp}
    b320:	e12fff1e 	bx	lr

0000b324 <osc_create_process>:
    b324:	e52db004 	push	{fp}		; (str fp, [sp, #-4]!)
    b328:	e28db000 	add	fp, sp, #0	; 0x0
    b32c:	e24dd014 	sub	sp, sp, #20	; 0x14
    b330:	e50b0010 	str	r0, [fp, #-16]
    b334:	e51b3010 	ldr	r3, [fp, #-16]
    b338:	e3a0000a 	mov	r0, #10	; 0xa
    b33c:	e1a01003 	mov	r1, r3
    b340:	ef000000 	svc	0x00000000
    b344:	e1a03000 	mov	r3, r0
    b348:	e50b3008 	str	r3, [fp, #-8]
    b34c:	e51b3008 	ldr	r3, [fp, #-8]
    b350:	e1a00003 	mov	r0, r3
    b354:	e28bd000 	add	sp, fp, #0	; 0x0
    b358:	e8bd0800 	pop	{fp}
    b35c:	e12fff1e 	bx	lr

0000b360 <osc_waitpid>:
    b360:	e52db004 	push	{fp}		; (str fp, [sp, #-4]!)
    b364:	e28db000 	add	fp, sp, #0	; 0x0
    b368:	e24dd014 	sub	sp, sp, #20	; 0x14
    b36c:	e50b0010 	str	r0, [fp, #-16]
    b370:	e3a03001 	mov	r3, #1	; 0x1
    b374:	e50b3008 	str	r3, [fp, #-8]
    b378:	ea000007 	b	b39c <osc_waitpid+0x3c>
    b37c:	e51b3010 	ldr	r3, [fp, #-16]
    b380:	e3a0000b 	mov	r0, #11	; 0xb
    b384:	e1a01003 	mov	r1, r3
    b388:	ef000000 	svc	0x00000000
    b38c:	e1a03000 	mov	r3, r0
    b390:	e1a02001 	mov	r2, r1
    b394:	e50b300c 	str	r3, [fp, #-12]
    b398:	e50b2008 	str	r2, [fp, #-8]
    b39c:	e51b3008 	ldr	r3, [fp, #-8]
    b3a0:	e3530001 	cmp	r3, #1	; 0x1
    b3a4:	0afffff4 	beq	b37c <osc_waitpid+0x1c>
    b3a8:	e51b300c 	ldr	r3, [fp, #-12]
    b3ac:	e1a00003 	mov	r0, r3
    b3b0:	e28bd000 	add	sp, fp, #0	; 0x0
    b3b4:	e8bd0800 	pop	{fp}
    b3b8:	e12fff1e 	bx	lr

0000b3bc <osc_exit>:
    b3bc:	e52db004 	push	{fp}		; (str fp, [sp, #-4]!)
    b3c0:	e28db000 	add	fp, sp, #0	; 0x0
    b3c4:	e24dd00c 	sub	sp, sp, #12	; 0xc
    b3c8:	e50b0008 	str	r0, [fp, #-8]
    b3cc:	e51b3008 	ldr	r3, [fp, #-8]
    b3d0:	e3a0000c 	mov	r0, #12	; 0xc
    b3d4:	e1a01003 	mov	r1, r3
    b3d8:	ef000000 	svc	0x00000000
    b3dc:	e28bd000 	add	sp, fp, #0	; 0x0
    b3e0:	e8bd0800 	pop	{fp}
    b3e4:	e12fff1e 	bx	lr

0000b3e8 <osc_sleep>:
    b3e8:	e52db004 	push	{fp}		; (str fp, [sp, #-4]!)
    b3ec:	e28db000 	add	fp, sp, #0	; 0x0
    b3f0:	e24dd00c 	sub	sp, sp, #12	; 0xc
    b3f4:	e50b0008 	str	r0, [fp, #-8]
    b3f8:	e51b3008 	ldr	r3, [fp, #-8]
    b3fc:	e3a0000d 	mov	r0, #13	; 0xd
    b400:	e1a01003 	mov	r1, r3
    b404:	ef000000 	svc	0x00000000
    b408:	e28bd000 	add	sp, fp, #0	; 0x0
    b40c:	e8bd0800 	pop	{fp}
    b410:	e12fff1e 	bx	lr

0000b414 <osc_yield>:
    b414:	e52db004 	push	{fp}		; (str fp, [sp, #-4]!)
    b418:	e28db000 	add	fp, sp, #0	; 0x0
    b41c:	e3a0000e 	mov	r0, #14	; 0xe
    b420:	ef000000 	svc	0x00000000
    b424:	e28bd000 	add	sp, fp, #0	; 0x0
    b428:	e8bd0800 	pop	{fp}
    b42c:	e12fff1e 	bx	lr

0000b430 <osc_print_string>:
    b430:	e92d4800 	push	{fp, lr}
    b434:	e28db004 	add	fp, sp, #4	; 0x4
    b438:	e24dde11 	sub	sp, sp, #272	; 0x110
    b43c:	e50b0110 	str	r0, [fp, #-272]
    b440:	e50b1114 	str	r1, [fp, #-276]
    b444:	e3a03001 	mov	r3, #1	; 0x1
    b448:	e54b310c 	strb	r3, [fp, #-268]
    b44c:	e24b3f43 	sub	r3, fp, #268	; 0x10c
    b450:	e2833001 	add	r3, r3, #1	; 0x1
    b454:	e1a00003 	mov	r0, r3
    b458:	e51b1110 	ldr	r1, [fp, #-272]
    b45c:	e51b2114 	ldr	r2, [fp, #-276]
    b460:	ebfff54a 	bl	8990 <memcpy>
    b464:	e51b3114 	ldr	r3, [fp, #-276]
    b468:	e50b3008 	str	r3, [fp, #-8]
    b46c:	e24b3f43 	sub	r3, fp, #268	; 0x10c
    b470:	e3a00002 	mov	r0, #2	; 0x2
    b474:	e1a01003 	mov	r1, r3
    b478:	e3a02f42 	mov	r2, #264	; 0x108
    b47c:	ebffff50 	bl	b1c4 <osc_async_send>
    b480:	e24bd004 	sub	sp, fp, #4	; 0x4
    b484:	e8bd4800 	pop	{fp, lr}
    b488:	e12fff1e 	bx	lr

0000b48c <osc_print_line>:
    b48c:	e92d4800 	push	{fp, lr}
    b490:	e28db004 	add	fp, sp, #4	; 0x4
    b494:	e24dde11 	sub	sp, sp, #272	; 0x110
    b498:	e50b0110 	str	r0, [fp, #-272]
    b49c:	e50b1114 	str	r1, [fp, #-276]
    b4a0:	e3a03002 	mov	r3, #2	; 0x2
    b4a4:	e54b310c 	strb	r3, [fp, #-268]
    b4a8:	e24b3f43 	sub	r3, fp, #268	; 0x10c
    b4ac:	e2833001 	add	r3, r3, #1	; 0x1
    b4b0:	e1a00003 	mov	r0, r3
    b4b4:	e51b1110 	ldr	r1, [fp, #-272]
    b4b8:	e51b2114 	ldr	r2, [fp, #-276]
    b4bc:	ebfff533 	bl	8990 <memcpy>
    b4c0:	e51b3114 	ldr	r3, [fp, #-276]
    b4c4:	e50b3008 	str	r3, [fp, #-8]
    b4c8:	e24b3f43 	sub	r3, fp, #268	; 0x10c
    b4cc:	e3a00002 	mov	r0, #2	; 0x2
    b4d0:	e1a01003 	mov	r1, r3
    b4d4:	e3a02f42 	mov	r2, #264	; 0x108
    b4d8:	ebffff39 	bl	b1c4 <osc_async_send>
    b4dc:	e24bd004 	sub	sp, fp, #4	; 0x4
    b4e0:	e8bd4800 	pop	{fp, lr}
    b4e4:	e12fff1e 	bx	lr

0000b4e8 <osc_get_string>:
    b4e8:	e92d4800 	push	{fp, lr}
    b4ec:	e28db004 	add	fp, sp, #4	; 0x4
    b4f0:	e24ddf46 	sub	sp, sp, #280	; 0x118
    b4f4:	e50b0110 	str	r0, [fp, #-272]
    b4f8:	e50b1114 	str	r1, [fp, #-276]
    b4fc:	e3a03000 	mov	r3, #0	; 0x0
    b500:	e54b310c 	strb	r3, [fp, #-268]
    b504:	e51b3114 	ldr	r3, [fp, #-276]
    b508:	e5933000 	ldr	r3, [r3]
    b50c:	e50b3008 	str	r3, [fp, #-8]
    b510:	e24b2f43 	sub	r2, fp, #268	; 0x10c
    b514:	e24bcf43 	sub	ip, fp, #268	; 0x10c
    b518:	e51b3114 	ldr	r3, [fp, #-276]
    b51c:	e58d3000 	str	r3, [sp]
    b520:	e3a00002 	mov	r0, #2	; 0x2
    b524:	e1a01002 	mov	r1, r2
    b528:	e3a02f42 	mov	r2, #264	; 0x108
    b52c:	e1a0300c 	mov	r3, ip
    b530:	ebfffefe 	bl	b130 <osc_send>
    b534:	e51b2008 	ldr	r2, [fp, #-8]
    b538:	e24b3f43 	sub	r3, fp, #268	; 0x10c
    b53c:	e2833001 	add	r3, r3, #1	; 0x1
    b540:	e51b0110 	ldr	r0, [fp, #-272]
    b544:	e1a01003 	mov	r1, r3
    b548:	ebfff510 	bl	8990 <memcpy>
    b54c:	e51b2008 	ldr	r2, [fp, #-8]
    b550:	e51b3114 	ldr	r3, [fp, #-276]
    b554:	e5832000 	str	r2, [r3]
    b558:	e24bd004 	sub	sp, fp, #4	; 0x4
    b55c:	e8bd4800 	pop	{fp, lr}
    b560:	e12fff1e 	bx	lr

0000b564 <osc_drawstring>:
    b564:	e52db004 	push	{fp}		; (str fp, [sp, #-4]!)
    b568:	e28db000 	add	fp, sp, #0	; 0x0
    b56c:	e24dd00c 	sub	sp, sp, #12	; 0xc
    b570:	e50b0008 	str	r0, [fp, #-8]
    b574:	e50b100c 	str	r1, [fp, #-12]
    b578:	e51bc008 	ldr	ip, [fp, #-8]
    b57c:	e51b300c 	ldr	r3, [fp, #-12]
    b580:	e3a00010 	mov	r0, #16	; 0x10
    b584:	e1a0100c 	mov	r1, ip
    b588:	e1a02003 	mov	r2, r3
    b58c:	ef000000 	svc	0x00000000
    b590:	e28bd000 	add	sp, fp, #0	; 0x0
    b594:	e8bd0800 	pop	{fp}
    b598:	e12fff1e 	bx	lr

0000b59c <osc_drawstringln>:
    b59c:	e52db004 	push	{fp}		; (str fp, [sp, #-4]!)
    b5a0:	e28db000 	add	fp, sp, #0	; 0x0
    b5a4:	e24dd00c 	sub	sp, sp, #12	; 0xc
    b5a8:	e50b0008 	str	r0, [fp, #-8]
    b5ac:	e50b100c 	str	r1, [fp, #-12]
    b5b0:	e51bc008 	ldr	ip, [fp, #-8]
    b5b4:	e51b300c 	ldr	r3, [fp, #-12]
    b5b8:	e3a00011 	mov	r0, #17	; 0x11
    b5bc:	e1a0100c 	mov	r1, ip
    b5c0:	e1a02003 	mov	r2, r3
    b5c4:	ef000000 	svc	0x00000000
    b5c8:	e28bd000 	add	sp, fp, #0	; 0x0
    b5cc:	e8bd0800 	pop	{fp}
    b5d0:	e12fff1e 	bx	lr

0000b5d4 <osc_getstring>:
    b5d4:	e92d0830 	push	{r4, r5, fp}
    b5d8:	e28db008 	add	fp, sp, #8	; 0x8
    b5dc:	e24dd014 	sub	sp, sp, #20	; 0x14
    b5e0:	e50b0010 	str	r0, [fp, #-16]
    b5e4:	e50b1014 	str	r1, [fp, #-20]
    b5e8:	e50b2018 	str	r2, [fp, #-24]
    b5ec:	e51b5010 	ldr	r5, [fp, #-16]
    b5f0:	e51b4014 	ldr	r4, [fp, #-20]
    b5f4:	e51bc018 	ldr	ip, [fp, #-24]
    b5f8:	e3a00012 	mov	r0, #18	; 0x12
    b5fc:	e1a01005 	mov	r1, r5
    b600:	e1a02004 	mov	r2, r4
    b604:	e1a0300c 	mov	r3, ip
    b608:	ef000000 	svc	0x00000000
    b60c:	e24bd008 	sub	sp, fp, #8	; 0x8
    b610:	e8bd0830 	pop	{r4, r5, fp}
    b614:	e12fff1e 	bx	lr

0000b618 <osc_drawline>:
    b618:	e92d08f0 	push	{r4, r5, r6, r7, fp}
    b61c:	e28db010 	add	fp, sp, #16	; 0x10
    b620:	e24dd014 	sub	sp, sp, #20	; 0x14
    b624:	e50b0018 	str	r0, [fp, #-24]
    b628:	e50b101c 	str	r1, [fp, #-28]
    b62c:	e50b2020 	str	r2, [fp, #-32]
    b630:	e50b3024 	str	r3, [fp, #-36]
    b634:	e51b7018 	ldr	r7, [fp, #-24]
    b638:	e51b601c 	ldr	r6, [fp, #-28]
    b63c:	e51b5020 	ldr	r5, [fp, #-32]
    b640:	e51bc024 	ldr	ip, [fp, #-36]
    b644:	e3a00013 	mov	r0, #19	; 0x13
    b648:	e1a01007 	mov	r1, r7
    b64c:	e1a02006 	mov	r2, r6
    b650:	e1a03005 	mov	r3, r5
    b654:	e1a04005 	mov	r4, r5
    b658:	ef000000 	svc	0x00000000
    b65c:	e24bd010 	sub	sp, fp, #16	; 0x10
    b660:	e8bd08f0 	pop	{r4, r5, r6, r7, fp}
    b664:	e12fff1e 	bx	lr

0000b668 <osc_changeTextColor>:
    b668:	e52db004 	push	{fp}		; (str fp, [sp, #-4]!)
    b66c:	e28db000 	add	fp, sp, #0	; 0x0
    b670:	e24dd00c 	sub	sp, sp, #12	; 0xc
    b674:	e50b0008 	str	r0, [fp, #-8]
    b678:	e51b3008 	ldr	r3, [fp, #-8]
    b67c:	e3a00014 	mov	r0, #20	; 0x14
    b680:	e1a01003 	mov	r1, r3
    b684:	ef000000 	svc	0x00000000
    b688:	e28bd000 	add	sp, fp, #0	; 0x0
    b68c:	e8bd0800 	pop	{fp}
    b690:	e12fff1e 	bx	lr

0000b694 <osc_gettime>:
    b694:	e92d0810 	push	{r4, fp}
    b698:	e28db004 	add	fp, sp, #4	; 0x4
    b69c:	e24dd010 	sub	sp, sp, #16	; 0x10
    b6a0:	e3a0000f 	mov	r0, #15	; 0xf
    b6a4:	ef000000 	svc	0x00000000
    b6a8:	e1a03000 	mov	r3, r0
    b6ac:	e1a02001 	mov	r2, r1
    b6b0:	e50b3010 	str	r3, [fp, #-16]
    b6b4:	e50b2014 	str	r2, [fp, #-20]
    b6b8:	e51b3014 	ldr	r3, [fp, #-20]
    b6bc:	e1a01003 	mov	r1, r3
    b6c0:	e3a02000 	mov	r2, #0	; 0x0
    b6c4:	e1a04001 	mov	r4, r1
    b6c8:	e3a03000 	mov	r3, #0	; 0x0
    b6cc:	e51b2010 	ldr	r2, [fp, #-16]
    b6d0:	e1a01002 	mov	r1, r2
    b6d4:	e3a02000 	mov	r2, #0	; 0x0
    b6d8:	e0933001 	adds	r3, r3, r1
    b6dc:	e0a44002 	adc	r4, r4, r2
    b6e0:	e50b300c 	str	r3, [fp, #-12]
    b6e4:	e50b4008 	str	r4, [fp, #-8]
    b6e8:	e24b400c 	sub	r4, fp, #12	; 0xc
    b6ec:	e8940018 	ldm	r4, {r3, r4}
    b6f0:	e1a00003 	mov	r0, r3
    b6f4:	e1a01004 	mov	r1, r4
    b6f8:	e24bd004 	sub	sp, fp, #4	; 0x4
    b6fc:	e8bd0810 	pop	{r4, fp}
    b700:	e12fff1e 	bx	lr

0000b704 <syscalls_init>:
    b704:	e52db004 	push	{fp}		; (str fp, [sp, #-4]!)
    b708:	e28db000 	add	fp, sp, #0	; 0x0
    b70c:	e59f2100 	ldr	r2, [pc, #256]	; b814 <syscalls_init+0x110>
    b710:	e59f3100 	ldr	r3, [pc, #256]	; b818 <syscalls_init+0x114>
    b714:	e5823000 	str	r3, [r2]
    b718:	e59f20f4 	ldr	r2, [pc, #244]	; b814 <syscalls_init+0x110>
    b71c:	e59f30f8 	ldr	r3, [pc, #248]	; b81c <syscalls_init+0x118>
    b720:	e5823004 	str	r3, [r2, #4]
    b724:	e59f20e8 	ldr	r2, [pc, #232]	; b814 <syscalls_init+0x110>
    b728:	e59f30f0 	ldr	r3, [pc, #240]	; b820 <syscalls_init+0x11c>
    b72c:	e5823008 	str	r3, [r2, #8]
    b730:	e59f20dc 	ldr	r2, [pc, #220]	; b814 <syscalls_init+0x110>
    b734:	e59f30e8 	ldr	r3, [pc, #232]	; b824 <syscalls_init+0x120>
    b738:	e582300c 	str	r3, [r2, #12]
    b73c:	e59f20d0 	ldr	r2, [pc, #208]	; b814 <syscalls_init+0x110>
    b740:	e59f30e0 	ldr	r3, [pc, #224]	; b828 <syscalls_init+0x124>
    b744:	e5823010 	str	r3, [r2, #16]
    b748:	e59f20c4 	ldr	r2, [pc, #196]	; b814 <syscalls_init+0x110>
    b74c:	e59f30d8 	ldr	r3, [pc, #216]	; b82c <syscalls_init+0x128>
    b750:	e5823014 	str	r3, [r2, #20]
    b754:	e59f20b8 	ldr	r2, [pc, #184]	; b814 <syscalls_init+0x110>
    b758:	e59f30d0 	ldr	r3, [pc, #208]	; b830 <syscalls_init+0x12c>
    b75c:	e5823018 	str	r3, [r2, #24]
    b760:	e59f20ac 	ldr	r2, [pc, #172]	; b814 <syscalls_init+0x110>
    b764:	e59f30c8 	ldr	r3, [pc, #200]	; b834 <syscalls_init+0x130>
    b768:	e582301c 	str	r3, [r2, #28]
    b76c:	e59f20a0 	ldr	r2, [pc, #160]	; b814 <syscalls_init+0x110>
    b770:	e59f30c0 	ldr	r3, [pc, #192]	; b838 <syscalls_init+0x134>
    b774:	e5823020 	str	r3, [r2, #32]
    b778:	e59f2094 	ldr	r2, [pc, #148]	; b814 <syscalls_init+0x110>
    b77c:	e59f30b8 	ldr	r3, [pc, #184]	; b83c <syscalls_init+0x138>
    b780:	e5823024 	str	r3, [r2, #36]
    b784:	e59f2088 	ldr	r2, [pc, #136]	; b814 <syscalls_init+0x110>
    b788:	e59f30b0 	ldr	r3, [pc, #176]	; b840 <syscalls_init+0x13c>
    b78c:	e5823028 	str	r3, [r2, #40]
    b790:	e59f207c 	ldr	r2, [pc, #124]	; b814 <syscalls_init+0x110>
    b794:	e59f30a8 	ldr	r3, [pc, #168]	; b844 <syscalls_init+0x140>
    b798:	e582302c 	str	r3, [r2, #44]
    b79c:	e59f2070 	ldr	r2, [pc, #112]	; b814 <syscalls_init+0x110>
    b7a0:	e59f30a0 	ldr	r3, [pc, #160]	; b848 <syscalls_init+0x144>
    b7a4:	e5823030 	str	r3, [r2, #48]
    b7a8:	e59f2064 	ldr	r2, [pc, #100]	; b814 <syscalls_init+0x110>
    b7ac:	e59f3098 	ldr	r3, [pc, #152]	; b84c <syscalls_init+0x148>
    b7b0:	e5823034 	str	r3, [r2, #52]
    b7b4:	e59f2058 	ldr	r2, [pc, #88]	; b814 <syscalls_init+0x110>
    b7b8:	e59f3090 	ldr	r3, [pc, #144]	; b850 <syscalls_init+0x14c>
    b7bc:	e5823038 	str	r3, [r2, #56]
    b7c0:	e59f204c 	ldr	r2, [pc, #76]	; b814 <syscalls_init+0x110>
    b7c4:	e59f3088 	ldr	r3, [pc, #136]	; b854 <syscalls_init+0x150>
    b7c8:	e582303c 	str	r3, [r2, #60]
    b7cc:	e59f2040 	ldr	r2, [pc, #64]	; b814 <syscalls_init+0x110>
    b7d0:	e59f3080 	ldr	r3, [pc, #128]	; b858 <syscalls_init+0x154>
    b7d4:	e5823040 	str	r3, [r2, #64]
    b7d8:	e59f2034 	ldr	r2, [pc, #52]	; b814 <syscalls_init+0x110>
    b7dc:	e59f3078 	ldr	r3, [pc, #120]	; b85c <syscalls_init+0x158>
    b7e0:	e5823044 	str	r3, [r2, #68]
    b7e4:	e59f2028 	ldr	r2, [pc, #40]	; b814 <syscalls_init+0x110>
    b7e8:	e59f3070 	ldr	r3, [pc, #112]	; b860 <syscalls_init+0x15c>
    b7ec:	e5823048 	str	r3, [r2, #72]
    b7f0:	e59f201c 	ldr	r2, [pc, #28]	; b814 <syscalls_init+0x110>
    b7f4:	e59f3068 	ldr	r3, [pc, #104]	; b864 <syscalls_init+0x160>
    b7f8:	e582304c 	str	r3, [r2, #76]
    b7fc:	e59f2010 	ldr	r2, [pc, #16]	; b814 <syscalls_init+0x110>
    b800:	e59f3060 	ldr	r3, [pc, #96]	; b868 <syscalls_init+0x164>
    b804:	e5823050 	str	r3, [r2, #80]
    b808:	e28bd000 	add	sp, fp, #0	; 0x0
    b80c:	e8bd0800 	pop	{fp}
    b810:	e12fff1e 	bx	lr
    b814:	00015994 	.word	0x00015994
    b818:	0000a438 	.word	0x0000a438
    b81c:	0000a38c 	.word	0x0000a38c
    b820:	0000a3e0 	.word	0x0000a3e0
    b824:	00009e50 	.word	0x00009e50
    b828:	0000a050 	.word	0x0000a050
    b82c:	0000a100 	.word	0x0000a100
    b830:	0000a164 	.word	0x0000a164
    b834:	0000a270 	.word	0x0000a270
    b838:	0000a860 	.word	0x0000a860
    b83c:	0000a8a4 	.word	0x0000a8a4
    b840:	0000a924 	.word	0x0000a924
    b844:	0000ac48 	.word	0x0000ac48
    b848:	0000ade4 	.word	0x0000ade4
    b84c:	0000af80 	.word	0x0000af80
    b850:	0000b08c 	.word	0x0000b08c
    b854:	0000a460 	.word	0x0000a460
    b858:	0000a49c 	.word	0x0000a49c
    b85c:	0000a590 	.word	0x0000a590
    b860:	0000a698 	.word	0x0000a698
    b864:	0000a7d4 	.word	0x0000a7d4
    b868:	0000a820 	.word	0x0000a820

0000b86c <strcmp>:
    b86c:	e52db004 	push	{fp}		; (str fp, [sp, #-4]!)
    b870:	e28db000 	add	fp, sp, #0	; 0x0
    b874:	e24dd00c 	sub	sp, sp, #12	; 0xc
    b878:	e50b0008 	str	r0, [fp, #-8]
    b87c:	e50b100c 	str	r1, [fp, #-12]
    b880:	ea000005 	b	b89c <strcmp+0x30>
    b884:	e51b3008 	ldr	r3, [fp, #-8]
    b888:	e2833001 	add	r3, r3, #1	; 0x1
    b88c:	e50b3008 	str	r3, [fp, #-8]
    b890:	e51b300c 	ldr	r3, [fp, #-12]
    b894:	e2833001 	add	r3, r3, #1	; 0x1
    b898:	e50b300c 	str	r3, [fp, #-12]
    b89c:	e51b3008 	ldr	r3, [fp, #-8]
    b8a0:	e5d33000 	ldrb	r3, [r3]
    b8a4:	e3530000 	cmp	r3, #0	; 0x0
    b8a8:	0a000005 	beq	b8c4 <strcmp+0x58>
    b8ac:	e51b3008 	ldr	r3, [fp, #-8]
    b8b0:	e5d32000 	ldrb	r2, [r3]
    b8b4:	e51b300c 	ldr	r3, [fp, #-12]
    b8b8:	e5d33000 	ldrb	r3, [r3]
    b8bc:	e1520003 	cmp	r2, r3
    b8c0:	0affffef 	beq	b884 <strcmp+0x18>
    b8c4:	e51b3008 	ldr	r3, [fp, #-8]
    b8c8:	e5d33000 	ldrb	r3, [r3]
    b8cc:	e1a02003 	mov	r2, r3
    b8d0:	e51b300c 	ldr	r3, [fp, #-12]
    b8d4:	e5d33000 	ldrb	r3, [r3]
    b8d8:	e0633002 	rsb	r3, r3, r2
    b8dc:	e1a00003 	mov	r0, r3
    b8e0:	e28bd000 	add	sp, fp, #0	; 0x0
    b8e4:	e8bd0800 	pop	{fp}
    b8e8:	e12fff1e 	bx	lr

0000b8ec <printA>:
    b8ec:	e92d4800 	push	{fp, lr}
    b8f0:	e28db004 	add	fp, sp, #4	; 0x4
    b8f4:	e24dd008 	sub	sp, sp, #8	; 0x8
    b8f8:	e3a03041 	mov	r3, #65	; 0x41
    b8fc:	e14b30b6 	strh	r3, [fp, #-6]
    b900:	e24b3006 	sub	r3, fp, #6	; 0x6
    b904:	e1a00003 	mov	r0, r3
    b908:	e3a01001 	mov	r1, #1	; 0x1
    b90c:	ebffff14 	bl	b564 <osc_drawstring>
    b910:	e3a00064 	mov	r0, #100	; 0x64
    b914:	ebfffeb3 	bl	b3e8 <osc_sleep>
    b918:	eafffff8 	b	b900 <printA+0x14>

0000b91c <printB>:
    b91c:	e92d4800 	push	{fp, lr}
    b920:	e28db004 	add	fp, sp, #4	; 0x4
    b924:	e24dd008 	sub	sp, sp, #8	; 0x8
    b928:	e3a03042 	mov	r3, #66	; 0x42
    b92c:	e14b30b6 	strh	r3, [fp, #-6]
    b930:	e24b3006 	sub	r3, fp, #6	; 0x6
    b934:	e1a00003 	mov	r0, r3
    b938:	e3a01001 	mov	r1, #1	; 0x1
    b93c:	ebffff08 	bl	b564 <osc_drawstring>
    b940:	e3a00064 	mov	r0, #100	; 0x64
    b944:	ebfffea7 	bl	b3e8 <osc_sleep>
    b948:	eafffff8 	b	b930 <printB+0x14>

0000b94c <printC>:
    b94c:	e92d4800 	push	{fp, lr}
    b950:	e28db004 	add	fp, sp, #4	; 0x4
    b954:	e24dd008 	sub	sp, sp, #8	; 0x8
    b958:	e3a03043 	mov	r3, #67	; 0x43
    b95c:	e14b30b6 	strh	r3, [fp, #-6]
    b960:	e24b3006 	sub	r3, fp, #6	; 0x6
    b964:	e1a00003 	mov	r0, r3
    b968:	e3a01001 	mov	r1, #1	; 0x1
    b96c:	ebfffefc 	bl	b564 <osc_drawstring>
    b970:	e3a00064 	mov	r0, #100	; 0x64
    b974:	ebfffe9b 	bl	b3e8 <osc_sleep>
    b978:	eafffff8 	b	b960 <printC+0x14>

0000b97c <pidTalk>:
    b97c:	e92d4800 	push	{fp, lr}
    b980:	e28db004 	add	fp, sp, #4	; 0x4
    b984:	e24dd070 	sub	sp, sp, #112	; 0x70
    b988:	e59f312c 	ldr	r3, [pc, #300]	; babc <pidTalk+0x140>
    b98c:	e24b2023 	sub	r2, fp, #35	; 0x23
    b990:	e3a0c00f 	mov	ip, #15	; 0xf
    b994:	e1a00002 	mov	r0, r2
    b998:	e1a01003 	mov	r1, r3
    b99c:	e1a0200c 	mov	r2, ip
    b9a0:	ebfff3fa 	bl	8990 <memcpy>
    b9a4:	e59f3114 	ldr	r3, [pc, #276]	; bac0 <pidTalk+0x144>
    b9a8:	e24b2043 	sub	r2, fp, #67	; 0x43
    b9ac:	e3a0c020 	mov	ip, #32	; 0x20
    b9b0:	e1a00002 	mov	r0, r2
    b9b4:	e1a01003 	mov	r1, r3
    b9b8:	e1a0200c 	mov	r2, ip
    b9bc:	ebfff3f3 	bl	8990 <memcpy>
    b9c0:	e59f30fc 	ldr	r3, [pc, #252]	; bac4 <pidTalk+0x148>
    b9c4:	e24b2065 	sub	r2, fp, #101	; 0x65
    b9c8:	e3a0c022 	mov	ip, #34	; 0x22
    b9cc:	e1a00002 	mov	r0, r2
    b9d0:	e1a01003 	mov	r1, r3
    b9d4:	e1a0200c 	mov	r2, ip
    b9d8:	ebfff3ec 	bl	8990 <memcpy>
    b9dc:	e59f30e4 	ldr	r3, [pc, #228]	; bac8 <pidTalk+0x14c>
    b9e0:	e24b206e 	sub	r2, fp, #110	; 0x6e
    b9e4:	e3a0c009 	mov	ip, #9	; 0x9
    b9e8:	e1a00002 	mov	r0, r2
    b9ec:	e1a01003 	mov	r1, r3
    b9f0:	e1a0200c 	mov	r2, ip
    b9f4:	ebfff3e5 	bl	8990 <memcpy>
    b9f8:	e51b2008 	ldr	r2, [fp, #-8]
    b9fc:	e3a03064 	mov	r3, #100	; 0x64
    ba00:	e5823000 	str	r3, [r2]
    ba04:	e59f00c0 	ldr	r0, [pc, #192]	; bacc <pidTalk+0x150>
    ba08:	ebfffe45 	bl	b324 <osc_create_process>
    ba0c:	e1a03000 	mov	r3, r0
    ba10:	e50b3014 	str	r3, [fp, #-20]
    ba14:	e24b3043 	sub	r3, fp, #67	; 0x43
    ba18:	e1a00003 	mov	r0, r3
    ba1c:	e3a0101f 	mov	r1, #31	; 0x1f
    ba20:	ebfffecf 	bl	b564 <osc_drawstring>
    ba24:	e24b3023 	sub	r3, fp, #35	; 0x23
    ba28:	e1a00003 	mov	r0, r3
    ba2c:	e3a0100e 	mov	r1, #14	; 0xe
    ba30:	ebfffecb 	bl	b564 <osc_drawstring>
    ba34:	e59f0094 	ldr	r0, [pc, #148]	; bad0 <pidTalk+0x154>
    ba38:	e3a01001 	mov	r1, #1	; 0x1
    ba3c:	ebfffed6 	bl	b59c <osc_drawstringln>
    ba40:	e24b3023 	sub	r3, fp, #35	; 0x23
    ba44:	e51b0014 	ldr	r0, [fp, #-20]
    ba48:	e1a01003 	mov	r1, r3
    ba4c:	e3a0200e 	mov	r2, #14	; 0xe
    ba50:	ebfffddb 	bl	b1c4 <osc_async_send>
    ba54:	e3a00ffa 	mov	r0, #1000	; 0x3e8
    ba58:	ebfffe62 	bl	b3e8 <osc_sleep>
    ba5c:	e51b0010 	ldr	r0, [fp, #-16]
    ba60:	e51b100c 	ldr	r1, [fp, #-12]
    ba64:	e51b2008 	ldr	r2, [fp, #-8]
    ba68:	ebfffdeb 	bl	b21c <osc_receive>
    ba6c:	e59f005c 	ldr	r0, [pc, #92]	; bad0 <pidTalk+0x154>
    ba70:	e3a01001 	mov	r1, #1	; 0x1
    ba74:	ebfffec8 	bl	b59c <osc_drawstringln>
    ba78:	e24b3065 	sub	r3, fp, #101	; 0x65
    ba7c:	e1a00003 	mov	r0, r3
    ba80:	e3a01021 	mov	r1, #33	; 0x21
    ba84:	ebfffeb6 	bl	b564 <osc_drawstring>
    ba88:	e51b3008 	ldr	r3, [fp, #-8]
    ba8c:	e5933000 	ldr	r3, [r3]
    ba90:	e51b000c 	ldr	r0, [fp, #-12]
    ba94:	e1a01003 	mov	r1, r3
    ba98:	ebfffeb1 	bl	b564 <osc_drawstring>
    ba9c:	e59f002c 	ldr	r0, [pc, #44]	; bad0 <pidTalk+0x154>
    baa0:	e3a01001 	mov	r1, #1	; 0x1
    baa4:	ebfffebc 	bl	b59c <osc_drawstringln>
    baa8:	e24b306e 	sub	r3, fp, #110	; 0x6e
    baac:	e1a00003 	mov	r0, r3
    bab0:	e3a01008 	mov	r1, #8	; 0x8
    bab4:	ebfffeb8 	bl	b59c <osc_drawstringln>
    bab8:	eafffffe 	b	bab8 <pidTalk+0x13c>
    babc:	00012d94 	.word	0x00012d94
    bac0:	00012da4 	.word	0x00012da4
    bac4:	00012dc4 	.word	0x00012dc4
    bac8:	00012de8 	.word	0x00012de8
    bacc:	0000bad4 	.word	0x0000bad4
    bad0:	00012d90 	.word	0x00012d90

0000bad4 <pidTalkChild>:
    bad4:	e92d4800 	push	{fp, lr}
    bad8:	e28db004 	add	fp, sp, #4	; 0x4
    badc:	e24dd080 	sub	sp, sp, #128	; 0x80
    bae0:	e59f30b8 	ldr	r3, [pc, #184]	; bba0 <pidTalkChild+0xcc>
    bae4:	e24b2031 	sub	r2, fp, #49	; 0x31
    bae8:	e3a0c021 	mov	ip, #33	; 0x21
    baec:	e1a00002 	mov	r0, r2
    baf0:	e1a01003 	mov	r1, r3
    baf4:	e1a0200c 	mov	r2, ip
    baf8:	ebfff3a4 	bl	8990 <memcpy>
    bafc:	e59f30a0 	ldr	r3, [pc, #160]	; bba4 <pidTalkChild+0xd0>
    bb00:	e24b2073 	sub	r2, fp, #115	; 0x73
    bb04:	e3a0c042 	mov	ip, #66	; 0x42
    bb08:	e1a00002 	mov	r0, r2
    bb0c:	e1a01003 	mov	r1, r3
    bb10:	e1a0200c 	mov	r2, ip
    bb14:	ebfff39d 	bl	8990 <memcpy>
    bb18:	e59f3088 	ldr	r3, [pc, #136]	; bba8 <pidTalkChild+0xd4>
    bb1c:	e24bc080 	sub	ip, fp, #128	; 0x80
    bb20:	e893000f 	ldm	r3, {r0, r1, r2, r3}
    bb24:	e8ac0007 	stmia	ip!, {r0, r1, r2}
    bb28:	e5cc3000 	strb	r3, [ip]
    bb2c:	e51b2008 	ldr	r2, [fp, #-8]
    bb30:	e3a03064 	mov	r3, #100	; 0x64
    bb34:	e5823000 	str	r3, [r2]
    bb38:	e51b0010 	ldr	r0, [fp, #-16]
    bb3c:	e51b100c 	ldr	r1, [fp, #-12]
    bb40:	e51b2008 	ldr	r2, [fp, #-8]
    bb44:	ebfffdb4 	bl	b21c <osc_receive>
    bb48:	e24b3031 	sub	r3, fp, #49	; 0x31
    bb4c:	e1a00003 	mov	r0, r3
    bb50:	e3a01020 	mov	r1, #32	; 0x20
    bb54:	ebfffe82 	bl	b564 <osc_drawstring>
    bb58:	e51b3008 	ldr	r3, [fp, #-8]
    bb5c:	e5933000 	ldr	r3, [r3]
    bb60:	e51b000c 	ldr	r0, [fp, #-12]
    bb64:	e1a01003 	mov	r1, r3
    bb68:	ebfffe7d 	bl	b564 <osc_drawstring>
    bb6c:	e59f0038 	ldr	r0, [pc, #56]	; bbac <pidTalkChild+0xd8>
    bb70:	e3a01001 	mov	r1, #1	; 0x1
    bb74:	ebfffe88 	bl	b59c <osc_drawstringln>
    bb78:	e24b3073 	sub	r3, fp, #115	; 0x73
    bb7c:	e1a00003 	mov	r0, r3
    bb80:	e3a01041 	mov	r1, #65	; 0x41
    bb84:	ebfffe84 	bl	b59c <osc_drawstringln>
    bb88:	e24b3080 	sub	r3, fp, #128	; 0x80
    bb8c:	e3a00002 	mov	r0, #2	; 0x2
    bb90:	e1a01003 	mov	r1, r3
    bb94:	e3a0200c 	mov	r2, #12	; 0xc
    bb98:	ebfffd89 	bl	b1c4 <osc_async_send>
    bb9c:	eafffffe 	b	bb9c <pidTalkChild+0xc8>
    bba0:	00012df4 	.word	0x00012df4
    bba4:	00012e18 	.word	0x00012e18
    bba8:	00012e5c 	.word	0x00012e5c
    bbac:	00012d90 	.word	0x00012d90

0000bbb0 <lineDraw>:
    bbb0:	e92d4800 	push	{fp, lr}
    bbb4:	e28db004 	add	fp, sp, #4	; 0x4
    bbb8:	e24dd028 	sub	sp, sp, #40	; 0x28
    bbbc:	e3a03000 	mov	r3, #0	; 0x0
    bbc0:	e50b3018 	str	r3, [fp, #-24]
    bbc4:	e3a03000 	mov	r3, #0	; 0x0
    bbc8:	e50b3014 	str	r3, [fp, #-20]
    bbcc:	e3a03000 	mov	r3, #0	; 0x0
    bbd0:	e50b3010 	str	r3, [fp, #-16]
    bbd4:	e3a03000 	mov	r3, #0	; 0x0
    bbd8:	e50b300c 	str	r3, [fp, #-12]
    bbdc:	e3a03000 	mov	r3, #0	; 0x0
    bbe0:	e50b3008 	str	r3, [fp, #-8]
    bbe4:	e51b1008 	ldr	r1, [fp, #-8]
    bbe8:	e3a0310e 	mov	r3, #-2147483645	; 0x80000003
    bbec:	e2833602 	add	r3, r3, #2097152	; 0x200000
    bbf0:	e2833b02 	add	r3, r3, #2048	; 0x800
    bbf4:	e0c32391 	smull	r2, r3, r1, r3
    bbf8:	e0833001 	add	r3, r3, r1
    bbfc:	e1a024c3 	asr	r2, r3, #9
    bc00:	e1a03fc1 	asr	r3, r1, #31
    bc04:	e0632002 	rsb	r2, r3, r2
    bc08:	e1a03002 	mov	r3, r2
    bc0c:	e1a03503 	lsl	r3, r3, #10
    bc10:	e0623003 	rsb	r3, r2, r3
    bc14:	e0633001 	rsb	r3, r3, r1
    bc18:	e50b3018 	str	r3, [fp, #-24]
    bc1c:	e51b1008 	ldr	r1, [fp, #-8]
    bc20:	e59f3218 	ldr	r3, [pc, #536]	; be40 <lineDraw+0x290>
    bc24:	e0c32391 	smull	r2, r3, r1, r3
    bc28:	e1a023c3 	asr	r2, r3, #7
    bc2c:	e1a03fc1 	asr	r3, r1, #31
    bc30:	e0630002 	rsb	r0, r3, r2
    bc34:	e1a03000 	mov	r3, r0
    bc38:	e1a02103 	lsl	r2, r3, #2
    bc3c:	e1a03402 	lsl	r3, r2, #8
    bc40:	e0623003 	rsb	r3, r2, r3
    bc44:	e0603003 	rsb	r3, r0, r3
    bc48:	e0633001 	rsb	r3, r3, r1
    bc4c:	e50b3010 	str	r3, [fp, #-16]
    bc50:	e51b1008 	ldr	r1, [fp, #-8]
    bc54:	e59f31e8 	ldr	r3, [pc, #488]	; be44 <lineDraw+0x294>
    bc58:	e0c32391 	smull	r2, r3, r1, r3
    bc5c:	e1a02443 	asr	r2, r3, #8
    bc60:	e1a03fc1 	asr	r3, r1, #31
    bc64:	e0630002 	rsb	r0, r3, r2
    bc68:	e1a03000 	mov	r3, r0
    bc6c:	e1a02403 	lsl	r2, r3, #8
    bc70:	e1a03102 	lsl	r3, r2, #2
    bc74:	e0623003 	rsb	r3, r2, r3
    bc78:	e0603003 	rsb	r3, r0, r3
    bc7c:	e0633001 	rsb	r3, r3, r1
    bc80:	e50b3014 	str	r3, [fp, #-20]
    bc84:	e51b1008 	ldr	r1, [fp, #-8]
    bc88:	e59f31b8 	ldr	r3, [pc, #440]	; be48 <lineDraw+0x298>
    bc8c:	e0c32391 	smull	r2, r3, r1, r3
    bc90:	e0833001 	add	r3, r3, r1
    bc94:	e1a024c3 	asr	r2, r3, #9
    bc98:	e1a03fc1 	asr	r3, r1, #31
    bc9c:	e0630002 	rsb	r0, r3, r2
    bca0:	e1a03000 	mov	r3, r0
    bca4:	e1a03083 	lsl	r3, r3, #1
    bca8:	e1a02103 	lsl	r2, r3, #2
    bcac:	e0632002 	rsb	r2, r3, r2
    bcb0:	e1a03382 	lsl	r3, r2, #7
    bcb4:	e0623003 	rsb	r3, r2, r3
    bcb8:	e0833000 	add	r3, r3, r0
    bcbc:	e0633001 	rsb	r3, r3, r1
    bcc0:	e50b300c 	str	r3, [fp, #-12]
    bcc4:	ebfffe72 	bl	b694 <osc_gettime>
    bcc8:	e1a01000 	mov	r1, r0
    bccc:	e59f3178 	ldr	r3, [pc, #376]	; be4c <lineDraw+0x29c>
    bcd0:	e0c32391 	smull	r2, r3, r1, r3
    bcd4:	e1a025c3 	asr	r2, r3, #11
    bcd8:	e1a03fc1 	asr	r3, r1, #31
    bcdc:	e0633002 	rsb	r3, r3, r2
    bce0:	e50b3028 	str	r3, [fp, #-40]
    bce4:	e51b3028 	ldr	r3, [fp, #-40]
    bce8:	e1a03103 	lsl	r3, r3, #2
    bcec:	e1a02103 	lsl	r2, r3, #2
    bcf0:	e0833002 	add	r3, r3, r2
    bcf4:	e51b2028 	ldr	r2, [fp, #-40]
    bcf8:	e0623003 	rsb	r3, r2, r3
    bcfc:	e1a03203 	lsl	r3, r3, #4
    bd00:	e51b2028 	ldr	r2, [fp, #-40]
    bd04:	e0623003 	rsb	r3, r2, r3
    bd08:	e1a03103 	lsl	r3, r3, #2
    bd0c:	e51b2028 	ldr	r2, [fp, #-40]
    bd10:	e0623003 	rsb	r3, r2, r3
    bd14:	e1a03183 	lsl	r3, r3, #3
    bd18:	e51b2028 	ldr	r2, [fp, #-40]
    bd1c:	e0623003 	rsb	r3, r2, r3
    bd20:	e1a03083 	lsl	r3, r3, #1
    bd24:	e0633001 	rsb	r3, r3, r1
    bd28:	e50b3028 	str	r3, [fp, #-40]
    bd2c:	e51b3008 	ldr	r3, [fp, #-8]
    bd30:	e51b2028 	ldr	r2, [fp, #-40]
    bd34:	e0833002 	add	r3, r3, r2
    bd38:	e50b3008 	str	r3, [fp, #-8]
    bd3c:	e51b2008 	ldr	r2, [fp, #-8]
    bd40:	e3a035f9 	mov	r3, #1044381696	; 0x3e400000
    bd44:	e2833986 	add	r3, r3, #2195456	; 0x218000
    bd48:	e2833e49 	add	r3, r3, #1168	; 0x490
    bd4c:	e1520003 	cmp	r2, r3
    bd50:	da000011 	ble	bd9c <lineDraw+0x1ec>
    bd54:	ebfffe4e 	bl	b694 <osc_gettime>
    bd58:	e1a01000 	mov	r1, r0
    bd5c:	e3a033de 	mov	r3, #2013265923	; 0x78000003
    bd60:	e28338f3 	add	r3, r3, #15925248	; 0xf30000
    bd64:	e2833c33 	add	r3, r3, #13056	; 0x3300
    bd68:	e0c32391 	smull	r2, r3, r1, r3
    bd6c:	e1a026c3 	asr	r2, r3, #13
    bd70:	e1a03fc1 	asr	r3, r1, #31
    bd74:	e0630002 	rsb	r0, r3, r2
    bd78:	e1a03000 	mov	r3, r0
    bd7c:	e1a02103 	lsl	r2, r3, #2
    bd80:	e1a03202 	lsl	r3, r2, #4
    bd84:	e0822003 	add	r2, r2, r3
    bd88:	e1a03402 	lsl	r3, r2, #8
    bd8c:	e0623003 	rsb	r3, r2, r3
    bd90:	e0603003 	rsb	r3, r0, r3
    bd94:	e0633001 	rsb	r3, r3, r1
    bd98:	e50b3008 	str	r3, [fp, #-8]
    bd9c:	e51b1008 	ldr	r1, [fp, #-8]
    bda0:	e59f30a8 	ldr	r3, [pc, #168]	; be50 <lineDraw+0x2a0>
    bda4:	e0c32391 	smull	r2, r3, r1, r3
    bda8:	e1a020c3 	asr	r2, r3, #1
    bdac:	e1a03fc1 	asr	r3, r1, #31
    bdb0:	e0633002 	rsb	r3, r3, r2
    bdb4:	e50b3024 	str	r3, [fp, #-36]
    bdb8:	e51b3024 	ldr	r3, [fp, #-36]
    bdbc:	e1a03103 	lsl	r3, r3, #2
    bdc0:	e51b2024 	ldr	r2, [fp, #-36]
    bdc4:	e0833002 	add	r3, r3, r2
    bdc8:	e0633001 	rsb	r3, r3, r1
    bdcc:	e50b3024 	str	r3, [fp, #-36]
    bdd0:	e51b3024 	ldr	r3, [fp, #-36]
    bdd4:	e3530000 	cmp	r3, #0	; 0x0
    bdd8:	0a000010 	beq	be20 <lineDraw+0x270>
    bddc:	e51b1008 	ldr	r1, [fp, #-8]
    bde0:	e3a03902 	mov	r3, #32768	; 0x8000
    bde4:	e2833106 	add	r3, r3, #-2147483647	; 0x80000001
    bde8:	e0c32391 	smull	r2, r3, r1, r3
    bdec:	e0833001 	add	r3, r3, r1
    bdf0:	e1a027c3 	asr	r2, r3, #15
    bdf4:	e1a03fc1 	asr	r3, r1, #31
    bdf8:	e0633002 	rsb	r3, r3, r2
    bdfc:	e50b3020 	str	r3, [fp, #-32]
    be00:	e51b3020 	ldr	r3, [fp, #-32]
    be04:	e1a03803 	lsl	r3, r3, #16
    be08:	e51b2020 	ldr	r2, [fp, #-32]
    be0c:	e0623003 	rsb	r3, r2, r3
    be10:	e0633001 	rsb	r3, r3, r1
    be14:	e50b3020 	str	r3, [fp, #-32]
    be18:	e51b0020 	ldr	r0, [fp, #-32]
    be1c:	ebfffe11 	bl	b668 <osc_changeTextColor>
    be20:	e51b0018 	ldr	r0, [fp, #-24]
    be24:	e51b1014 	ldr	r1, [fp, #-20]
    be28:	e51b2010 	ldr	r2, [fp, #-16]
    be2c:	e51b300c 	ldr	r3, [fp, #-12]
    be30:	ebfffdf8 	bl	b618 <osc_drawline>
    be34:	e3a0000a 	mov	r0, #10	; 0xa
    be38:	ebfffd6a 	bl	b3e8 <osc_sleep>
    be3c:	eaffff68 	b	bbe4 <lineDraw+0x34>
    be40:	2028323f 	.word	0x2028323f
    be44:	5571d09b 	.word	0x5571d09b
    be48:	abc8f9a1 	.word	0xabc8f9a1
    be4c:	1b0fb963 	.word	0x1b0fb963
    be50:	66666667 	.word	0x66666667

0000be54 <KeyboardDetached>:
    be54:	e5903404 	ldr	r3, [r0, #1028]
    be58:	e5d32010 	ldrb	r2, [r3, #16]
    be5c:	e5d31011 	ldrb	r1, [r3, #17]
    be60:	e5d3c012 	ldrb	ip, [r3, #18]
    be64:	e1821401 	orr	r1, r2, r1, lsl #8
    be68:	e5d32013 	ldrb	r2, [r3, #19]
    be6c:	e181380c 	orr	r3, r1, ip, lsl #16
    be70:	e1933c02 	orrs	r3, r3, r2, lsl #24
    be74:	012fff1e 	bxeq	lr
    be78:	e5d31009 	ldrb	r1, [r3, #9]
    be7c:	e5d32008 	ldrb	r2, [r3, #8]
    be80:	e5d3c00a 	ldrb	ip, [r3, #10]
    be84:	e1822401 	orr	r2, r2, r1, lsl #8
    be88:	e5d3100b 	ldrb	r1, [r3, #11]
    be8c:	e182280c 	orr	r2, r2, ip, lsl #16
    be90:	e59f3030 	ldr	r3, [pc, #48]	; bec8 <KeyboardDetached+0x74>
    be94:	e1822c01 	orr	r2, r2, r1, lsl #24
    be98:	e793c102 	ldr	ip, [r3, r2, lsl #2]
    be9c:	e5901000 	ldr	r1, [r0]
    bea0:	e15c0001 	cmp	ip, r1
    bea4:	112fff1e 	bxne	lr
    bea8:	e5930010 	ldr	r0, [r3, #16]
    beac:	e3a01000 	mov	r1, #0	; 0x0
    beb0:	e2400001 	sub	r0, r0, #1	; 0x1
    beb4:	e7831102 	str	r1, [r3, r2, lsl #2]
    beb8:	e5830010 	str	r0, [r3, #16]
    bebc:	e59f3008 	ldr	r3, [pc, #8]	; becc <KeyboardDetached+0x78>
    bec0:	e7831102 	str	r1, [r3, r2, lsl #2]
    bec4:	e12fff1e 	bx	lr
    bec8:	000159f8 	.word	0x000159f8
    becc:	00015a0c 	.word	0x00015a0c

0000bed0 <KeyboardDeallocate>:
    bed0:	e92d4010 	push	{r4, lr}
    bed4:	e5903404 	ldr	r3, [r0, #1028]
    bed8:	e1a04000 	mov	r4, r0
    bedc:	e5d32010 	ldrb	r2, [r3, #16]
    bee0:	e5d30011 	ldrb	r0, [r3, #17]
    bee4:	e5d31012 	ldrb	r1, [r3, #18]
    bee8:	e1822400 	orr	r2, r2, r0, lsl #8
    beec:	e5d30013 	ldrb	r0, [r3, #19]
    bef0:	e1822801 	orr	r2, r2, r1, lsl #16
    bef4:	e1920c00 	orrs	r0, r2, r0, lsl #24
    bef8:	0a000007 	beq	bf1c <KeyboardDeallocate+0x4c>
    befc:	eb0004ea 	bl	d2ac <MemoryDeallocate>
    bf00:	e5943404 	ldr	r3, [r4, #1028]
    bf04:	e3a02000 	mov	r2, #0	; 0x0
    bf08:	e5c32010 	strb	r2, [r3, #16]
    bf0c:	e5c32011 	strb	r2, [r3, #17]
    bf10:	e5c32012 	strb	r2, [r3, #18]
    bf14:	e5c32013 	strb	r2, [r3, #19]
    bf18:	e5943404 	ldr	r3, [r4, #1028]
    bf1c:	e3a02000 	mov	r2, #0	; 0x0
    bf20:	e5c32018 	strb	r2, [r3, #24]
    bf24:	e5c32019 	strb	r2, [r3, #25]
    bf28:	e5c3201a 	strb	r2, [r3, #26]
    bf2c:	e5c3201b 	strb	r2, [r3, #27]
    bf30:	e5c32014 	strb	r2, [r3, #20]
    bf34:	e5c32015 	strb	r2, [r3, #21]
    bf38:	e5c32016 	strb	r2, [r3, #22]
    bf3c:	e5c32017 	strb	r2, [r3, #23]
    bf40:	e8bd4010 	pop	{r4, lr}
    bf44:	e12fff1e 	bx	lr

0000bf48 <KeyboardIndex>:
    bf48:	e2501000 	subs	r1, r0, #0	; 0x0
    bf4c:	1a000001 	bne	bf58 <KeyboardIndex+0x10>
    bf50:	e3e00000 	mvn	r0, #0	; 0x0
    bf54:	e12fff1e 	bx	lr
    bf58:	e59f303c 	ldr	r3, [pc, #60]	; bf9c <KeyboardIndex+0x54>
    bf5c:	e593c010 	ldr	ip, [r3, #16]
    bf60:	e35c0000 	cmp	ip, #0	; 0x0
    bf64:	0afffff9 	beq	bf50 <KeyboardIndex+0x8>
    bf68:	e5932000 	ldr	r2, [r3]
    bf6c:	e1510002 	cmp	r1, r2
    bf70:	e3a00000 	mov	r0, #0	; 0x0
    bf74:	1a000003 	bne	bf88 <KeyboardIndex+0x40>
    bf78:	ea000006 	b	bf98 <KeyboardIndex+0x50>
    bf7c:	e5b32004 	ldr	r2, [r3, #4]!
    bf80:	e1510002 	cmp	r1, r2
    bf84:	012fff1e 	bxeq	lr
    bf88:	e2800001 	add	r0, r0, #1	; 0x1
    bf8c:	e150000c 	cmp	r0, ip
    bf90:	1afffff9 	bne	bf7c <KeyboardIndex+0x34>
    bf94:	eaffffed 	b	bf50 <KeyboardIndex+0x8>
    bf98:	e12fff1e 	bx	lr
    bf9c:	000159f8 	.word	0x000159f8

0000bfa0 <KeyboardGetAddress>:
    bfa0:	e59f203c 	ldr	r2, [pc, #60]	; bfe4 <KeyboardGetAddress+0x44>
    bfa4:	e5923010 	ldr	r3, [r2, #16]
    bfa8:	e1530000 	cmp	r3, r0
    bfac:	3a000009 	bcc	bfd8 <KeyboardGetAddress+0x38>
    bfb0:	e2423004 	sub	r3, r2, #4	; 0x4
    bfb4:	e282100c 	add	r1, r2, #12	; 0xc
    bfb8:	e5b32004 	ldr	r2, [r3, #4]!
    bfbc:	e3520000 	cmp	r2, #0	; 0x0
    bfc0:	0a000002 	beq	bfd0 <KeyboardGetAddress+0x30>
    bfc4:	e3500000 	cmp	r0, #0	; 0x0
    bfc8:	e2400001 	sub	r0, r0, #1	; 0x1
    bfcc:	0a000002 	beq	bfdc <KeyboardGetAddress+0x3c>
    bfd0:	e1530001 	cmp	r3, r1
    bfd4:	1afffff7 	bne	bfb8 <KeyboardGetAddress+0x18>
    bfd8:	e3a02000 	mov	r2, #0	; 0x0
    bfdc:	e1a00002 	mov	r0, r2
    bfe0:	e12fff1e 	bx	lr
    bfe4:	000159f8 	.word	0x000159f8

0000bfe8 <KeyboardScan>:
    bfe8:	e92d45f8 	push	{r3, r4, r5, r6, r7, r8, sl, lr}
    bfec:	e59f66a8 	ldr	r6, [pc, #1704]	; c69c <KeyboardScan+0x6b4>
    bff0:	e5963010 	ldr	r3, [r6, #16]
    bff4:	e3530004 	cmp	r3, #4	; 0x4
    bff8:	e1a07000 	mov	r7, r0
    bffc:	0a000055 	beq	c158 <KeyboardScan+0x170>
    c000:	e5905404 	ldr	r5, [r0, #1028]
    c004:	e5d53000 	ldrb	r3, [r5]
    c008:	e5d52001 	ldrb	r2, [r5, #1]
    c00c:	e5d51002 	ldrb	r1, [r5, #2]
    c010:	e1832402 	orr	r2, r3, r2, lsl #8
    c014:	e5d53003 	ldrb	r3, [r5, #3]
    c018:	e1822801 	orr	r2, r2, r1, lsl #16
    c01c:	e1822c03 	orr	r2, r2, r3, lsl #24
    c020:	e59f3678 	ldr	r3, [pc, #1656]	; c6a0 <KeyboardScan+0x6b8>
    c024:	e1520003 	cmp	r2, r3
    c028:	1a00004a 	bne	c158 <KeyboardScan+0x170>
    c02c:	e5d5300c 	ldrb	r3, [r5, #12]
    c030:	e5d5400d 	ldrb	r4, [r5, #13]
    c034:	e5d5200e 	ldrb	r2, [r5, #14]
    c038:	e1834404 	orr	r4, r3, r4, lsl #8
    c03c:	e5d5300f 	ldrb	r3, [r5, #15]
    c040:	e1844802 	orr	r4, r4, r2, lsl #16
    c044:	e1844c03 	orr	r4, r4, r3, lsl #24
    c048:	e5942000 	ldr	r2, [r4]
    c04c:	e59f3650 	ldr	r3, [pc, #1616]	; c6a4 <KeyboardScan+0x6bc>
    c050:	e1520003 	cmp	r2, r3
    c054:	1a00003f 	bne	c158 <KeyboardScan+0x170>
    c058:	e5d43004 	ldrb	r3, [r4, #4]
    c05c:	e3530000 	cmp	r3, #0	; 0x0
    c060:	0a00003c 	beq	c158 <KeyboardScan+0x170>
    c064:	e59f263c 	ldr	r2, [pc, #1596]	; c6a8 <KeyboardScan+0x6c0>
    c068:	e59f363c 	ldr	r3, [pc, #1596]	; c6ac <KeyboardScan+0x6c4>
    c06c:	e1a0a422 	lsr	sl, r2, #8
    c070:	e1a0c423 	lsr	ip, r3, #8
    c074:	e1a00823 	lsr	r0, r3, #16
    c078:	e1a01c23 	lsr	r1, r3, #24
    c07c:	e1a08822 	lsr	r8, r2, #16
    c080:	e1a0ec22 	lsr	lr, r2, #24
    c084:	e5c52014 	strb	r2, [r5, #20]
    c088:	e5c53018 	strb	r3, [r5, #24]
    c08c:	e5c5c019 	strb	ip, [r5, #25]
    c090:	e5c5001a 	strb	r0, [r5, #26]
    c094:	e5c5101b 	strb	r1, [r5, #27]
    c098:	e5c5a015 	strb	sl, [r5, #21]
    c09c:	e5c58016 	strb	r8, [r5, #22]
    c0a0:	e5c5e017 	strb	lr, [r5, #23]
    c0a4:	e3a0006a 	mov	r0, #106	; 0x6a
    c0a8:	eb00036b 	bl	ce5c <MemoryAllocate>
    c0ac:	e1a03000 	mov	r3, r0
    c0b0:	e1a0c420 	lsr	ip, r0, #8
    c0b4:	e1a01c23 	lsr	r1, r3, #24
    c0b8:	e1a00820 	lsr	r0, r0, #16
    c0bc:	e3530000 	cmp	r3, #0	; 0x0
    c0c0:	e3a02000 	mov	r2, #0	; 0x0
    c0c4:	e5c53010 	strb	r3, [r5, #16]
    c0c8:	e5c5c011 	strb	ip, [r5, #17]
    c0cc:	e5c50012 	strb	r0, [r5, #18]
    c0d0:	e5c51013 	strb	r1, [r5, #19]
    c0d4:	0a00016e 	beq	c694 <KeyboardScan+0x6ac>
    c0d8:	e3a00030 	mov	r0, #48	; 0x30
    c0dc:	e5c30000 	strb	r0, [r3]
    c0e0:	e3a00044 	mov	r0, #68	; 0x44
    c0e4:	e5c30001 	strb	r0, [r3, #1]
    c0e8:	e3a00042 	mov	r0, #66	; 0x42
    c0ec:	e5c30002 	strb	r0, [r3, #2]
    c0f0:	e3a0004b 	mov	r0, #75	; 0x4b
    c0f4:	e3e01000 	mvn	r1, #0	; 0x0
    c0f8:	e5c30003 	strb	r0, [r3, #3]
    c0fc:	e3a0006a 	mov	r0, #106	; 0x6a
    c100:	e5c30004 	strb	r0, [r3, #4]
    c104:	e5c32005 	strb	r2, [r3, #5]
    c108:	e5c32006 	strb	r2, [r3, #6]
    c10c:	e5c32007 	strb	r2, [r3, #7]
    c110:	e5c31008 	strb	r1, [r3, #8]
    c114:	e5c31009 	strb	r1, [r3, #9]
    c118:	e5c3100a 	strb	r1, [r3, #10]
    c11c:	e5c3100b 	strb	r1, [r3, #11]
    c120:	e246c004 	sub	ip, r6, #4	; 0x4
    c124:	e5bc1004 	ldr	r1, [ip, #4]!
    c128:	e3510000 	cmp	r1, #0	; 0x0
    c12c:	0a00000b 	beq	c160 <KeyboardScan+0x178>
    c130:	e2822001 	add	r2, r2, #1	; 0x1
    c134:	e3520004 	cmp	r2, #4	; 0x4
    c138:	1afffff9 	bne	c124 <KeyboardScan+0x13c>
    c13c:	e1a00007 	mov	r0, r7
    c140:	ebffff62 	bl	bed0 <KeyboardDeallocate>
    c144:	e3a000ff 	mov	r0, #255	; 0xff
    c148:	e1a00c00 	lsl	r0, r0, #24
    c14c:	e1a00c40 	asr	r0, r0, #24
    c150:	e8bd45f8 	pop	{r3, r4, r5, r6, r7, r8, sl, lr}
    c154:	e12fff1e 	bx	lr
    c158:	e3a000fb 	mov	r0, #251	; 0xfb
    c15c:	eafffff9 	b	c148 <KeyboardScan+0x160>
    c160:	e1a05422 	lsr	r5, r2, #8
    c164:	e1a0c822 	lsr	ip, r2, #16
    c168:	e1a00c22 	lsr	r0, r2, #24
    c16c:	e5c3c00a 	strb	ip, [r3, #10]
    c170:	e5c32008 	strb	r2, [r3, #8]
    c174:	e5c35009 	strb	r5, [r3, #9]
    c178:	e5c3000b 	strb	r0, [r3, #11]
    c17c:	e5975000 	ldr	r5, [r7]
    c180:	e5960010 	ldr	r0, [r6, #16]
    c184:	e7865102 	str	r5, [r6, r2, lsl #2]
    c188:	e59f5520 	ldr	r5, [pc, #1312]	; c6b0 <KeyboardScan+0x6c8>
    c18c:	e2800001 	add	r0, r0, #1	; 0x1
    c190:	e7857102 	str	r7, [r5, r2, lsl #2]
    c194:	e5860010 	str	r0, [r6, #16]
    c198:	e5c3101c 	strb	r1, [r3, #28]
    c19c:	e5c31010 	strb	r1, [r3, #16]
    c1a0:	e5c31011 	strb	r1, [r3, #17]
    c1a4:	e5c31012 	strb	r1, [r3, #18]
    c1a8:	e5c31013 	strb	r1, [r3, #19]
    c1ac:	e5c31014 	strb	r1, [r3, #20]
    c1b0:	e5c31015 	strb	r1, [r3, #21]
    c1b4:	e5c31016 	strb	r1, [r3, #22]
    c1b8:	e5c31017 	strb	r1, [r3, #23]
    c1bc:	e5c31018 	strb	r1, [r3, #24]
    c1c0:	e5c31019 	strb	r1, [r3, #25]
    c1c4:	e5c3101a 	strb	r1, [r3, #26]
    c1c8:	e5c3101b 	strb	r1, [r3, #27]
    c1cc:	e5c3101d 	strb	r1, [r3, #29]
    c1d0:	e1a0c001 	mov	ip, r1
    c1d4:	e1a00001 	mov	r0, r1
    c1d8:	e28c100e 	add	r1, ip, #14	; 0xe
    c1dc:	e28cc001 	add	ip, ip, #1	; 0x1
    c1e0:	e0831101 	add	r1, r3, r1, lsl #2
    c1e4:	e35c0009 	cmp	ip, #9	; 0x9
    c1e8:	e3a02000 	mov	r2, #0	; 0x0
    c1ec:	e5c10006 	strb	r0, [r1, #6]
    c1f0:	e5c10007 	strb	r0, [r1, #7]
    c1f4:	e5c10008 	strb	r0, [r1, #8]
    c1f8:	e5c10009 	strb	r0, [r1, #9]
    c1fc:	1afffff5 	bne	c1d8 <KeyboardScan+0x1f0>
    c200:	e5c3201e 	strb	r2, [r3, #30]
    c204:	e5c3201f 	strb	r2, [r3, #31]
    c208:	e5c32020 	strb	r2, [r3, #32]
    c20c:	e5c32021 	strb	r2, [r3, #33]
    c210:	e5c32022 	strb	r2, [r3, #34]
    c214:	e5c32023 	strb	r2, [r3, #35]
    c218:	e5c32024 	strb	r2, [r3, #36]
    c21c:	e5c32025 	strb	r2, [r3, #37]
    c220:	e5c32026 	strb	r2, [r3, #38]
    c224:	e5c32027 	strb	r2, [r3, #39]
    c228:	e5c32028 	strb	r2, [r3, #40]
    c22c:	e5c32029 	strb	r2, [r3, #41]
    c230:	e5c3202a 	strb	r2, [r3, #42]
    c234:	e5c3202b 	strb	r2, [r3, #43]
    c238:	e5c3202c 	strb	r2, [r3, #44]
    c23c:	e5c3202d 	strb	r2, [r3, #45]
    c240:	e5c3202e 	strb	r2, [r3, #46]
    c244:	e5c3202f 	strb	r2, [r3, #47]
    c248:	e5c32030 	strb	r2, [r3, #48]
    c24c:	e5c32031 	strb	r2, [r3, #49]
    c250:	e5c32032 	strb	r2, [r3, #50]
    c254:	e5c32033 	strb	r2, [r3, #51]
    c258:	e5c32034 	strb	r2, [r3, #52]
    c25c:	e5c32035 	strb	r2, [r3, #53]
    c260:	e5c32036 	strb	r2, [r3, #54]
    c264:	e5c32037 	strb	r2, [r3, #55]
    c268:	e5c32038 	strb	r2, [r3, #56]
    c26c:	e5c32039 	strb	r2, [r3, #57]
    c270:	e5c3203a 	strb	r2, [r3, #58]
    c274:	e5c3203b 	strb	r2, [r3, #59]
    c278:	e5c3203c 	strb	r2, [r3, #60]
    c27c:	e5c3203d 	strb	r2, [r3, #61]
    c280:	e5c32062 	strb	r2, [r3, #98]
    c284:	e5c32063 	strb	r2, [r3, #99]
    c288:	e5c32064 	strb	r2, [r3, #100]
    c28c:	e5c32065 	strb	r2, [r3, #101]
    c290:	e5c32066 	strb	r2, [r3, #102]
    c294:	e5c32067 	strb	r2, [r3, #103]
    c298:	e5c32068 	strb	r2, [r3, #104]
    c29c:	e5c32069 	strb	r2, [r3, #105]
    c2a0:	e5d45004 	ldrb	r5, [r4, #4]
    c2a4:	e1550002 	cmp	r5, r2
    c2a8:	11a00004 	movne	r0, r4
    c2ac:	1a000006 	bne	c2cc <KeyboardScan+0x2e4>
    c2b0:	ea00003e 	b	c3b0 <KeyboardScan+0x3c8>
    c2b4:	e35c0002 	cmp	ip, #2	; 0x2
    c2b8:	0a00003e 	beq	c3b8 <KeyboardScan+0x3d0>
    c2bc:	e2822001 	add	r2, r2, #1	; 0x1
    c2c0:	e1550002 	cmp	r5, r2
    c2c4:	e2800004 	add	r0, r0, #4	; 0x4
    c2c8:	9a000038 	bls	c3b0 <KeyboardScan+0x3c8>
    c2cc:	e5901008 	ldr	r1, [r0, #8]
    c2d0:	e5d1c003 	ldrb	ip, [r1, #3]
    c2d4:	e35c0001 	cmp	ip, #1	; 0x1
    c2d8:	1afffff5 	bne	c2b4 <KeyboardScan+0x2cc>
    c2dc:	e5d36067 	ldrb	r6, [r3, #103]
    c2e0:	e5d3c066 	ldrb	ip, [r3, #102]
    c2e4:	e5d37068 	ldrb	r7, [r3, #104]
    c2e8:	e18cc406 	orr	ip, ip, r6, lsl #8
    c2ec:	e5d36069 	ldrb	r6, [r3, #105]
    c2f0:	e18cc807 	orr	ip, ip, r7, lsl #16
    c2f4:	e19ccc06 	orrs	ip, ip, r6, lsl #24
    c2f8:	1affffef 	bne	c2bc <KeyboardScan+0x2d4>
    c2fc:	e1a05c21 	lsr	r5, r1, #24
    c300:	e1a07421 	lsr	r7, r1, #8
    c304:	e1a06821 	lsr	r6, r1, #16
    c308:	e5c31066 	strb	r1, [r3, #102]
    c30c:	e5c37067 	strb	r7, [r3, #103]
    c310:	e5c36068 	strb	r6, [r3, #104]
    c314:	e5c35069 	strb	r5, [r3, #105]
    c318:	e5d15001 	ldrb	r5, [r1, #1]
    c31c:	e3550000 	cmp	r5, #0	; 0x0
    c320:	1a000003 	bne	c334 <KeyboardScan+0x34c>
    c324:	ea00001c 	b	c39c <KeyboardScan+0x3b4>
    c328:	e28cc001 	add	ip, ip, #1	; 0x1
    c32c:	e155000c 	cmp	r5, ip
    c330:	9a000019 	bls	c39c <KeyboardScan+0x3b4>
    c334:	e08c610c 	add	r6, ip, ip, lsl #2
    c338:	e08c6086 	add	r6, ip, r6, lsl #1
    c33c:	e1a06106 	lsl	r6, r6, #2
    c340:	e0817006 	add	r7, r1, r6
    c344:	e1d7a1b6 	ldrh	sl, [r7, #22]
    c348:	e35a0007 	cmp	sl, #7	; 0x7
    c34c:	e2878010 	add	r8, r7, #16	; 0x10
    c350:	1afffff4 	bne	c328 <KeyboardScan+0x340>
    c354:	e5d75010 	ldrb	r5, [r7, #16]
    c358:	e3150002 	tst	r5, #2	; 0x2
    c35c:	0a0000c1 	beq	c668 <KeyboardScan+0x680>
    c360:	e1d751b4 	ldrh	r5, [r7, #20]
    c364:	e287600c 	add	r6, r7, #12	; 0xc
    c368:	e24550d2 	sub	r5, r5, #210	; 0xd2
    c36c:	e0835105 	add	r5, r3, r5, lsl #2
    c370:	e1a0a426 	lsr	sl, r6, #8
    c374:	e1a08826 	lsr	r8, r6, #16
    c378:	e1a07c26 	lsr	r7, r6, #24
    c37c:	e5c56006 	strb	r6, [r5, #6]
    c380:	e5c5a007 	strb	sl, [r5, #7]
    c384:	e5c58008 	strb	r8, [r5, #8]
    c388:	e5c57009 	strb	r7, [r5, #9]
    c38c:	e5d15001 	ldrb	r5, [r1, #1]
    c390:	e28cc001 	add	ip, ip, #1	; 0x1
    c394:	e155000c 	cmp	r5, ip
    c398:	8affffe5 	bhi	c334 <KeyboardScan+0x34c>
    c39c:	e5d45004 	ldrb	r5, [r4, #4]
    c3a0:	e2822001 	add	r2, r2, #1	; 0x1
    c3a4:	e1550002 	cmp	r5, r2
    c3a8:	e2800004 	add	r0, r0, #4	; 0x4
    c3ac:	8affffc6 	bhi	c2cc <KeyboardScan+0x2e4>
    c3b0:	e3a00000 	mov	r0, #0	; 0x0
    c3b4:	eaffff63 	b	c148 <KeyboardScan+0x160>
    c3b8:	e5d36063 	ldrb	r6, [r3, #99]
    c3bc:	e5d3c062 	ldrb	ip, [r3, #98]
    c3c0:	e5d37064 	ldrb	r7, [r3, #100]
    c3c4:	e18cc406 	orr	ip, ip, r6, lsl #8
    c3c8:	e5d36065 	ldrb	r6, [r3, #101]
    c3cc:	e18cc807 	orr	ip, ip, r7, lsl #16
    c3d0:	e19ccc06 	orrs	ip, ip, r6, lsl #24
    c3d4:	1affffb8 	bne	c2bc <KeyboardScan+0x2d4>
    c3d8:	e1a05c21 	lsr	r5, r1, #24
    c3dc:	e1a07421 	lsr	r7, r1, #8
    c3e0:	e1a06821 	lsr	r6, r1, #16
    c3e4:	e5c31062 	strb	r1, [r3, #98]
    c3e8:	e5c37063 	strb	r7, [r3, #99]
    c3ec:	e5c36064 	strb	r6, [r3, #100]
    c3f0:	e5c35065 	strb	r5, [r3, #101]
    c3f4:	e5d15001 	ldrb	r5, [r1, #1]
    c3f8:	e3550000 	cmp	r5, #0	; 0x0
    c3fc:	1a000003 	bne	c410 <KeyboardScan+0x428>
    c400:	eaffffe5 	b	c39c <KeyboardScan+0x3b4>
    c404:	e28cc001 	add	ip, ip, #1	; 0x1
    c408:	e155000c 	cmp	r5, ip
    c40c:	9affffe2 	bls	c39c <KeyboardScan+0x3b4>
    c410:	e1a0710c 	lsl	r7, ip, #2
    c414:	e087600c 	add	r6, r7, ip
    c418:	e08c6086 	add	r6, ip, r6, lsl #1
    c41c:	e0816106 	add	r6, r1, r6, lsl #2
    c420:	e1d681b6 	ldrh	r8, [r6, #22]
    c424:	e3580008 	cmp	r8, #8	; 0x8
    c428:	e2866010 	add	r6, r6, #16	; 0x10
    c42c:	1afffff4 	bne	c404 <KeyboardScan+0x41c>
    c430:	e1d660b4 	ldrh	r6, [r6, #4]
    c434:	e2466001 	sub	r6, r6, #1	; 0x1
    c438:	e3560008 	cmp	r6, #8	; 0x8
    c43c:	979ff106 	ldrls	pc, [pc, r6, lsl #2]
    c440:	eaffffef 	b	c404 <KeyboardScan+0x41c>
    c444:	0000c628 	.word	0x0000c628
    c448:	0000c5e8 	.word	0x0000c5e8
    c44c:	0000c5a8 	.word	0x0000c5a8
    c450:	0000c568 	.word	0x0000c568
    c454:	0000c528 	.word	0x0000c528
    c458:	0000c4e8 	.word	0x0000c4e8
    c45c:	0000c4a8 	.word	0x0000c4a8
    c460:	0000c404 	.word	0x0000c404
    c464:	0000c468 	.word	0x0000c468
    c468:	e087500c 	add	r5, r7, ip
    c46c:	e08c5085 	add	r5, ip, r5, lsl #1
    c470:	e5d3601d 	ldrb	r6, [r3, #29]
    c474:	e0815105 	add	r5, r1, r5, lsl #2
    c478:	e285500c 	add	r5, r5, #12	; 0xc
    c47c:	e1a0a425 	lsr	sl, r5, #8
    c480:	e1a08825 	lsr	r8, r5, #16
    c484:	e1a07c25 	lsr	r7, r5, #24
    c488:	e3866040 	orr	r6, r6, #64	; 0x40
    c48c:	e5c3503a 	strb	r5, [r3, #58]
    c490:	e5c3a03b 	strb	sl, [r3, #59]
    c494:	e5c3803c 	strb	r8, [r3, #60]
    c498:	e5c3703d 	strb	r7, [r3, #61]
    c49c:	e5c3601d 	strb	r6, [r3, #29]
    c4a0:	e5d15001 	ldrb	r5, [r1, #1]
    c4a4:	eaffffd6 	b	c404 <KeyboardScan+0x41c>
    c4a8:	e087500c 	add	r5, r7, ip
    c4ac:	e08c5085 	add	r5, ip, r5, lsl #1
    c4b0:	e5d3601d 	ldrb	r6, [r3, #29]
    c4b4:	e0815105 	add	r5, r1, r5, lsl #2
    c4b8:	e285500c 	add	r5, r5, #12	; 0xc
    c4bc:	e1a0a425 	lsr	sl, r5, #8
    c4c0:	e1a08825 	lsr	r8, r5, #16
    c4c4:	e1a07c25 	lsr	r7, r5, #24
    c4c8:	e3866080 	orr	r6, r6, #128	; 0x80
    c4cc:	e5c35036 	strb	r5, [r3, #54]
    c4d0:	e5c3a037 	strb	sl, [r3, #55]
    c4d4:	e5c38038 	strb	r8, [r3, #56]
    c4d8:	e5c37039 	strb	r7, [r3, #57]
    c4dc:	e5c3601d 	strb	r6, [r3, #29]
    c4e0:	e5d15001 	ldrb	r5, [r1, #1]
    c4e4:	eaffffc6 	b	c404 <KeyboardScan+0x41c>
    c4e8:	e087500c 	add	r5, r7, ip
    c4ec:	e08c5085 	add	r5, ip, r5, lsl #1
    c4f0:	e5d3601d 	ldrb	r6, [r3, #29]
    c4f4:	e0815105 	add	r5, r1, r5, lsl #2
    c4f8:	e285500c 	add	r5, r5, #12	; 0xc
    c4fc:	e1a0a425 	lsr	sl, r5, #8
    c500:	e1a08825 	lsr	r8, r5, #16
    c504:	e1a07c25 	lsr	r7, r5, #24
    c508:	e3866020 	orr	r6, r6, #32	; 0x20
    c50c:	e5c35032 	strb	r5, [r3, #50]
    c510:	e5c3a033 	strb	sl, [r3, #51]
    c514:	e5c38034 	strb	r8, [r3, #52]
    c518:	e5c37035 	strb	r7, [r3, #53]
    c51c:	e5c3601d 	strb	r6, [r3, #29]
    c520:	e5d15001 	ldrb	r5, [r1, #1]
    c524:	eaffffb6 	b	c404 <KeyboardScan+0x41c>
    c528:	e087500c 	add	r5, r7, ip
    c52c:	e08c5085 	add	r5, ip, r5, lsl #1
    c530:	e5d3601d 	ldrb	r6, [r3, #29]
    c534:	e0815105 	add	r5, r1, r5, lsl #2
    c538:	e285500c 	add	r5, r5, #12	; 0xc
    c53c:	e1a0a425 	lsr	sl, r5, #8
    c540:	e1a08825 	lsr	r8, r5, #16
    c544:	e1a07c25 	lsr	r7, r5, #24
    c548:	e3866010 	orr	r6, r6, #16	; 0x10
    c54c:	e5c3502e 	strb	r5, [r3, #46]
    c550:	e5c3a02f 	strb	sl, [r3, #47]
    c554:	e5c38030 	strb	r8, [r3, #48]
    c558:	e5c37031 	strb	r7, [r3, #49]
    c55c:	e5c3601d 	strb	r6, [r3, #29]
    c560:	e5d15001 	ldrb	r5, [r1, #1]
    c564:	eaffffa6 	b	c404 <KeyboardScan+0x41c>
    c568:	e087500c 	add	r5, r7, ip
    c56c:	e08c5085 	add	r5, ip, r5, lsl #1
    c570:	e5d3601d 	ldrb	r6, [r3, #29]
    c574:	e0815105 	add	r5, r1, r5, lsl #2
    c578:	e285500c 	add	r5, r5, #12	; 0xc
    c57c:	e1a0a425 	lsr	sl, r5, #8
    c580:	e1a08825 	lsr	r8, r5, #16
    c584:	e1a07c25 	lsr	r7, r5, #24
    c588:	e3866008 	orr	r6, r6, #8	; 0x8
    c58c:	e5c3502a 	strb	r5, [r3, #42]
    c590:	e5c3a02b 	strb	sl, [r3, #43]
    c594:	e5c3802c 	strb	r8, [r3, #44]
    c598:	e5c3702d 	strb	r7, [r3, #45]
    c59c:	e5c3601d 	strb	r6, [r3, #29]
    c5a0:	e5d15001 	ldrb	r5, [r1, #1]
    c5a4:	eaffff96 	b	c404 <KeyboardScan+0x41c>
    c5a8:	e087500c 	add	r5, r7, ip
    c5ac:	e08c5085 	add	r5, ip, r5, lsl #1
    c5b0:	e5d3601d 	ldrb	r6, [r3, #29]
    c5b4:	e0815105 	add	r5, r1, r5, lsl #2
    c5b8:	e285500c 	add	r5, r5, #12	; 0xc
    c5bc:	e1a0a425 	lsr	sl, r5, #8
    c5c0:	e1a08825 	lsr	r8, r5, #16
    c5c4:	e1a07c25 	lsr	r7, r5, #24
    c5c8:	e3866004 	orr	r6, r6, #4	; 0x4
    c5cc:	e5c35026 	strb	r5, [r3, #38]
    c5d0:	e5c3a027 	strb	sl, [r3, #39]
    c5d4:	e5c38028 	strb	r8, [r3, #40]
    c5d8:	e5c37029 	strb	r7, [r3, #41]
    c5dc:	e5c3601d 	strb	r6, [r3, #29]
    c5e0:	e5d15001 	ldrb	r5, [r1, #1]
    c5e4:	eaffff86 	b	c404 <KeyboardScan+0x41c>
    c5e8:	e087500c 	add	r5, r7, ip
    c5ec:	e08c5085 	add	r5, ip, r5, lsl #1
    c5f0:	e5d3601d 	ldrb	r6, [r3, #29]
    c5f4:	e0815105 	add	r5, r1, r5, lsl #2
    c5f8:	e285500c 	add	r5, r5, #12	; 0xc
    c5fc:	e1a0a425 	lsr	sl, r5, #8
    c600:	e1a08825 	lsr	r8, r5, #16
    c604:	e1a07c25 	lsr	r7, r5, #24
    c608:	e3866002 	orr	r6, r6, #2	; 0x2
    c60c:	e5c35022 	strb	r5, [r3, #34]
    c610:	e5c3a023 	strb	sl, [r3, #35]
    c614:	e5c38024 	strb	r8, [r3, #36]
    c618:	e5c37025 	strb	r7, [r3, #37]
    c61c:	e5c3601d 	strb	r6, [r3, #29]
    c620:	e5d15001 	ldrb	r5, [r1, #1]
    c624:	eaffff76 	b	c404 <KeyboardScan+0x41c>
    c628:	e087500c 	add	r5, r7, ip
    c62c:	e08c5085 	add	r5, ip, r5, lsl #1
    c630:	e5d3601d 	ldrb	r6, [r3, #29]
    c634:	e0815105 	add	r5, r1, r5, lsl #2
    c638:	e285500c 	add	r5, r5, #12	; 0xc
    c63c:	e1a0a425 	lsr	sl, r5, #8
    c640:	e1a08825 	lsr	r8, r5, #16
    c644:	e1a07c25 	lsr	r7, r5, #24
    c648:	e3866001 	orr	r6, r6, #1	; 0x1
    c64c:	e5c3501e 	strb	r5, [r3, #30]
    c650:	e5c3a01f 	strb	sl, [r3, #31]
    c654:	e5c38020 	strb	r8, [r3, #32]
    c658:	e5c37021 	strb	r7, [r3, #33]
    c65c:	e5c3601d 	strb	r6, [r3, #29]
    c660:	e5d15001 	ldrb	r5, [r1, #1]
    c664:	eaffff66 	b	c404 <KeyboardScan+0x41c>
    c668:	e0816006 	add	r6, r1, r6
    c66c:	e286600c 	add	r6, r6, #12	; 0xc
    c670:	e1a05c26 	lsr	r5, r6, #24
    c674:	e1a08426 	lsr	r8, r6, #8
    c678:	e1a07826 	lsr	r7, r6, #16
    c67c:	e5c3605e 	strb	r6, [r3, #94]
    c680:	e5c3805f 	strb	r8, [r3, #95]
    c684:	e5c37060 	strb	r7, [r3, #96]
    c688:	e5c35061 	strb	r5, [r3, #97]
    c68c:	e5d15001 	ldrb	r5, [r1, #1]
    c690:	eaffff24 	b	c328 <KeyboardScan+0x340>
    c694:	e3a000f9 	mov	r0, #249	; 0xf9
    c698:	eafffeaa 	b	c148 <KeyboardScan+0x160>
    c69c:	000159f8 	.word	0x000159f8
    c6a0:	48494430 	.word	0x48494430
    c6a4:	00010006 	.word	0x00010006
    c6a8:	0000be54 	.word	0x0000be54
    c6ac:	0000bed0 	.word	0x0000bed0
    c6b0:	00015a0c 	.word	0x00015a0c

0000c6b4 <KeyboardCount>:
    c6b4:	e59f3004 	ldr	r3, [pc, #4]	; c6c0 <KeyboardCount+0xc>
    c6b8:	e5930010 	ldr	r0, [r3, #16]
    c6bc:	e12fff1e 	bx	lr
    c6c0:	000159f8 	.word	0x000159f8

0000c6c4 <KeyboardSetLeds>:
    c6c4:	e92d4010 	push	{r4, lr}
    c6c8:	e1a04001 	mov	r4, r1
    c6cc:	ebfffe1d 	bl	bf48 <KeyboardIndex>
    c6d0:	e3700001 	cmn	r0, #1	; 0x1
    c6d4:	0a00007e 	beq	c8d4 <KeyboardSetLeds+0x210>
    c6d8:	e59f31fc 	ldr	r3, [pc, #508]	; c8dc <KeyboardSetLeds+0x218>
    c6dc:	e7930100 	ldr	r0, [r3, r0, lsl #2]
    c6e0:	e5902404 	ldr	r2, [r0, #1028]
    c6e4:	e5d23010 	ldrb	r3, [r2, #16]
    c6e8:	e5d2c011 	ldrb	ip, [r2, #17]
    c6ec:	e5d21012 	ldrb	r1, [r2, #18]
    c6f0:	e183340c 	orr	r3, r3, ip, lsl #8
    c6f4:	e5d22013 	ldrb	r2, [r2, #19]
    c6f8:	e1833801 	orr	r3, r3, r1, lsl #16
    c6fc:	e1833c02 	orr	r3, r3, r2, lsl #24
    c700:	e5d3201d 	ldrb	r2, [r3, #29]
    c704:	e3120001 	tst	r2, #1	; 0x1
    c708:	0a000009 	beq	c734 <KeyboardSetLeds+0x70>
    c70c:	e5d3201e 	ldrb	r2, [r3, #30]
    c710:	e5d3e01f 	ldrb	lr, [r3, #31]
    c714:	e5d3c020 	ldrb	ip, [r3, #32]
    c718:	e5d31021 	ldrb	r1, [r3, #33]
    c71c:	e182240e 	orr	r2, r2, lr, lsl #8
    c720:	e182280c 	orr	r2, r2, ip, lsl #16
    c724:	e1822c01 	orr	r2, r2, r1, lsl #24
    c728:	e2041001 	and	r1, r4, #1	; 0x1
    c72c:	e5c21028 	strb	r1, [r2, #40]
    c730:	e5d3201d 	ldrb	r2, [r3, #29]
    c734:	e3120002 	tst	r2, #2	; 0x2
    c738:	0a00000a 	beq	c768 <KeyboardSetLeds+0xa4>
    c73c:	e5d32022 	ldrb	r2, [r3, #34]
    c740:	e5d3e023 	ldrb	lr, [r3, #35]
    c744:	e5d31024 	ldrb	r1, [r3, #36]
    c748:	e5d3c025 	ldrb	ip, [r3, #37]
    c74c:	e182240e 	orr	r2, r2, lr, lsl #8
    c750:	e1822801 	orr	r2, r2, r1, lsl #16
    c754:	e1a010a4 	lsr	r1, r4, #1
    c758:	e1822c0c 	orr	r2, r2, ip, lsl #24
    c75c:	e2011001 	and	r1, r1, #1	; 0x1
    c760:	e5c21028 	strb	r1, [r2, #40]
    c764:	e5d3201d 	ldrb	r2, [r3, #29]
    c768:	e3120004 	tst	r2, #4	; 0x4
    c76c:	0a00000a 	beq	c79c <KeyboardSetLeds+0xd8>
    c770:	e5d32026 	ldrb	r2, [r3, #38]
    c774:	e5d3e027 	ldrb	lr, [r3, #39]
    c778:	e5d31028 	ldrb	r1, [r3, #40]
    c77c:	e5d3c029 	ldrb	ip, [r3, #41]
    c780:	e182240e 	orr	r2, r2, lr, lsl #8
    c784:	e1822801 	orr	r2, r2, r1, lsl #16
    c788:	e1a01124 	lsr	r1, r4, #2
    c78c:	e1822c0c 	orr	r2, r2, ip, lsl #24
    c790:	e2011001 	and	r1, r1, #1	; 0x1
    c794:	e5c21028 	strb	r1, [r2, #40]
    c798:	e5d3201d 	ldrb	r2, [r3, #29]
    c79c:	e3120008 	tst	r2, #8	; 0x8
    c7a0:	0a00000a 	beq	c7d0 <KeyboardSetLeds+0x10c>
    c7a4:	e5d3202a 	ldrb	r2, [r3, #42]
    c7a8:	e5d3e02b 	ldrb	lr, [r3, #43]
    c7ac:	e5d3102c 	ldrb	r1, [r3, #44]
    c7b0:	e5d3c02d 	ldrb	ip, [r3, #45]
    c7b4:	e182240e 	orr	r2, r2, lr, lsl #8
    c7b8:	e1822801 	orr	r2, r2, r1, lsl #16
    c7bc:	e1a011a4 	lsr	r1, r4, #3
    c7c0:	e1822c0c 	orr	r2, r2, ip, lsl #24
    c7c4:	e2011001 	and	r1, r1, #1	; 0x1
    c7c8:	e5c21028 	strb	r1, [r2, #40]
    c7cc:	e5d3201d 	ldrb	r2, [r3, #29]
    c7d0:	e3120010 	tst	r2, #16	; 0x10
    c7d4:	0a00000a 	beq	c804 <KeyboardSetLeds+0x140>
    c7d8:	e5d3202e 	ldrb	r2, [r3, #46]
    c7dc:	e5d3e02f 	ldrb	lr, [r3, #47]
    c7e0:	e5d31030 	ldrb	r1, [r3, #48]
    c7e4:	e5d3c031 	ldrb	ip, [r3, #49]
    c7e8:	e182240e 	orr	r2, r2, lr, lsl #8
    c7ec:	e1822801 	orr	r2, r2, r1, lsl #16
    c7f0:	e1a01224 	lsr	r1, r4, #4
    c7f4:	e1822c0c 	orr	r2, r2, ip, lsl #24
    c7f8:	e2011001 	and	r1, r1, #1	; 0x1
    c7fc:	e5c21028 	strb	r1, [r2, #40]
    c800:	e5d3201d 	ldrb	r2, [r3, #29]
    c804:	e3120020 	tst	r2, #32	; 0x20
    c808:	0a00000a 	beq	c838 <KeyboardSetLeds+0x174>
    c80c:	e5d32032 	ldrb	r2, [r3, #50]
    c810:	e5d3e033 	ldrb	lr, [r3, #51]
    c814:	e5d31034 	ldrb	r1, [r3, #52]
    c818:	e5d3c035 	ldrb	ip, [r3, #53]
    c81c:	e182240e 	orr	r2, r2, lr, lsl #8
    c820:	e1822801 	orr	r2, r2, r1, lsl #16
    c824:	e1a012a4 	lsr	r1, r4, #5
    c828:	e1822c0c 	orr	r2, r2, ip, lsl #24
    c82c:	e2011001 	and	r1, r1, #1	; 0x1
    c830:	e5c21028 	strb	r1, [r2, #40]
    c834:	e5d3201d 	ldrb	r2, [r3, #29]
    c838:	e3120080 	tst	r2, #128	; 0x80
    c83c:	0a00000a 	beq	c86c <KeyboardSetLeds+0x1a8>
    c840:	e5d32036 	ldrb	r2, [r3, #54]
    c844:	e5d3e037 	ldrb	lr, [r3, #55]
    c848:	e5d31038 	ldrb	r1, [r3, #56]
    c84c:	e5d3c039 	ldrb	ip, [r3, #57]
    c850:	e182240e 	orr	r2, r2, lr, lsl #8
    c854:	e1822801 	orr	r2, r2, r1, lsl #16
    c858:	e20410ff 	and	r1, r4, #255	; 0xff
    c85c:	e1822c0c 	orr	r2, r2, ip, lsl #24
    c860:	e1a013a1 	lsr	r1, r1, #7
    c864:	e5c21028 	strb	r1, [r2, #40]
    c868:	e5d3201d 	ldrb	r2, [r3, #29]
    c86c:	e3120040 	tst	r2, #64	; 0x40
    c870:	1a00000c 	bne	c8a8 <KeyboardSetLeds+0x1e4>
    c874:	e5d32062 	ldrb	r2, [r3, #98]
    c878:	e5d31063 	ldrb	r1, [r3, #99]
    c87c:	e5d3c064 	ldrb	ip, [r3, #100]
    c880:	e1821401 	orr	r1, r2, r1, lsl #8
    c884:	e5d32065 	ldrb	r2, [r3, #101]
    c888:	e181380c 	orr	r3, r1, ip, lsl #16
    c88c:	e1833c02 	orr	r3, r3, r2, lsl #24
    c890:	e5d31000 	ldrb	r1, [r3]
    c894:	eb000b68 	bl	f63c <HidWriteDevice>
    c898:	e1a00c00 	lsl	r0, r0, #24
    c89c:	e1a00c40 	asr	r0, r0, #24
    c8a0:	e8bd4010 	pop	{r4, lr}
    c8a4:	e12fff1e 	bx	lr
    c8a8:	e5d3203a 	ldrb	r2, [r3, #58]
    c8ac:	e5d3e03b 	ldrb	lr, [r3, #59]
    c8b0:	e5d3c03c 	ldrb	ip, [r3, #60]
    c8b4:	e5d3103d 	ldrb	r1, [r3, #61]
    c8b8:	e182240e 	orr	r2, r2, lr, lsl #8
    c8bc:	e182280c 	orr	r2, r2, ip, lsl #16
    c8c0:	e1a04324 	lsr	r4, r4, #6
    c8c4:	e1822c01 	orr	r2, r2, r1, lsl #24
    c8c8:	e2044001 	and	r4, r4, #1	; 0x1
    c8cc:	e5c24028 	strb	r4, [r2, #40]
    c8d0:	eaffffe7 	b	c874 <KeyboardSetLeds+0x1b0>
    c8d4:	e3a000f7 	mov	r0, #247	; 0xf7
    c8d8:	eaffffee 	b	c898 <KeyboardSetLeds+0x1d4>
    c8dc:	00015a0c 	.word	0x00015a0c

0000c8e0 <KeyboardGetLedSupport>:
    c8e0:	e92d4008 	push	{r3, lr}
    c8e4:	ebfffd97 	bl	bf48 <KeyboardIndex>
    c8e8:	e3700001 	cmn	r0, #1	; 0x1
    c8ec:	03a00000 	moveq	r0, #0	; 0x0
    c8f0:	0a00000a 	beq	c920 <KeyboardGetLedSupport+0x40>
    c8f4:	e59f302c 	ldr	r3, [pc, #44]	; c928 <KeyboardGetLedSupport+0x48>
    c8f8:	e7933100 	ldr	r3, [r3, r0, lsl #2]
    c8fc:	e5933404 	ldr	r3, [r3, #1028]
    c900:	e5d32010 	ldrb	r2, [r3, #16]
    c904:	e5d31011 	ldrb	r1, [r3, #17]
    c908:	e5d30012 	ldrb	r0, [r3, #18]
    c90c:	e1821401 	orr	r1, r2, r1, lsl #8
    c910:	e5d32013 	ldrb	r2, [r3, #19]
    c914:	e1813800 	orr	r3, r1, r0, lsl #16
    c918:	e1833c02 	orr	r3, r3, r2, lsl #24
    c91c:	e5d3001d 	ldrb	r0, [r3, #29]
    c920:	e8bd4008 	pop	{r3, lr}
    c924:	e12fff1e 	bx	lr
    c928:	00015a0c 	.word	0x00015a0c

0000c92c <KeyboardPoll>:
    c92c:	e92d4070 	push	{r4, r5, r6, lr}
    c930:	ebfffd84 	bl	bf48 <KeyboardIndex>
    c934:	e3700001 	cmn	r0, #1	; 0x1
    c938:	0a0000c9 	beq	cc64 <KeyboardPoll+0x338>
    c93c:	e59f3328 	ldr	r3, [pc, #808]	; cc6c <KeyboardPoll+0x340>
    c940:	e7930100 	ldr	r0, [r3, r0, lsl #2]
    c944:	e5903404 	ldr	r3, [r0, #1028]
    c948:	e5d31010 	ldrb	r1, [r3, #16]
    c94c:	e5d34011 	ldrb	r4, [r3, #17]
    c950:	e5d32012 	ldrb	r2, [r3, #18]
    c954:	e1814404 	orr	r4, r1, r4, lsl #8
    c958:	e5d33013 	ldrb	r3, [r3, #19]
    c95c:	e1844802 	orr	r4, r4, r2, lsl #16
    c960:	e1844c03 	orr	r4, r4, r3, lsl #24
    c964:	e5d42067 	ldrb	r2, [r4, #103]
    c968:	e5d43066 	ldrb	r3, [r4, #102]
    c96c:	e5d41068 	ldrb	r1, [r4, #104]
    c970:	e1833402 	orr	r3, r3, r2, lsl #8
    c974:	e5d42069 	ldrb	r2, [r4, #105]
    c978:	e1833801 	orr	r3, r3, r1, lsl #16
    c97c:	e1833c02 	orr	r3, r3, r2, lsl #24
    c980:	e5d31000 	ldrb	r1, [r3]
    c984:	eb000aad 	bl	f440 <HidReadDevice>
    c988:	e2506000 	subs	r6, r0, #0	; 0x0
    c98c:	1a0000b0 	bne	cc54 <KeyboardPoll+0x328>
    c990:	e5d4203f 	ldrb	r2, [r4, #63]
    c994:	e5d4303e 	ldrb	r3, [r4, #62]
    c998:	e5d41040 	ldrb	r1, [r4, #64]
    c99c:	e1833402 	orr	r3, r3, r2, lsl #8
    c9a0:	e5d42041 	ldrb	r2, [r4, #65]
    c9a4:	e1833801 	orr	r3, r3, r1, lsl #16
    c9a8:	e1933c02 	orrs	r3, r3, r2, lsl #24
    c9ac:	0a000005 	beq	c9c8 <KeyboardPoll+0x9c>
    c9b0:	e5d4201c 	ldrb	r2, [r4, #28]
    c9b4:	e5d33028 	ldrb	r3, [r3, #40]
    c9b8:	e3c22001 	bic	r2, r2, #1	; 0x1
    c9bc:	e2033001 	and	r3, r3, #1	; 0x1
    c9c0:	e1833002 	orr	r3, r3, r2
    c9c4:	e5c4301c 	strb	r3, [r4, #28]
    c9c8:	e5d42043 	ldrb	r2, [r4, #67]
    c9cc:	e5d43042 	ldrb	r3, [r4, #66]
    c9d0:	e5d41044 	ldrb	r1, [r4, #68]
    c9d4:	e1833402 	orr	r3, r3, r2, lsl #8
    c9d8:	e5d42045 	ldrb	r2, [r4, #69]
    c9dc:	e1833801 	orr	r3, r3, r1, lsl #16
    c9e0:	e1933c02 	orrs	r3, r3, r2, lsl #24
    c9e4:	0a000005 	beq	ca00 <KeyboardPoll+0xd4>
    c9e8:	e5d4201c 	ldrb	r2, [r4, #28]
    c9ec:	e5d33028 	ldrb	r3, [r3, #40]
    c9f0:	e3c22002 	bic	r2, r2, #2	; 0x2
    c9f4:	e2033001 	and	r3, r3, #1	; 0x1
    c9f8:	e1823083 	orr	r3, r2, r3, lsl #1
    c9fc:	e5c4301c 	strb	r3, [r4, #28]
    ca00:	e5d42047 	ldrb	r2, [r4, #71]
    ca04:	e5d43046 	ldrb	r3, [r4, #70]
    ca08:	e5d41048 	ldrb	r1, [r4, #72]
    ca0c:	e1833402 	orr	r3, r3, r2, lsl #8
    ca10:	e5d42049 	ldrb	r2, [r4, #73]
    ca14:	e1833801 	orr	r3, r3, r1, lsl #16
    ca18:	e1933c02 	orrs	r3, r3, r2, lsl #24
    ca1c:	0a000005 	beq	ca38 <KeyboardPoll+0x10c>
    ca20:	e5d4201c 	ldrb	r2, [r4, #28]
    ca24:	e5d33028 	ldrb	r3, [r3, #40]
    ca28:	e3c22004 	bic	r2, r2, #4	; 0x4
    ca2c:	e2033001 	and	r3, r3, #1	; 0x1
    ca30:	e1823103 	orr	r3, r2, r3, lsl #2
    ca34:	e5c4301c 	strb	r3, [r4, #28]
    ca38:	e5d4204b 	ldrb	r2, [r4, #75]
    ca3c:	e5d4304a 	ldrb	r3, [r4, #74]
    ca40:	e5d4104c 	ldrb	r1, [r4, #76]
    ca44:	e1833402 	orr	r3, r3, r2, lsl #8
    ca48:	e5d4204d 	ldrb	r2, [r4, #77]
    ca4c:	e1833801 	orr	r3, r3, r1, lsl #16
    ca50:	e1933c02 	orrs	r3, r3, r2, lsl #24
    ca54:	0a000005 	beq	ca70 <KeyboardPoll+0x144>
    ca58:	e5d4201c 	ldrb	r2, [r4, #28]
    ca5c:	e5d33028 	ldrb	r3, [r3, #40]
    ca60:	e3c22008 	bic	r2, r2, #8	; 0x8
    ca64:	e2033001 	and	r3, r3, #1	; 0x1
    ca68:	e1823183 	orr	r3, r2, r3, lsl #3
    ca6c:	e5c4301c 	strb	r3, [r4, #28]
    ca70:	e5d4204f 	ldrb	r2, [r4, #79]
    ca74:	e5d4304e 	ldrb	r3, [r4, #78]
    ca78:	e5d41050 	ldrb	r1, [r4, #80]
    ca7c:	e1833402 	orr	r3, r3, r2, lsl #8
    ca80:	e5d42051 	ldrb	r2, [r4, #81]
    ca84:	e1833801 	orr	r3, r3, r1, lsl #16
    ca88:	e1933c02 	orrs	r3, r3, r2, lsl #24
    ca8c:	0a000005 	beq	caa8 <KeyboardPoll+0x17c>
    ca90:	e5d4201c 	ldrb	r2, [r4, #28]
    ca94:	e5d33028 	ldrb	r3, [r3, #40]
    ca98:	e3c22010 	bic	r2, r2, #16	; 0x10
    ca9c:	e2033001 	and	r3, r3, #1	; 0x1
    caa0:	e1823203 	orr	r3, r2, r3, lsl #4
    caa4:	e5c4301c 	strb	r3, [r4, #28]
    caa8:	e5d42053 	ldrb	r2, [r4, #83]
    caac:	e5d43052 	ldrb	r3, [r4, #82]
    cab0:	e5d41054 	ldrb	r1, [r4, #84]
    cab4:	e1833402 	orr	r3, r3, r2, lsl #8
    cab8:	e5d42055 	ldrb	r2, [r4, #85]
    cabc:	e1833801 	orr	r3, r3, r1, lsl #16
    cac0:	e1933c02 	orrs	r3, r3, r2, lsl #24
    cac4:	0a000005 	beq	cae0 <KeyboardPoll+0x1b4>
    cac8:	e5d4201c 	ldrb	r2, [r4, #28]
    cacc:	e5d33028 	ldrb	r3, [r3, #40]
    cad0:	e3c22020 	bic	r2, r2, #32	; 0x20
    cad4:	e2033001 	and	r3, r3, #1	; 0x1
    cad8:	e1823283 	orr	r3, r2, r3, lsl #5
    cadc:	e5c4301c 	strb	r3, [r4, #28]
    cae0:	e5d42057 	ldrb	r2, [r4, #87]
    cae4:	e5d43056 	ldrb	r3, [r4, #86]
    cae8:	e5d41058 	ldrb	r1, [r4, #88]
    caec:	e1833402 	orr	r3, r3, r2, lsl #8
    caf0:	e5d42059 	ldrb	r2, [r4, #89]
    caf4:	e1833801 	orr	r3, r3, r1, lsl #16
    caf8:	e1933c02 	orrs	r3, r3, r2, lsl #24
    cafc:	0a000005 	beq	cb18 <KeyboardPoll+0x1ec>
    cb00:	e5d4201c 	ldrb	r2, [r4, #28]
    cb04:	e5d33028 	ldrb	r3, [r3, #40]
    cb08:	e3c22040 	bic	r2, r2, #64	; 0x40
    cb0c:	e2033001 	and	r3, r3, #1	; 0x1
    cb10:	e1823303 	orr	r3, r2, r3, lsl #6
    cb14:	e5c4301c 	strb	r3, [r4, #28]
    cb18:	e5d4205b 	ldrb	r2, [r4, #91]
    cb1c:	e5d4305a 	ldrb	r3, [r4, #90]
    cb20:	e5d4105c 	ldrb	r1, [r4, #92]
    cb24:	e1833402 	orr	r3, r3, r2, lsl #8
    cb28:	e5d4205d 	ldrb	r2, [r4, #93]
    cb2c:	e1833801 	orr	r3, r3, r1, lsl #16
    cb30:	e1933c02 	orrs	r3, r3, r2, lsl #24
    cb34:	0a000005 	beq	cb50 <KeyboardPoll+0x224>
    cb38:	e5d4201c 	ldrb	r2, [r4, #28]
    cb3c:	e5d33028 	ldrb	r3, [r3, #40]
    cb40:	e3c22080 	bic	r2, r2, #128	; 0x80
    cb44:	e2033001 	and	r3, r3, #1	; 0x1
    cb48:	e1823383 	orr	r3, r2, r3, lsl #7
    cb4c:	e5c4301c 	strb	r3, [r4, #28]
    cb50:	e5d4305e 	ldrb	r3, [r4, #94]
    cb54:	e5d4105f 	ldrb	r1, [r4, #95]
    cb58:	e5d42060 	ldrb	r2, [r4, #96]
    cb5c:	e1833401 	orr	r3, r3, r1, lsl #8
    cb60:	e5d40061 	ldrb	r0, [r4, #97]
    cb64:	e1833802 	orr	r3, r3, r2, lsl #16
    cb68:	e1930c00 	orrs	r0, r3, r0, lsl #24
    cb6c:	0a000038 	beq	cc54 <KeyboardPoll+0x328>
    cb70:	e3a01000 	mov	r1, #0	; 0x0
    cb74:	eb000d25 	bl	10010 <HidGetFieldValue>
    cb78:	e3500001 	cmp	r0, #1	; 0x1
    cb7c:	0a000034 	beq	cc54 <KeyboardPoll+0x328>
    cb80:	e5d4205f 	ldrb	r2, [r4, #95]
    cb84:	e5d4305e 	ldrb	r3, [r4, #94]
    cb88:	e5d41060 	ldrb	r1, [r4, #96]
    cb8c:	e3a05000 	mov	r5, #0	; 0x0
    cb90:	e1833402 	orr	r3, r3, r2, lsl #8
    cb94:	e5d42061 	ldrb	r2, [r4, #97]
    cb98:	e1833801 	orr	r3, r3, r1, lsl #16
    cb9c:	e5c4500c 	strb	r5, [r4, #12]
    cba0:	e5c4500d 	strb	r5, [r4, #13]
    cba4:	e5c4500e 	strb	r5, [r4, #14]
    cba8:	e5c4500f 	strb	r5, [r4, #15]
    cbac:	e1833c02 	orr	r3, r3, r2, lsl #24
    cbb0:	e1a00003 	mov	r0, r3
    cbb4:	e5d33002 	ldrb	r3, [r3, #2]
    cbb8:	e1530005 	cmp	r3, r5
    cbbc:	e1a01005 	mov	r1, r5
    cbc0:	9a000023 	bls	cc54 <KeyboardPoll+0x328>
    cbc4:	eb000d11 	bl	10010 <HidGetFieldValue>
    cbc8:	e2853008 	add	r3, r5, #8	; 0x8
    cbcc:	e1a00800 	lsl	r0, r0, #16
    cbd0:	e1a02820 	lsr	r2, r0, #16
    cbd4:	e0841083 	add	r1, r4, r3, lsl #1
    cbd8:	e1a00c20 	lsr	r0, r0, #24
    cbdc:	e7c42083 	strb	r2, [r4, r3, lsl #1]
    cbe0:	e5c10001 	strb	r0, [r1, #1]
    cbe4:	e5d4105f 	ldrb	r1, [r4, #95]
    cbe8:	e5d4305e 	ldrb	r3, [r4, #94]
    cbec:	e5d40060 	ldrb	r0, [r4, #96]
    cbf0:	e1833401 	orr	r3, r3, r1, lsl #8
    cbf4:	e5d41061 	ldrb	r1, [r4, #97]
    cbf8:	e1833800 	orr	r3, r3, r0, lsl #16
    cbfc:	e1833c01 	orr	r3, r3, r1, lsl #24
    cc00:	e1d310b8 	ldrh	r1, [r3, #8]
    cc04:	e1720001 	cmn	r2, r1
    cc08:	e2855001 	add	r5, r5, #1	; 0x1
    cc0c:	0a00000e 	beq	cc4c <KeyboardPoll+0x320>
    cc10:	e5d4c00d 	ldrb	ip, [r4, #13]
    cc14:	e5d4200c 	ldrb	r2, [r4, #12]
    cc18:	e5d4000e 	ldrb	r0, [r4, #14]
    cc1c:	e5d4100f 	ldrb	r1, [r4, #15]
    cc20:	e182240c 	orr	r2, r2, ip, lsl #8
    cc24:	e1822800 	orr	r2, r2, r0, lsl #16
    cc28:	e1822c01 	orr	r2, r2, r1, lsl #24
    cc2c:	e2822001 	add	r2, r2, #1	; 0x1
    cc30:	e1a0c422 	lsr	ip, r2, #8
    cc34:	e1a00822 	lsr	r0, r2, #16
    cc38:	e1a01c22 	lsr	r1, r2, #24
    cc3c:	e5c4200c 	strb	r2, [r4, #12]
    cc40:	e5c4c00d 	strb	ip, [r4, #13]
    cc44:	e5c4000e 	strb	r0, [r4, #14]
    cc48:	e5c4100f 	strb	r1, [r4, #15]
    cc4c:	e3550006 	cmp	r5, #6	; 0x6
    cc50:	1affffd6 	bne	cbb0 <KeyboardPoll+0x284>
    cc54:	e1a00c06 	lsl	r0, r6, #24
    cc58:	e1a00c40 	asr	r0, r0, #24
    cc5c:	e8bd4070 	pop	{r4, r5, r6, lr}
    cc60:	e12fff1e 	bx	lr
    cc64:	e3a060f7 	mov	r6, #247	; 0xf7
    cc68:	eafffff9 	b	cc54 <KeyboardPoll+0x328>
    cc6c:	00015a0c 	.word	0x00015a0c

0000cc70 <KeyboardGetModifiers>:
    cc70:	e92d4008 	push	{r3, lr}
    cc74:	ebfffcb3 	bl	bf48 <KeyboardIndex>
    cc78:	e3700001 	cmn	r0, #1	; 0x1
    cc7c:	03a00000 	moveq	r0, #0	; 0x0
    cc80:	0a00000a 	beq	ccb0 <KeyboardGetModifiers+0x40>
    cc84:	e59f302c 	ldr	r3, [pc, #44]	; ccb8 <KeyboardGetModifiers+0x48>
    cc88:	e7933100 	ldr	r3, [r3, r0, lsl #2]
    cc8c:	e5933404 	ldr	r3, [r3, #1028]
    cc90:	e5d32010 	ldrb	r2, [r3, #16]
    cc94:	e5d31011 	ldrb	r1, [r3, #17]
    cc98:	e5d30012 	ldrb	r0, [r3, #18]
    cc9c:	e1821401 	orr	r1, r2, r1, lsl #8
    cca0:	e5d32013 	ldrb	r2, [r3, #19]
    cca4:	e1813800 	orr	r3, r1, r0, lsl #16
    cca8:	e1833c02 	orr	r3, r3, r2, lsl #24
    ccac:	e5d3001c 	ldrb	r0, [r3, #28]
    ccb0:	e8bd4008 	pop	{r3, lr}
    ccb4:	e12fff1e 	bx	lr
    ccb8:	00015a0c 	.word	0x00015a0c

0000ccbc <KeyboardGetKeyDownCount>:
    ccbc:	e92d4008 	push	{r3, lr}
    ccc0:	ebfffca0 	bl	bf48 <KeyboardIndex>
    ccc4:	e3700001 	cmn	r0, #1	; 0x1
    ccc8:	03a00000 	moveq	r0, #0	; 0x0
    cccc:	0a000010 	beq	cd14 <KeyboardGetKeyDownCount+0x58>
    ccd0:	e59f3044 	ldr	r3, [pc, #68]	; cd1c <KeyboardGetKeyDownCount+0x60>
    ccd4:	e7933100 	ldr	r3, [r3, r0, lsl #2]
    ccd8:	e5932404 	ldr	r2, [r3, #1028]
    ccdc:	e5d20011 	ldrb	r0, [r2, #17]
    cce0:	e5d23010 	ldrb	r3, [r2, #16]
    cce4:	e5d21012 	ldrb	r1, [r2, #18]
    cce8:	e1833400 	orr	r3, r3, r0, lsl #8
    ccec:	e5d22013 	ldrb	r2, [r2, #19]
    ccf0:	e1833801 	orr	r3, r3, r1, lsl #16
    ccf4:	e1833c02 	orr	r3, r3, r2, lsl #24
    ccf8:	e5d3100c 	ldrb	r1, [r3, #12]
    ccfc:	e5d3000d 	ldrb	r0, [r3, #13]
    cd00:	e5d3200e 	ldrb	r2, [r3, #14]
    cd04:	e1810400 	orr	r0, r1, r0, lsl #8
    cd08:	e5d3300f 	ldrb	r3, [r3, #15]
    cd0c:	e1800802 	orr	r0, r0, r2, lsl #16
    cd10:	e1800c03 	orr	r0, r0, r3, lsl #24
    cd14:	e8bd4008 	pop	{r3, lr}
    cd18:	e12fff1e 	bx	lr
    cd1c:	00015a0c 	.word	0x00015a0c

0000cd20 <KeyboadGetKeyIsDown>:
    cd20:	e92d4038 	push	{r3, r4, r5, lr}
    cd24:	e1a05001 	mov	r5, r1
    cd28:	ebfffc86 	bl	bf48 <KeyboardIndex>
    cd2c:	e3700001 	cmn	r0, #1	; 0x1
    cd30:	0a000022 	beq	cdc0 <KeyboadGetKeyIsDown+0xa0>
    cd34:	e59f3098 	ldr	r3, [pc, #152]	; cdd4 <KeyboadGetKeyIsDown+0xb4>
    cd38:	e7933100 	ldr	r3, [r3, r0, lsl #2]
    cd3c:	e5933404 	ldr	r3, [r3, #1028]
    cd40:	e5d31010 	ldrb	r1, [r3, #16]
    cd44:	e5d3c011 	ldrb	ip, [r3, #17]
    cd48:	e5d32012 	ldrb	r2, [r3, #18]
    cd4c:	e181c40c 	orr	ip, r1, ip, lsl #8
    cd50:	e5d33013 	ldrb	r3, [r3, #19]
    cd54:	e18cc802 	orr	ip, ip, r2, lsl #16
    cd58:	e18ccc03 	orr	ip, ip, r3, lsl #24
    cd5c:	e5dc300c 	ldrb	r3, [ip, #12]
    cd60:	e5dc000d 	ldrb	r0, [ip, #13]
    cd64:	e5dc200e 	ldrb	r2, [ip, #14]
    cd68:	e1830400 	orr	r0, r3, r0, lsl #8
    cd6c:	e5dc300f 	ldrb	r3, [ip, #15]
    cd70:	e1800802 	orr	r0, r0, r2, lsl #16
    cd74:	e1900c03 	orrs	r0, r0, r3, lsl #24
    cd78:	0a000011 	beq	cdc4 <KeyboadGetKeyIsDown+0xa4>
    cd7c:	e5dc3010 	ldrb	r3, [ip, #16]
    cd80:	e5dc2011 	ldrb	r2, [ip, #17]
    cd84:	e1833402 	orr	r3, r3, r2, lsl #8
    cd88:	e1530005 	cmp	r3, r5
    cd8c:	0a00000e 	beq	cdcc <KeyboadGetKeyIsDown+0xac>
    cd90:	e3a03000 	mov	r3, #0	; 0x0
    cd94:	ea000004 	b	cdac <KeyboadGetKeyIsDown+0x8c>
    cd98:	e7dc2082 	ldrb	r2, [ip, r2, lsl #1]
    cd9c:	e5d44001 	ldrb	r4, [r4, #1]
    cda0:	e1822404 	orr	r2, r2, r4, lsl #8
    cda4:	e1520005 	cmp	r2, r5
    cda8:	0a000007 	beq	cdcc <KeyboadGetKeyIsDown+0xac>
    cdac:	e2833001 	add	r3, r3, #1	; 0x1
    cdb0:	e2832008 	add	r2, r3, #8	; 0x8
    cdb4:	e1530000 	cmp	r3, r0
    cdb8:	e08c4082 	add	r4, ip, r2, lsl #1
    cdbc:	1afffff5 	bne	cd98 <KeyboadGetKeyIsDown+0x78>
    cdc0:	e3a00000 	mov	r0, #0	; 0x0
    cdc4:	e8bd4038 	pop	{r3, r4, r5, lr}
    cdc8:	e12fff1e 	bx	lr
    cdcc:	e3a00001 	mov	r0, #1	; 0x1
    cdd0:	eafffffb 	b	cdc4 <KeyboadGetKeyIsDown+0xa4>
    cdd4:	00015a0c 	.word	0x00015a0c

0000cdd8 <KeyboardGetKeyDown>:
    cdd8:	e92d4070 	push	{r4, r5, r6, lr}
    cddc:	e1a05000 	mov	r5, r0
    cde0:	e1a04001 	mov	r4, r1
    cde4:	ebffffb4 	bl	ccbc <KeyboardGetKeyDownCount>
    cde8:	e1a06000 	mov	r6, r0
    cdec:	e1a00005 	mov	r0, r5
    cdf0:	ebfffc54 	bl	bf48 <KeyboardIndex>
    cdf4:	e3700001 	cmn	r0, #1	; 0x1
    cdf8:	0a000011 	beq	ce44 <KeyboardGetKeyDown+0x6c>
    cdfc:	e59f204c 	ldr	r2, [pc, #76]	; ce50 <KeyboardGetKeyDown+0x78>
    ce00:	e7923100 	ldr	r3, [r2, r0, lsl #2]
    ce04:	e5933404 	ldr	r3, [r3, #1028]
    ce08:	e5d32010 	ldrb	r2, [r3, #16]
    ce0c:	e5d31011 	ldrb	r1, [r3, #17]
    ce10:	e5d30012 	ldrb	r0, [r3, #18]
    ce14:	e1821401 	orr	r1, r2, r1, lsl #8
    ce18:	e5d32013 	ldrb	r2, [r3, #19]
    ce1c:	e1560004 	cmp	r6, r4
    ce20:	e1813800 	orr	r3, r1, r0, lsl #16
    ce24:	e1833c02 	orr	r3, r3, r2, lsl #24
    ce28:	9a000005 	bls	ce44 <KeyboardGetKeyDown+0x6c>
    ce2c:	e2844008 	add	r4, r4, #8	; 0x8
    ce30:	e0832084 	add	r2, r3, r4, lsl #1
    ce34:	e5d20001 	ldrb	r0, [r2, #1]
    ce38:	e7d33084 	ldrb	r3, [r3, r4, lsl #1]
    ce3c:	e1830400 	orr	r0, r3, r0, lsl #8
    ce40:	ea000000 	b	ce48 <KeyboardGetKeyDown+0x70>
    ce44:	e3a00000 	mov	r0, #0	; 0x0
    ce48:	e8bd4070 	pop	{r4, r5, r6, lr}
    ce4c:	e12fff1e 	bx	lr
    ce50:	00015a0c 	.word	0x00015a0c

0000ce54 <MemoryReserve>:
    ce54:	e1a00001 	mov	r0, r1
    ce58:	e12fff1e 	bx	lr

0000ce5c <MemoryAllocate>:
    ce5c:	e59f1430 	ldr	r1, [pc, #1072]	; d294 <MemoryAllocate+0x438>
    ce60:	e5913000 	ldr	r3, [r1]
    ce64:	e3530000 	cmp	r3, #0	; 0x0
    ce68:	e92d0ff0 	push	{r4, r5, r6, r7, r8, r9, sl, fp}
    ce6c:	059f3424 	ldreq	r3, [pc, #1060]	; d298 <MemoryAllocate+0x43c>
    ce70:	e59f641c 	ldr	r6, [pc, #1052]	; d294 <MemoryAllocate+0x438>
    ce74:	e2602000 	rsb	r2, r0, #0	; 0x0
    ce78:	05813000 	streq	r3, [r1]
    ce7c:	e2022007 	and	r2, r2, #7	; 0x7
    ce80:	e5963004 	ldr	r3, [r6, #4]
    ce84:	e082b000 	add	fp, r2, r0
    ce88:	e08b3003 	add	r3, fp, r3
    ce8c:	e24dd010 	sub	sp, sp, #16	; 0x10
    ce90:	e3530901 	cmp	r3, #16384	; 0x4000
    ce94:	e58d3008 	str	r3, [sp, #8]
    ce98:	e1a03006 	mov	r3, r6
    ce9c:	8a0000a1 	bhi	d128 <MemoryAllocate+0x2cc>
    cea0:	e5961000 	ldr	r1, [r6]
    cea4:	e3710001 	cmn	r1, #1	; 0x1
    cea8:	0a00009e 	beq	d128 <MemoryAllocate+0x2cc>
    ceac:	e59f03e8 	ldr	r0, [pc, #1000]	; d29c <MemoryAllocate+0x440>
    ceb0:	e5902000 	ldr	r2, [r0]
    ceb4:	e3720001 	cmn	r2, #1	; 0x1
    ceb8:	0a000076 	beq	d098 <MemoryAllocate+0x23c>
    cebc:	e5d20009 	ldrb	r0, [r2, #9]
    cec0:	e5d23008 	ldrb	r3, [r2, #8]
    cec4:	e5d2c00a 	ldrb	ip, [r2, #10]
    cec8:	e1833400 	orr	r3, r3, r0, lsl #8
    cecc:	e5d2000b 	ldrb	r0, [r2, #11]
    ced0:	e183380c 	orr	r3, r3, ip, lsl #16
    ced4:	e1833c00 	orr	r3, r3, r0, lsl #24
    ced8:	e3730001 	cmn	r3, #1	; 0x1
    cedc:	0a0000db 	beq	d250 <MemoryAllocate+0x3f4>
    cee0:	e5d20004 	ldrb	r0, [r2, #4]
    cee4:	e5d36004 	ldrb	r6, [r3, #4]
    cee8:	e5d29005 	ldrb	r9, [r2, #5]
    ceec:	e5d37005 	ldrb	r7, [r3, #5]
    cef0:	e5d24001 	ldrb	r4, [r2, #1]
    cef4:	e5d2a006 	ldrb	sl, [r2, #6]
    cef8:	e5d2c000 	ldrb	ip, [r2]
    cefc:	e5d38006 	ldrb	r8, [r3, #6]
    cf00:	e1809409 	orr	r9, r0, r9, lsl #8
    cf04:	e5d25002 	ldrb	r5, [r2, #2]
    cf08:	e5d20007 	ldrb	r0, [r2, #7]
    cf0c:	e1867407 	orr	r7, r6, r7, lsl #8
    cf10:	e5d36007 	ldrb	r6, [r3, #7]
    cf14:	e18cc404 	orr	ip, ip, r4, lsl #8
    cf18:	e189980a 	orr	r9, r9, sl, lsl #16
    cf1c:	e5d24003 	ldrb	r4, [r2, #3]
    cf20:	e1877808 	orr	r7, r7, r8, lsl #16
    cf24:	e1899c00 	orr	r9, r9, r0, lsl #24
    cf28:	e18cc805 	orr	ip, ip, r5, lsl #16
    cf2c:	e1876c06 	orr	r6, r7, r6, lsl #24
    cf30:	e18ccc04 	orr	ip, ip, r4, lsl #24
    cf34:	e0696006 	rsb	r6, r9, r6
    cf38:	e06c6006 	rsb	r6, ip, r6
    cf3c:	e15b0006 	cmp	fp, r6
    cf40:	858d100c 	strhi	r1, [sp, #12]
    cf44:	8a000001 	bhi	cf50 <MemoryAllocate+0xf4>
    cf48:	ea000078 	b	d130 <MemoryAllocate+0x2d4>
    cf4c:	e1a03002 	mov	r3, r2
    cf50:	e5d32008 	ldrb	r2, [r3, #8]
    cf54:	e5d3c009 	ldrb	ip, [r3, #9]
    cf58:	e5d3000a 	ldrb	r0, [r3, #10]
    cf5c:	e5d3100b 	ldrb	r1, [r3, #11]
    cf60:	e182240c 	orr	r2, r2, ip, lsl #8
    cf64:	e1822800 	orr	r2, r2, r0, lsl #16
    cf68:	e1822c01 	orr	r2, r2, r1, lsl #24
    cf6c:	e3720001 	cmn	r2, #1	; 0x1
    cf70:	e58d2004 	str	r2, [sp, #4]
    cf74:	0a000070 	beq	d13c <MemoryAllocate+0x2e0>
    cf78:	e5d30004 	ldrb	r0, [r3, #4]
    cf7c:	e5d21004 	ldrb	r1, [r2, #4]
    cf80:	e5d3a005 	ldrb	sl, [r3, #5]
    cf84:	e5d25005 	ldrb	r5, [r2, #5]
    cf88:	e5d39006 	ldrb	r9, [r3, #6]
    cf8c:	e5d37000 	ldrb	r7, [r3]
    cf90:	e5d38001 	ldrb	r8, [r3, #1]
    cf94:	e5d26006 	ldrb	r6, [r2, #6]
    cf98:	e180a40a 	orr	sl, r0, sl, lsl #8
    cf9c:	e1815405 	orr	r5, r1, r5, lsl #8
    cfa0:	e5d34007 	ldrb	r4, [r3, #7]
    cfa4:	e5d3c002 	ldrb	ip, [r3, #2]
    cfa8:	e5d20007 	ldrb	r0, [r2, #7]
    cfac:	e5d31003 	ldrb	r1, [r3, #3]
    cfb0:	e18aa809 	orr	sl, sl, r9, lsl #16
    cfb4:	e1877408 	orr	r7, r7, r8, lsl #8
    cfb8:	e1855806 	orr	r5, r5, r6, lsl #16
    cfbc:	e18a9c04 	orr	r9, sl, r4, lsl #24
    cfc0:	e187c80c 	orr	ip, r7, ip, lsl #16
    cfc4:	e1850c00 	orr	r0, r5, r0, lsl #24
    cfc8:	e18ccc01 	orr	ip, ip, r1, lsl #24
    cfcc:	e0690000 	rsb	r0, r9, r0
    cfd0:	e06c0000 	rsb	r0, ip, r0
    cfd4:	e15b0000 	cmp	fp, r0
    cfd8:	8affffdb 	bhi	cf4c <MemoryAllocate+0xf0>
    cfdc:	e59d100c 	ldr	r1, [sp, #12]
    cfe0:	e5d10009 	ldrb	r0, [r1, #9]
    cfe4:	e5d12008 	ldrb	r2, [r1, #8]
    cfe8:	e5d1500a 	ldrb	r5, [r1, #10]
    cfec:	e1822400 	orr	r2, r2, r0, lsl #8
    cff0:	e5d1400b 	ldrb	r4, [r1, #11]
    cff4:	e089000c 	add	r0, r9, ip
    cff8:	e1822805 	orr	r2, r2, r5, lsl #16
    cffc:	e1a0a420 	lsr	sl, r0, #8
    d000:	e1a08820 	lsr	r8, r0, #16
    d004:	e1a07c20 	lsr	r7, r0, #24
    d008:	e1a0642b 	lsr	r6, fp, #8
    d00c:	e1a0582b 	lsr	r5, fp, #16
    d010:	e1a0cc2b 	lsr	ip, fp, #24
    d014:	e1922c04 	orrs	r2, r2, r4, lsl #24
    d018:	e5c10004 	strb	r0, [r1, #4]
    d01c:	e5c1a005 	strb	sl, [r1, #5]
    d020:	e5c18006 	strb	r8, [r1, #6]
    d024:	e5c17007 	strb	r7, [r1, #7]
    d028:	e5c1b000 	strb	fp, [r1]
    d02c:	e5c16001 	strb	r6, [r1, #1]
    d030:	e5c15002 	strb	r5, [r1, #2]
    d034:	e5c1c003 	strb	ip, [r1, #3]
    d038:	0a00007b 	beq	d22c <MemoryAllocate+0x3d0>
    d03c:	e59f6250 	ldr	r6, [pc, #592]	; d294 <MemoryAllocate+0x438>
    d040:	e5862000 	str	r2, [r6]
    d044:	e59d8004 	ldr	r8, [sp, #4]
    d048:	e1a0c821 	lsr	ip, r1, #16
    d04c:	e1a04421 	lsr	r4, r1, #8
    d050:	e1a02c21 	lsr	r2, r1, #24
    d054:	e1a07428 	lsr	r7, r8, #8
    d058:	e1a06828 	lsr	r6, r8, #16
    d05c:	e1a05c28 	lsr	r5, r8, #24
    d060:	e5c18008 	strb	r8, [r1, #8]
    d064:	e5c17009 	strb	r7, [r1, #9]
    d068:	e5c1600a 	strb	r6, [r1, #10]
    d06c:	e5c1500b 	strb	r5, [r1, #11]
    d070:	e5c31008 	strb	r1, [r3, #8]
    d074:	e5c34009 	strb	r4, [r3, #9]
    d078:	e5c3c00a 	strb	ip, [r3, #10]
    d07c:	e5c3200b 	strb	r2, [r3, #11]
    d080:	e59dc008 	ldr	ip, [sp, #8]
    d084:	e59f1208 	ldr	r1, [pc, #520]	; d294 <MemoryAllocate+0x438>
    d088:	e581c004 	str	ip, [r1, #4]
    d08c:	e28dd010 	add	sp, sp, #16	; 0x10
    d090:	e8bd0ff0 	pop	{r4, r5, r6, r7, r8, r9, sl, fp}
    d094:	e12fff1e 	bx	lr
    d098:	e5d17009 	ldrb	r7, [r1, #9]
    d09c:	e5d14008 	ldrb	r4, [r1, #8]
    d0a0:	e5d1600a 	ldrb	r6, [r1, #10]
    d0a4:	e59fc1f4 	ldr	ip, [pc, #500]	; d2a0 <MemoryAllocate+0x444>
    d0a8:	e1844407 	orr	r4, r4, r7, lsl #8
    d0ac:	e1844806 	orr	r4, r4, r6, lsl #16
    d0b0:	e1a0842b 	lsr	r8, fp, #8
    d0b4:	e1a0642c 	lsr	r6, ip, #8
    d0b8:	e1a0a82b 	lsr	sl, fp, #16
    d0bc:	e1a09c2b 	lsr	r9, fp, #24
    d0c0:	e5d1500b 	ldrb	r5, [r1, #11]
    d0c4:	e58d6004 	str	r6, [sp, #4]
    d0c8:	e5801000 	str	r1, [r0]
    d0cc:	e5c12008 	strb	r2, [r1, #8]
    d0d0:	e5c12009 	strb	r2, [r1, #9]
    d0d4:	e5c1200a 	strb	r2, [r1, #10]
    d0d8:	e5c1200b 	strb	r2, [r1, #11]
    d0dc:	e5c1b000 	strb	fp, [r1]
    d0e0:	e5c18001 	strb	r8, [r1, #1]
    d0e4:	e5c1a002 	strb	sl, [r1, #2]
    d0e8:	e5c19003 	strb	r9, [r1, #3]
    d0ec:	e5c1c004 	strb	ip, [r1, #4]
    d0f0:	e59d8004 	ldr	r8, [sp, #4]
    d0f4:	e1a0782c 	lsr	r7, ip, #16
    d0f8:	e1a06c2c 	lsr	r6, ip, #24
    d0fc:	e1944c05 	orrs	r4, r4, r5, lsl #24
    d100:	e5c18005 	strb	r8, [r1, #5]
    d104:	e5c17006 	strb	r7, [r1, #6]
    d108:	e5c16007 	strb	r6, [r1, #7]
    d10c:	15834000 	strne	r4, [r3]
    d110:	0a000050 	beq	d258 <MemoryAllocate+0x3fc>
    d114:	e59dc008 	ldr	ip, [sp, #8]
    d118:	e59f1174 	ldr	r1, [pc, #372]	; d294 <MemoryAllocate+0x438>
    d11c:	e59f017c 	ldr	r0, [pc, #380]	; d2a0 <MemoryAllocate+0x444>
    d120:	e581c004 	str	ip, [r1, #4]
    d124:	eaffffd8 	b	d08c <MemoryAllocate+0x230>
    d128:	e3a00000 	mov	r0, #0	; 0x0
    d12c:	eaffffd6 	b	d08c <MemoryAllocate+0x230>
    d130:	e58d3004 	str	r3, [sp, #4]
    d134:	e1a03002 	mov	r3, r2
    d138:	eaffffa8 	b	cfe0 <MemoryAllocate+0x184>
    d13c:	e59d100c 	ldr	r1, [sp, #12]
    d140:	e5d32000 	ldrb	r2, [r3]
    d144:	e5d3c001 	ldrb	ip, [r3, #1]
    d148:	e5d30002 	ldrb	r0, [r3, #2]
    d14c:	e182240c 	orr	r2, r2, ip, lsl #8
    d150:	e5d34003 	ldrb	r4, [r3, #3]
    d154:	e1822800 	orr	r2, r2, r0, lsl #16
    d158:	e1824c04 	orr	r4, r2, r4, lsl #24
    d15c:	e59f2140 	ldr	r2, [pc, #320]	; d2a4 <MemoryAllocate+0x448>
    d160:	e0642002 	rsb	r2, r4, r2
    d164:	e15b0002 	cmp	fp, r2
    d168:	8affffee 	bhi	d128 <MemoryAllocate+0x2cc>
    d16c:	e5d32004 	ldrb	r2, [r3, #4]
    d170:	e5d30005 	ldrb	r0, [r3, #5]
    d174:	e5d35006 	ldrb	r5, [r3, #6]
    d178:	e5d36007 	ldrb	r6, [r3, #7]
    d17c:	e1820400 	orr	r0, r2, r0, lsl #8
    d180:	e5d1c009 	ldrb	ip, [r1, #9]
    d184:	e5d12008 	ldrb	r2, [r1, #8]
    d188:	e1800805 	orr	r0, r0, r5, lsl #16
    d18c:	e5d1500a 	ldrb	r5, [r1, #10]
    d190:	e1800c06 	orr	r0, r0, r6, lsl #24
    d194:	e182240c 	orr	r2, r2, ip, lsl #8
    d198:	e5d1c00b 	ldrb	ip, [r1, #11]
    d19c:	e0800004 	add	r0, r0, r4
    d1a0:	e1822805 	orr	r2, r2, r5, lsl #16
    d1a4:	e1a0a420 	lsr	sl, r0, #8
    d1a8:	e1a08820 	lsr	r8, r0, #16
    d1ac:	e1a07c20 	lsr	r7, r0, #24
    d1b0:	e1a0642b 	lsr	r6, fp, #8
    d1b4:	e1a0582b 	lsr	r5, fp, #16
    d1b8:	e1a04c2b 	lsr	r4, fp, #24
    d1bc:	e1922c0c 	orrs	r2, r2, ip, lsl #24
    d1c0:	e5c10004 	strb	r0, [r1, #4]
    d1c4:	e5c1a005 	strb	sl, [r1, #5]
    d1c8:	e5c18006 	strb	r8, [r1, #6]
    d1cc:	e5c17007 	strb	r7, [r1, #7]
    d1d0:	e5c1b000 	strb	fp, [r1]
    d1d4:	e5c16001 	strb	r6, [r1, #1]
    d1d8:	e5c15002 	strb	r5, [r1, #2]
    d1dc:	e5c14003 	strb	r4, [r1, #3]
    d1e0:	0a000022 	beq	d270 <MemoryAllocate+0x414>
    d1e4:	e59fc0a8 	ldr	ip, [pc, #168]	; d294 <MemoryAllocate+0x438>
    d1e8:	e58c2000 	str	r2, [ip]
    d1ec:	e3e02000 	mvn	r2, #0	; 0x0
    d1f0:	e1a05421 	lsr	r5, r1, #8
    d1f4:	e1a04821 	lsr	r4, r1, #16
    d1f8:	e1a0cc21 	lsr	ip, r1, #24
    d1fc:	e5c12008 	strb	r2, [r1, #8]
    d200:	e5c12009 	strb	r2, [r1, #9]
    d204:	e5c1200a 	strb	r2, [r1, #10]
    d208:	e5c1200b 	strb	r2, [r1, #11]
    d20c:	e5c31008 	strb	r1, [r3, #8]
    d210:	e5c35009 	strb	r5, [r3, #9]
    d214:	e5c3400a 	strb	r4, [r3, #10]
    d218:	e5c3c00b 	strb	ip, [r3, #11]
    d21c:	e59d1008 	ldr	r1, [sp, #8]
    d220:	e59f206c 	ldr	r2, [pc, #108]	; d294 <MemoryAllocate+0x438>
    d224:	e5821004 	str	r1, [r2, #4]
    d228:	eaffff97 	b	d08c <MemoryAllocate+0x230>
    d22c:	e59fc074 	ldr	ip, [pc, #116]	; d2a8 <MemoryAllocate+0x44c>
    d230:	e281200c 	add	r2, r1, #12	; 0xc
    d234:	e152000c 	cmp	r2, ip
    d238:	359f8054 	ldrcc	r8, [pc, #84]	; d294 <MemoryAllocate+0x438>
    d23c:	259fc050 	ldrcs	ip, [pc, #80]	; d294 <MemoryAllocate+0x438>
    d240:	23e02000 	mvncs	r2, #0	; 0x0
    d244:	35882000 	strcc	r2, [r8]
    d248:	258c2000 	strcs	r2, [ip]
    d24c:	eaffff7c 	b	d044 <MemoryAllocate+0x1e8>
    d250:	e1a03002 	mov	r3, r2
    d254:	eaffffb9 	b	d140 <MemoryAllocate+0x2e4>
    d258:	e59f2048 	ldr	r2, [pc, #72]	; d2a8 <MemoryAllocate+0x44c>
    d25c:	e281100c 	add	r1, r1, #12	; 0xc
    d260:	e1510002 	cmp	r1, r2
    d264:	23e01000 	mvncs	r1, #0	; 0x0
    d268:	e5831000 	str	r1, [r3]
    d26c:	eaffffa8 	b	d114 <MemoryAllocate+0x2b8>
    d270:	e59fc030 	ldr	ip, [pc, #48]	; d2a8 <MemoryAllocate+0x44c>
    d274:	e281200c 	add	r2, r1, #12	; 0xc
    d278:	e152000c 	cmp	r2, ip
    d27c:	359f6010 	ldrcc	r6, [pc, #16]	; d294 <MemoryAllocate+0x438>
    d280:	259f800c 	ldrcs	r8, [pc, #12]	; d294 <MemoryAllocate+0x438>
    d284:	23e02000 	mvncs	r2, #0	; 0x0
    d288:	35862000 	strcc	r2, [r6]
    d28c:	25882000 	strcs	r2, [r8]
    d290:	eaffffd5 	b	d1ec <MemoryAllocate+0x390>
    d294:	00015a1c 	.word	0x00015a1c
    d298:	00019a28 	.word	0x00019a28
    d29c:	00015904 	.word	0x00015904
    d2a0:	00015a28 	.word	0x00015a28
    d2a4:	00019a29 	.word	0x00019a29
    d2a8:	0001a628 	.word	0x0001a628

0000d2ac <MemoryDeallocate>:
    d2ac:	e59f2108 	ldr	r2, [pc, #264]	; d3bc <MemoryDeallocate+0x110>
    d2b0:	e5923000 	ldr	r3, [r2]
    d2b4:	e3730001 	cmn	r3, #1	; 0x1
    d2b8:	e92d0030 	push	{r4, r5}
    d2bc:	0a00001e 	beq	d33c <MemoryDeallocate+0x90>
    d2c0:	e5d3c005 	ldrb	ip, [r3, #5]
    d2c4:	e5d31004 	ldrb	r1, [r3, #4]
    d2c8:	e5d34006 	ldrb	r4, [r3, #6]
    d2cc:	e181140c 	orr	r1, r1, ip, lsl #8
    d2d0:	e5d3c007 	ldrb	ip, [r3, #7]
    d2d4:	e1811804 	orr	r1, r1, r4, lsl #16
    d2d8:	e1811c0c 	orr	r1, r1, ip, lsl #24
    d2dc:	e1500001 	cmp	r0, r1
    d2e0:	0a000018 	beq	d348 <MemoryDeallocate+0x9c>
    d2e4:	e1a02003 	mov	r2, r3
    d2e8:	ea000009 	b	d314 <MemoryDeallocate+0x68>
    d2ec:	e5d34005 	ldrb	r4, [r3, #5]
    d2f0:	e5d3c004 	ldrb	ip, [r3, #4]
    d2f4:	e5d35006 	ldrb	r5, [r3, #6]
    d2f8:	e18cc404 	orr	ip, ip, r4, lsl #8
    d2fc:	e5d34007 	ldrb	r4, [r3, #7]
    d300:	e18cc805 	orr	ip, ip, r5, lsl #16
    d304:	e18ccc04 	orr	ip, ip, r4, lsl #24
    d308:	e150000c 	cmp	r0, ip
    d30c:	0a00000c 	beq	d344 <MemoryDeallocate+0x98>
    d310:	e1a02001 	mov	r2, r1
    d314:	e5d31008 	ldrb	r1, [r3, #8]
    d318:	e5d3c009 	ldrb	ip, [r3, #9]
    d31c:	e5d3400a 	ldrb	r4, [r3, #10]
    d320:	e181c40c 	orr	ip, r1, ip, lsl #8
    d324:	e5d3100b 	ldrb	r1, [r3, #11]
    d328:	e18c3804 	orr	r3, ip, r4, lsl #16
    d32c:	e1833c01 	orr	r3, r3, r1, lsl #24
    d330:	e3730001 	cmn	r3, #1	; 0x1
    d334:	e5921008 	ldr	r1, [r2, #8]
    d338:	1affffeb 	bne	d2ec <MemoryDeallocate+0x40>
    d33c:	e8bd0030 	pop	{r4, r5}
    d340:	e12fff1e 	bx	lr
    d344:	e2822008 	add	r2, r2, #8	; 0x8
    d348:	e5d3c001 	ldrb	ip, [r3, #1]
    d34c:	e5d30000 	ldrb	r0, [r3]
    d350:	e59f1068 	ldr	r1, [pc, #104]	; d3c0 <MemoryDeallocate+0x114>
    d354:	e5d35002 	ldrb	r5, [r3, #2]
    d358:	e5d34003 	ldrb	r4, [r3, #3]
    d35c:	e180040c 	orr	r0, r0, ip, lsl #8
    d360:	e1800805 	orr	r0, r0, r5, lsl #16
    d364:	e591c004 	ldr	ip, [r1, #4]
    d368:	e1800c04 	orr	r0, r0, r4, lsl #24
    d36c:	e060000c 	rsb	r0, r0, ip
    d370:	e5810004 	str	r0, [r1, #4]
    d374:	e5d30008 	ldrb	r0, [r3, #8]
    d378:	e5d35009 	ldrb	r5, [r3, #9]
    d37c:	e5d3400a 	ldrb	r4, [r3, #10]
    d380:	e5d3c00b 	ldrb	ip, [r3, #11]
    d384:	e1800405 	orr	r0, r0, r5, lsl #8
    d388:	e1800804 	orr	r0, r0, r4, lsl #16
    d38c:	e1800c0c 	orr	r0, r0, ip, lsl #24
    d390:	e5820000 	str	r0, [r2]
    d394:	e5d12000 	ldrb	r2, [r1]
    d398:	e5c32008 	strb	r2, [r3, #8]
    d39c:	e5d12001 	ldrb	r2, [r1, #1]
    d3a0:	e5c32009 	strb	r2, [r3, #9]
    d3a4:	e5d12002 	ldrb	r2, [r1, #2]
    d3a8:	e5c3200a 	strb	r2, [r3, #10]
    d3ac:	e5d12003 	ldrb	r2, [r1, #3]
    d3b0:	e5c3200b 	strb	r2, [r3, #11]
    d3b4:	e5813000 	str	r3, [r1]
    d3b8:	eaffffdf 	b	d33c <MemoryDeallocate+0x90>
    d3bc:	00015904 	.word	0x00015904
    d3c0:	00015a1c 	.word	0x00015a1c

0000d3c4 <MemoryCopy>:
    d3c4:	e3520000 	cmp	r2, #0	; 0x0
    d3c8:	012fff1e 	bxeq	lr
    d3cc:	e1510000 	cmp	r1, r0
    d3d0:	2a000006 	bcs	d3f0 <MemoryCopy+0x2c>
    d3d4:	e2411001 	sub	r1, r1, #1	; 0x1
    d3d8:	e0802002 	add	r2, r0, r2
    d3dc:	e5f13001 	ldrb	r3, [r1, #1]!
    d3e0:	e4c03001 	strb	r3, [r0], #1
    d3e4:	e1500002 	cmp	r0, r2
    d3e8:	1afffffb 	bne	d3dc <MemoryCopy+0x18>
    d3ec:	e12fff1e 	bx	lr
    d3f0:	e2423001 	sub	r3, r2, #1	; 0x1
    d3f4:	e0811002 	add	r1, r1, r2
    d3f8:	e0800002 	add	r0, r0, r2
    d3fc:	e5712001 	ldrb	r2, [r1, #-1]!
    d400:	e2433001 	sub	r3, r3, #1	; 0x1
    d404:	e3730001 	cmn	r3, #1	; 0x1
    d408:	e5602001 	strb	r2, [r0, #-1]!
    d40c:	1afffffa 	bne	d3fc <MemoryCopy+0x38>
    d410:	e12fff1e 	bx	lr

0000d414 <UsbGetRootHub>:
    d414:	e59f3004 	ldr	r3, [pc, #4]	; d420 <UsbGetRootHub+0xc>
    d418:	e5930000 	ldr	r0, [r3]
    d41c:	e12fff1e 	bx	lr
    d420:	0001a628 	.word	0x0001a628

0000d424 <UsbPrintDeviceTree>:
    d424:	e1a02081 	lsl	r2, r1, #1
    d428:	e59f30b8 	ldr	r3, [pc, #184]	; d4e8 <UsbPrintDeviceTree+0xc4>
    d42c:	e92d4070 	push	{r4, r5, r6, lr}
    d430:	e2822001 	add	r2, r2, #1	; 0x1
    d434:	e3a05000 	mov	r5, #0	; 0x0
    d438:	e3500000 	cmp	r0, #0	; 0x0
    d43c:	e7c25003 	strb	r5, [r2, r3]
    d440:	0a000006 	beq	d460 <UsbPrintDeviceTree+0x3c>
    d444:	e3a0c020 	mov	ip, #32	; 0x20
    d448:	e7c2c003 	strb	ip, [r2, r3]
    d44c:	e5904404 	ldr	r4, [r0, #1028]
    d450:	e59f2094 	ldr	r2, [pc, #148]	; d4ec <UsbPrintDeviceTree+0xc8>
    d454:	e5940000 	ldr	r0, [r4]
    d458:	e1500002 	cmp	r0, r2
    d45c:	0a000001 	beq	d468 <UsbPrintDeviceTree+0x44>
    d460:	e8bd4070 	pop	{r4, r5, r6, lr}
    d464:	e12fff1e 	bx	lr
    d468:	e7c3c081 	strb	ip, [r3, r1, lsl #1]
    d46c:	e5d42011 	ldrb	r2, [r4, #17]
    d470:	e5d43010 	ldrb	r3, [r4, #16]
    d474:	e5d40012 	ldrb	r0, [r4, #18]
    d478:	e1833402 	orr	r3, r3, r2, lsl #8
    d47c:	e5d42013 	ldrb	r2, [r4, #19]
    d480:	e1833800 	orr	r3, r3, r0, lsl #16
    d484:	e1932c02 	orrs	r2, r3, r2, lsl #24
    d488:	0afffff4 	beq	d460 <UsbPrintDeviceTree+0x3c>
    d48c:	e2816001 	add	r6, r1, #1	; 0x1
    d490:	e285300e 	add	r3, r5, #14	; 0xe
    d494:	e0843103 	add	r3, r4, r3, lsl #2
    d498:	e5d30005 	ldrb	r0, [r3, #5]
    d49c:	e5d32004 	ldrb	r2, [r3, #4]
    d4a0:	e5d31006 	ldrb	r1, [r3, #6]
    d4a4:	e1822400 	orr	r2, r2, r0, lsl #8
    d4a8:	e5d30007 	ldrb	r0, [r3, #7]
    d4ac:	e1823801 	orr	r3, r2, r1, lsl #16
    d4b0:	e1930c00 	orrs	r0, r3, r0, lsl #24
    d4b4:	e1a01006 	mov	r1, r6
    d4b8:	ebffffd9 	bl	d424 <UsbPrintDeviceTree>
    d4bc:	e5d42011 	ldrb	r2, [r4, #17]
    d4c0:	e5d43010 	ldrb	r3, [r4, #16]
    d4c4:	e5d41012 	ldrb	r1, [r4, #18]
    d4c8:	e1833402 	orr	r3, r3, r2, lsl #8
    d4cc:	e5d42013 	ldrb	r2, [r4, #19]
    d4d0:	e1833801 	orr	r3, r3, r1, lsl #16
    d4d4:	e2855001 	add	r5, r5, #1	; 0x1
    d4d8:	e1833c02 	orr	r3, r3, r2, lsl #24
    d4dc:	e1530005 	cmp	r3, r5
    d4e0:	8affffea 	bhi	d490 <UsbPrintDeviceTree+0x6c>
    d4e4:	eaffffdd 	b	d460 <UsbPrintDeviceTree+0x3c>
    d4e8:	000130b4 	.word	0x000130b4
    d4ec:	48554230 	.word	0x48554230

0000d4f0 <UsbControlMessage>:
    d4f0:	e92d40f0 	push	{r4, r5, r6, r7, lr}
    d4f4:	e24dd014 	sub	sp, sp, #20	; 0x14
    d4f8:	e59dc028 	ldr	ip, [sp, #40]
    d4fc:	e58dc000 	str	ip, [sp]
    d500:	e1a05000 	mov	r5, r0
    d504:	e58d100c 	str	r1, [sp, #12]
    d508:	e59d602c 	ldr	r6, [sp, #44]
    d50c:	eb00112d 	bl	119c8 <HcdSumbitControlMessage>
    d510:	e2507000 	subs	r7, r0, #0	; 0x0
    d514:	1a00002a 	bne	d5c4 <UsbControlMessage+0xd4>
    d518:	e3560000 	cmp	r6, #0	; 0x0
    d51c:	e2466001 	sub	r6, r6, #1	; 0x1
    d520:	0a00000c 	beq	d558 <UsbControlMessage+0x68>
    d524:	e5953008 	ldr	r3, [r5, #8]
    d528:	e3530000 	cmp	r3, #0	; 0x0
    d52c:	aa000009 	bge	d558 <UsbControlMessage+0x68>
    d530:	e1a04007 	mov	r4, r7
    d534:	ea000003 	b	d548 <UsbControlMessage+0x58>
    d538:	e5953008 	ldr	r3, [r5, #8]
    d53c:	e3530000 	cmp	r3, #0	; 0x0
    d540:	e2844001 	add	r4, r4, #1	; 0x1
    d544:	aa000003 	bge	d558 <UsbControlMessage+0x68>
    d548:	e3a00ffa 	mov	r0, #1000	; 0x3e8
    d54c:	eb00159a 	bl	12bbc <MicroDelay>
    d550:	e1560004 	cmp	r6, r4
    d554:	1afffff7 	bne	d538 <UsbControlMessage+0x48>
    d558:	e5953008 	ldr	r3, [r5, #8]
    d55c:	e3530000 	cmp	r3, #0	; 0x0
    d560:	ba00001e 	blt	d5e0 <UsbControlMessage+0xf0>
    d564:	e5953008 	ldr	r3, [r5, #8]
    d568:	e3c33102 	bic	r3, r3, #-2147483648	; 0x80000000
    d56c:	e3530000 	cmp	r3, #0	; 0x0
    d570:	0a000013 	beq	d5c4 <UsbControlMessage+0xd4>
    d574:	e59543fc 	ldr	r4, [r5, #1020]
    d578:	e3540000 	cmp	r4, #0	; 0x0
    d57c:	0a000010 	beq	d5c4 <UsbControlMessage+0xd4>
    d580:	e5d55007 	ldrb	r5, [r5, #7]
    d584:	e1a00004 	mov	r0, r4
    d588:	e1a01005 	mov	r1, r5
    d58c:	eb000ceb 	bl	10940 <HubCheckConnection>
    d590:	e2507000 	subs	r7, r0, #0	; 0x0
    d594:	1a00000f 	bne	d5d8 <UsbControlMessage+0xe8>
    d598:	e5943404 	ldr	r3, [r4, #1028]
    d59c:	e285500e 	add	r5, r5, #14	; 0xe
    d5a0:	e0833105 	add	r3, r3, r5, lsl #2
    d5a4:	e5d32004 	ldrb	r2, [r3, #4]
    d5a8:	e5d31005 	ldrb	r1, [r3, #5]
    d5ac:	e5d30006 	ldrb	r0, [r3, #6]
    d5b0:	e1821401 	orr	r1, r2, r1, lsl #8
    d5b4:	e5d32007 	ldrb	r2, [r3, #7]
    d5b8:	e1813800 	orr	r3, r1, r0, lsl #16
    d5bc:	e1932c02 	orrs	r2, r3, r2, lsl #24
    d5c0:	0a000004 	beq	d5d8 <UsbControlMessage+0xe8>
    d5c4:	e1a00c07 	lsl	r0, r7, #24
    d5c8:	e1a00c40 	asr	r0, r0, #24
    d5cc:	e28dd014 	add	sp, sp, #20	; 0x14
    d5d0:	e8bd40f0 	pop	{r4, r5, r6, r7, lr}
    d5d4:	e12fff1e 	bx	lr
    d5d8:	e3a070f7 	mov	r7, #247	; 0xf7
    d5dc:	eafffff8 	b	d5c4 <UsbControlMessage+0xd4>
    d5e0:	e3a070f8 	mov	r7, #248	; 0xf8
    d5e4:	eafffff6 	b	d5c4 <UsbControlMessage+0xd4>

0000d5e8 <UsbGetDescriptor>:
    d5e8:	e92d40f0 	push	{r4, r5, r6, r7, lr}
    d5ec:	e1a04000 	mov	r4, r0
    d5f0:	e5d0001b 	ldrb	r0, [r0, #27]
    d5f4:	e20000ff 	and	r0, r0, #255	; 0xff
    d5f8:	e24dd01c 	sub	sp, sp, #28	; 0x1c
    d5fc:	e3a0c000 	mov	ip, #0	; 0x0
    d600:	e3500008 	cmp	r0, #8	; 0x8
    d604:	e1a05003 	mov	r5, r3
    d608:	e59de034 	ldr	lr, [sp, #52]
    d60c:	e58dc00c 	str	ip, [sp, #12]
    d610:	9a000005 	bls	d62c <UsbGetDescriptor+0x44>
    d614:	e3500010 	cmp	r0, #16	; 0x10
    d618:	93a0c001 	movls	ip, #1	; 0x1
    d61c:	9a000002 	bls	d62c <UsbGetDescriptor+0x44>
    d620:	e3500020 	cmp	r0, #32	; 0x20
    d624:	83a0c003 	movhi	ip, #3	; 0x3
    d628:	93a0c002 	movls	ip, #2	; 0x2
    d62c:	e5dd600c 	ldrb	r6, [sp, #12]
    d630:	e5d47004 	ldrb	r7, [r4, #4]
    d634:	e20660f0 	and	r6, r6, #240	; 0xf0
    d638:	e186c00c 	orr	ip, r6, ip
    d63c:	e2077003 	and	r7, r7, #3	; 0x3
    d640:	e5dd300e 	ldrb	r3, [sp, #14]
    d644:	e18cc107 	orr	ip, ip, r7, lsl #2
    d648:	e5d46000 	ldrb	r6, [r4]
    d64c:	e5cdc00c 	strb	ip, [sp, #12]
    d650:	e5ddc03c 	ldrb	ip, [sp, #60]
    d654:	e3833004 	orr	r3, r3, #4	; 0x4
    d658:	e5cd300e 	strb	r3, [sp, #14]
    d65c:	e1e0cc8c 	mvn	ip, ip, lsl #25
    d660:	e28d3010 	add	r3, sp, #16	; 0x10
    d664:	e5cd600d 	strb	r6, [sp, #13]
    d668:	e1e0ccac 	mvn	ip, ip, lsr #25
    d66c:	e58d3000 	str	r3, [sp]
    d670:	e3a0300a 	mov	r3, #10	; 0xa
    d674:	e1826401 	orr	r6, r2, r1, lsl #8
    d678:	e58d3004 	str	r3, [sp, #4]
    d67c:	e5cdc010 	strb	ip, [sp, #16]
    d680:	e1a00004 	mov	r0, r4
    d684:	e3a0c006 	mov	ip, #6	; 0x6
    d688:	e59d100c 	ldr	r1, [sp, #12]
    d68c:	e59d2030 	ldr	r2, [sp, #48]
    d690:	e1a0300e 	mov	r3, lr
    d694:	e5cdc011 	strb	ip, [sp, #17]
    d698:	e1cd61b2 	strh	r6, [sp, #18]
    d69c:	e1cd51b4 	strh	r5, [sp, #20]
    d6a0:	e1cde1b6 	strh	lr, [sp, #22]
    d6a4:	ebffff91 	bl	d4f0 <UsbControlMessage>
    d6a8:	e3500000 	cmp	r0, #0	; 0x0
    d6ac:	1a000003 	bne	d6c0 <UsbGetDescriptor+0xd8>
    d6b0:	e5942408 	ldr	r2, [r4, #1032]
    d6b4:	e59d3038 	ldr	r3, [sp, #56]
    d6b8:	e1520003 	cmp	r2, r3
    d6bc:	33a000fc 	movcc	r0, #252	; 0xfc
    d6c0:	e1a00c00 	lsl	r0, r0, #24
    d6c4:	e1a00c40 	asr	r0, r0, #24
    d6c8:	e28dd01c 	add	sp, sp, #28	; 0x1c
    d6cc:	e8bd40f0 	pop	{r4, r5, r6, r7, lr}
    d6d0:	e12fff1e 	bx	lr

0000d6d4 <UsbGetString>:
    d6d4:	e92d47f0 	push	{r4, r5, r6, r7, r8, r9, sl, lr}
    d6d8:	e24dd010 	sub	sp, sp, #16	; 0x10
    d6dc:	e59d5030 	ldr	r5, [sp, #48]
    d6e0:	e1a09000 	mov	r9, r0
    d6e4:	e1a0a001 	mov	sl, r1
    d6e8:	e1a08002 	mov	r8, r2
    d6ec:	e1a07003 	mov	r7, r3
    d6f0:	e3a04003 	mov	r4, #3	; 0x3
    d6f4:	e3a06000 	mov	r6, #0	; 0x0
    d6f8:	e58d7000 	str	r7, [sp]
    d6fc:	e58d5004 	str	r5, [sp, #4]
    d700:	e58d5008 	str	r5, [sp, #8]
    d704:	e58d600c 	str	r6, [sp, #12]
    d708:	e1a00009 	mov	r0, r9
    d70c:	e3a01003 	mov	r1, #3	; 0x3
    d710:	e1a0200a 	mov	r2, sl
    d714:	e1a03008 	mov	r3, r8
    d718:	ebffffb2 	bl	d5e8 <UsbGetDescriptor>
    d71c:	e3500000 	cmp	r0, #0	; 0x0
    d720:	0a000001 	beq	d72c <UsbGetString+0x58>
    d724:	e2544001 	subs	r4, r4, #1	; 0x1
    d728:	1afffff2 	bne	d6f8 <UsbGetString+0x24>
    d72c:	e1a00c00 	lsl	r0, r0, #24
    d730:	e1a00c40 	asr	r0, r0, #24
    d734:	e28dd010 	add	sp, sp, #16	; 0x10
    d738:	e8bd47f0 	pop	{r4, r5, r6, r7, r8, r9, sl, lr}
    d73c:	e12fff1e 	bx	lr

0000d740 <UsbReadStringLang>:
    d740:	e92d41f0 	push	{r4, r5, r6, r7, r8, lr}
    d744:	e24dd008 	sub	sp, sp, #8	; 0x8
    d748:	e59d4020 	ldr	r4, [sp, #32]
    d74c:	e3540002 	cmp	r4, #2	; 0x2
    d750:	31a0c004 	movcc	ip, r4
    d754:	23a0c002 	movcs	ip, #2	; 0x2
    d758:	e58dc000 	str	ip, [sp]
    d75c:	e1a05000 	mov	r5, r0
    d760:	e1a08001 	mov	r8, r1
    d764:	e1a07002 	mov	r7, r2
    d768:	e1a06003 	mov	r6, r3
    d76c:	ebffffd8 	bl	d6d4 <UsbGetString>
    d770:	e3500000 	cmp	r0, #0	; 0x0
    d774:	1a00000d 	bne	d7b0 <UsbReadStringLang+0x70>
    d778:	e5953408 	ldr	r3, [r5, #1032]
    d77c:	e1530004 	cmp	r3, r4
    d780:	0a00000a 	beq	d7b0 <UsbReadStringLang+0x70>
    d784:	e5d63000 	ldrb	r3, [r6]
    d788:	e1530004 	cmp	r3, r4
    d78c:	958d3020 	strls	r3, [sp, #32]
    d790:	858d4020 	strhi	r4, [sp, #32]
    d794:	e1a00005 	mov	r0, r5
    d798:	e1a01008 	mov	r1, r8
    d79c:	e1a02007 	mov	r2, r7
    d7a0:	e1a03006 	mov	r3, r6
    d7a4:	e28dd008 	add	sp, sp, #8	; 0x8
    d7a8:	e8bd41f0 	pop	{r4, r5, r6, r7, r8, lr}
    d7ac:	eaffffc8 	b	d6d4 <UsbGetString>
    d7b0:	e1a00c00 	lsl	r0, r0, #24
    d7b4:	e1a00c40 	asr	r0, r0, #24
    d7b8:	e28dd008 	add	sp, sp, #8	; 0x8
    d7bc:	e8bd41f0 	pop	{r4, r5, r6, r7, r8, lr}
    d7c0:	e12fff1e 	bx	lr

0000d7c4 <UsbReadString>:
    d7c4:	e92d41f0 	push	{r4, r5, r6, r7, r8, lr}
    d7c8:	e3510000 	cmp	r1, #0	; 0x0
    d7cc:	13520000 	cmpne	r2, #0	; 0x0
    d7d0:	e1a06001 	mov	r6, r1
    d7d4:	e24dd010 	sub	sp, sp, #16	; 0x10
    d7d8:	e1a04002 	mov	r4, r2
    d7dc:	13a01000 	movne	r1, #0	; 0x0
    d7e0:	03a01001 	moveq	r1, #1	; 0x1
    d7e4:	e1a07000 	mov	r7, r0
    d7e8:	e1a05003 	mov	r5, r3
    d7ec:	0a00002e 	beq	d8ac <UsbReadString+0xe8>
    d7f0:	e3a03004 	mov	r3, #4	; 0x4
    d7f4:	e58d3000 	str	r3, [sp]
    d7f8:	e1a02001 	mov	r2, r1
    d7fc:	e28d300c 	add	r3, sp, #12	; 0xc
    d800:	ebffffce 	bl	d740 <UsbReadStringLang>
    d804:	e2508000 	subs	r8, r0, #0	; 0x0
    d808:	1a000022 	bne	d898 <UsbReadString+0xd4>
    d80c:	e5973408 	ldr	r3, [r7, #1032]
    d810:	e3530003 	cmp	r3, #3	; 0x3
    d814:	9a000026 	bls	d8b4 <UsbReadString+0xf0>
    d818:	e1dd20be 	ldrh	r2, [sp, #14]
    d81c:	e58d5000 	str	r5, [sp]
    d820:	e1a00007 	mov	r0, r7
    d824:	e1a01006 	mov	r1, r6
    d828:	e1a03004 	mov	r3, r4
    d82c:	ebffffc3 	bl	d740 <UsbReadStringLang>
    d830:	e2508000 	subs	r8, r0, #0	; 0x0
    d834:	1a000017 	bne	d898 <UsbReadString+0xd4>
    d838:	e2556001 	subs	r6, r5, #1	; 0x1
    d83c:	e5d40000 	ldrb	r0, [r4]
    d840:	0a00001d 	beq	d8bc <UsbReadString+0xf8>
    d844:	e2400002 	sub	r0, r0, #2	; 0x2
    d848:	e1b000c0 	asrs	r0, r0, #1
    d84c:	e1a01008 	mov	r1, r8
    d850:	0a00000d 	beq	d88c <UsbReadString+0xc8>
    d854:	e3a0703f 	mov	r7, #63	; 0x3f
    d858:	ea000001 	b	d864 <UsbReadString+0xa0>
    d85c:	e1510000 	cmp	r1, r0
    d860:	0a000009 	beq	d88c <UsbReadString+0xc8>
    d864:	e084c081 	add	ip, r4, r1, lsl #1
    d868:	e5dc2002 	ldrb	r2, [ip, #2]
    d86c:	e5dc3003 	ldrb	r3, [ip, #3]
    d870:	e1822403 	orr	r2, r2, r3, lsl #8
    d874:	e3520c01 	cmp	r2, #256	; 0x100
    d878:	21a02007 	movcs	r2, r7
    d87c:	e7c42001 	strb	r2, [r4, r1]
    d880:	e2811001 	add	r1, r1, #1	; 0x1
    d884:	e1510006 	cmp	r1, r6
    d888:	1afffff3 	bne	d85c <UsbReadString+0x98>
    d88c:	e1550001 	cmp	r5, r1
    d890:	83a03000 	movhi	r3, #0	; 0x0
    d894:	87c43001 	strbhi	r3, [r4, r1]
    d898:	e1a00c08 	lsl	r0, r8, #24
    d89c:	e1a00c40 	asr	r0, r0, #24
    d8a0:	e28dd010 	add	sp, sp, #16	; 0x10
    d8a4:	e8bd41f0 	pop	{r4, r5, r6, r7, r8, lr}
    d8a8:	e12fff1e 	bx	lr
    d8ac:	e3a080fe 	mov	r8, #254	; 0xfe
    d8b0:	eafffff8 	b	d898 <UsbReadString+0xd4>
    d8b4:	e3a080fc 	mov	r8, #252	; 0xfc
    d8b8:	eafffff6 	b	d898 <UsbReadString+0xd4>
    d8bc:	e1a01008 	mov	r1, r8
    d8c0:	eafffff1 	b	d88c <UsbReadString+0xc8>

0000d8c4 <UsbReadDeviceDescriptor>:
    d8c4:	e92d40f0 	push	{r4, r5, r6, r7, lr}
    d8c8:	e5d05004 	ldrb	r5, [r0, #4]
    d8cc:	e3550002 	cmp	r5, #2	; 0x2
    d8d0:	e24dd014 	sub	sp, sp, #20	; 0x14
    d8d4:	e1a04000 	mov	r4, r0
    d8d8:	e3a03000 	mov	r3, #0	; 0x0
    d8dc:	0a00002c 	beq	d994 <UsbReadDeviceDescriptor+0xd0>
    d8e0:	e3550001 	cmp	r5, #1	; 0x1
    d8e4:	0a00000f 	beq	d928 <UsbReadDeviceDescriptor+0x64>
    d8e8:	e3a01012 	mov	r1, #18	; 0x12
    d8ec:	e280c014 	add	ip, r0, #20	; 0x14
    d8f0:	e3a0e040 	mov	lr, #64	; 0x40
    d8f4:	e5c0e01b 	strb	lr, [r0, #27]
    d8f8:	e1a02003 	mov	r2, r3
    d8fc:	e58d1004 	str	r1, [sp, #4]
    d900:	e58d1008 	str	r1, [sp, #8]
    d904:	e58dc000 	str	ip, [sp]
    d908:	e58d300c 	str	r3, [sp, #12]
    d90c:	e3a01001 	mov	r1, #1	; 0x1
    d910:	ebffff34 	bl	d5e8 <UsbGetDescriptor>
    d914:	e1a00c00 	lsl	r0, r0, #24
    d918:	e1a00c40 	asr	r0, r0, #24
    d91c:	e28dd014 	add	sp, sp, #20	; 0x14
    d920:	e8bd40f0 	pop	{r4, r5, r6, r7, lr}
    d924:	e12fff1e 	bx	lr
    d928:	e3a01040 	mov	r1, #64	; 0x40
    d92c:	e5c0101b 	strb	r1, [r0, #27]
    d930:	e2807014 	add	r7, r0, #20	; 0x14
    d934:	e3a01008 	mov	r1, #8	; 0x8
    d938:	e3a06012 	mov	r6, #18	; 0x12
    d93c:	e58d1008 	str	r1, [sp, #8]
    d940:	e1a02003 	mov	r2, r3
    d944:	e58d7000 	str	r7, [sp]
    d948:	e58d6004 	str	r6, [sp, #4]
    d94c:	e58d300c 	str	r3, [sp, #12]
    d950:	e1a01005 	mov	r1, r5
    d954:	ebffff23 	bl	d5e8 <UsbGetDescriptor>
    d958:	e3500000 	cmp	r0, #0	; 0x0
    d95c:	1affffec 	bne	d914 <UsbReadDeviceDescriptor+0x50>
    d960:	e5943408 	ldr	r3, [r4, #1032]
    d964:	e1530006 	cmp	r3, r6
    d968:	0a000023 	beq	d9fc <UsbReadDeviceDescriptor+0x138>
    d96c:	e1a02000 	mov	r2, r0
    d970:	e58d000c 	str	r0, [sp, #12]
    d974:	e58d7000 	str	r7, [sp]
    d978:	e58d6004 	str	r6, [sp, #4]
    d97c:	e58d6008 	str	r6, [sp, #8]
    d980:	e1a00004 	mov	r0, r4
    d984:	e1a01005 	mov	r1, r5
    d988:	e1a03002 	mov	r3, r2
    d98c:	ebffff15 	bl	d5e8 <UsbGetDescriptor>
    d990:	eaffffdf 	b	d914 <UsbReadDeviceDescriptor+0x50>
    d994:	e3a01008 	mov	r1, #8	; 0x8
    d998:	e2806014 	add	r6, r0, #20	; 0x14
    d99c:	e3a05012 	mov	r5, #18	; 0x12
    d9a0:	e5c0101b 	strb	r1, [r0, #27]
    d9a4:	e1a02003 	mov	r2, r3
    d9a8:	e58d1008 	str	r1, [sp, #8]
    d9ac:	e58d6000 	str	r6, [sp]
    d9b0:	e58d5004 	str	r5, [sp, #4]
    d9b4:	e58d300c 	str	r3, [sp, #12]
    d9b8:	e3a01001 	mov	r1, #1	; 0x1
    d9bc:	ebffff09 	bl	d5e8 <UsbGetDescriptor>
    d9c0:	e3500000 	cmp	r0, #0	; 0x0
    d9c4:	1affffd2 	bne	d914 <UsbReadDeviceDescriptor+0x50>
    d9c8:	e5943408 	ldr	r3, [r4, #1032]
    d9cc:	e1530005 	cmp	r3, r5
    d9d0:	0a000009 	beq	d9fc <UsbReadDeviceDescriptor+0x138>
    d9d4:	e1a02000 	mov	r2, r0
    d9d8:	e58d000c 	str	r0, [sp, #12]
    d9dc:	e58d6000 	str	r6, [sp]
    d9e0:	e58d5004 	str	r5, [sp, #4]
    d9e4:	e58d5008 	str	r5, [sp, #8]
    d9e8:	e1a00004 	mov	r0, r4
    d9ec:	e3a01001 	mov	r1, #1	; 0x1
    d9f0:	e1a03002 	mov	r3, r2
    d9f4:	ebfffefb 	bl	d5e8 <UsbGetDescriptor>
    d9f8:	eaffffc5 	b	d914 <UsbReadDeviceDescriptor+0x50>
    d9fc:	e3a00000 	mov	r0, #0	; 0x0
    da00:	eaffffc3 	b	d914 <UsbReadDeviceDescriptor+0x50>

0000da04 <UsbSetAddress>:
    da04:	e92d4070 	push	{r4, r5, r6, lr}
    da08:	e5d03005 	ldrb	r3, [r0, #5]
    da0c:	e3530002 	cmp	r3, #2	; 0x2
    da10:	e24dd018 	sub	sp, sp, #24	; 0x18
    da14:	e1a04000 	mov	r4, r0
    da18:	e1a05001 	mov	r5, r1
    da1c:	13a060fc 	movne	r6, #252	; 0xfc
    da20:	1a000023 	bne	dab4 <UsbSetAddress+0xb0>
    da24:	e5d0301b 	ldrb	r3, [r0, #27]
    da28:	e20330ff 	and	r3, r3, #255	; 0xff
    da2c:	e3a02000 	mov	r2, #0	; 0x0
    da30:	e3530008 	cmp	r3, #8	; 0x8
    da34:	e58d200c 	str	r2, [sp, #12]
    da38:	9a000005 	bls	da54 <UsbSetAddress+0x50>
    da3c:	e3530010 	cmp	r3, #16	; 0x10
    da40:	93a02001 	movls	r2, #1	; 0x1
    da44:	9a000002 	bls	da54 <UsbSetAddress+0x50>
    da48:	e3530020 	cmp	r3, #32	; 0x20
    da4c:	83a02003 	movhi	r2, #3	; 0x3
    da50:	93a02002 	movls	r2, #2	; 0x2
    da54:	e5dd000c 	ldrb	r0, [sp, #12]
    da58:	e5d41004 	ldrb	r1, [r4, #4]
    da5c:	e20000f0 	and	r0, r0, #240	; 0xf0
    da60:	e1803002 	orr	r3, r0, r2
    da64:	e2011003 	and	r1, r1, #3	; 0x3
    da68:	e1833101 	orr	r3, r3, r1, lsl #2
    da6c:	e5cd300c 	strb	r3, [sp, #12]
    da70:	e28d3010 	add	r3, sp, #16	; 0x10
    da74:	e3a0c000 	mov	ip, #0	; 0x0
    da78:	e58d3000 	str	r3, [sp]
    da7c:	e3a0300a 	mov	r3, #10	; 0xa
    da80:	e58dc010 	str	ip, [sp, #16]
    da84:	e1a0200c 	mov	r2, ip
    da88:	e58d3004 	str	r3, [sp, #4]
    da8c:	e58dc014 	str	ip, [sp, #20]
    da90:	e1a0300c 	mov	r3, ip
    da94:	e1a00004 	mov	r0, r4
    da98:	e3a0c005 	mov	ip, #5	; 0x5
    da9c:	e59d100c 	ldr	r1, [sp, #12]
    daa0:	e5cdc011 	strb	ip, [sp, #17]
    daa4:	e1cd51b2 	strh	r5, [sp, #18]
    daa8:	ebfffe90 	bl	d4f0 <UsbControlMessage>
    daac:	e2506000 	subs	r6, r0, #0	; 0x0
    dab0:	0a000004 	beq	dac8 <UsbSetAddress+0xc4>
    dab4:	e1a00c06 	lsl	r0, r6, #24
    dab8:	e1a00c40 	asr	r0, r0, #24
    dabc:	e28dd018 	add	sp, sp, #24	; 0x18
    dac0:	e8bd4070 	pop	{r4, r5, r6, lr}
    dac4:	e12fff1e 	bx	lr
    dac8:	e59f0010 	ldr	r0, [pc, #16]	; dae0 <UsbSetAddress+0xdc>
    dacc:	eb00143a 	bl	12bbc <MicroDelay>
    dad0:	e3a03003 	mov	r3, #3	; 0x3
    dad4:	e5845000 	str	r5, [r4]
    dad8:	e5c43005 	strb	r3, [r4, #5]
    dadc:	eafffff4 	b	dab4 <UsbSetAddress+0xb0>
    dae0:	00002710 	.word	0x00002710

0000dae4 <UsbSetConfiguration>:
    dae4:	e92d4030 	push	{r4, r5, lr}
    dae8:	e5d03005 	ldrb	r3, [r0, #5]
    daec:	e3530003 	cmp	r3, #3	; 0x3
    daf0:	e1a04000 	mov	r4, r0
    daf4:	e24dd01c 	sub	sp, sp, #28	; 0x1c
    daf8:	e1a05001 	mov	r5, r1
    dafc:	13a000fc 	movne	r0, #252	; 0xfc
    db00:	1a000027 	bne	dba4 <UsbSetConfiguration+0xc0>
    db04:	e5d4301b 	ldrb	r3, [r4, #27]
    db08:	e20330ff 	and	r3, r3, #255	; 0xff
    db0c:	e3a02000 	mov	r2, #0	; 0x0
    db10:	e3530008 	cmp	r3, #8	; 0x8
    db14:	e58d200c 	str	r2, [sp, #12]
    db18:	9a000005 	bls	db34 <UsbSetConfiguration+0x50>
    db1c:	e3530010 	cmp	r3, #16	; 0x10
    db20:	93a02001 	movls	r2, #1	; 0x1
    db24:	9a000002 	bls	db34 <UsbSetConfiguration+0x50>
    db28:	e3530020 	cmp	r3, #32	; 0x20
    db2c:	83a02003 	movhi	r2, #3	; 0x3
    db30:	93a02002 	movls	r2, #2	; 0x2
    db34:	e5dd100c 	ldrb	r1, [sp, #12]
    db38:	e5d40004 	ldrb	r0, [r4, #4]
    db3c:	e20110f0 	and	r1, r1, #240	; 0xf0
    db40:	e1813002 	orr	r3, r1, r2
    db44:	e2000003 	and	r0, r0, #3	; 0x3
    db48:	e5d41000 	ldrb	r1, [r4]
    db4c:	e1833100 	orr	r3, r3, r0, lsl #2
    db50:	e5cd300c 	strb	r3, [sp, #12]
    db54:	e28d3010 	add	r3, sp, #16	; 0x10
    db58:	e3a0c000 	mov	ip, #0	; 0x0
    db5c:	e5cd100d 	strb	r1, [sp, #13]
    db60:	e58d3000 	str	r3, [sp]
    db64:	e3a0300a 	mov	r3, #10	; 0xa
    db68:	e58dc010 	str	ip, [sp, #16]
    db6c:	e1a0200c 	mov	r2, ip
    db70:	e58d3004 	str	r3, [sp, #4]
    db74:	e58dc014 	str	ip, [sp, #20]
    db78:	e1a0300c 	mov	r3, ip
    db7c:	e1a00004 	mov	r0, r4
    db80:	e3a0c009 	mov	ip, #9	; 0x9
    db84:	e59d100c 	ldr	r1, [sp, #12]
    db88:	e5cdc011 	strb	ip, [sp, #17]
    db8c:	e1cd51b2 	strh	r5, [sp, #18]
    db90:	ebfffe56 	bl	d4f0 <UsbControlMessage>
    db94:	e3500000 	cmp	r0, #0	; 0x0
    db98:	03a03004 	moveq	r3, #4	; 0x4
    db9c:	05c45006 	strbeq	r5, [r4, #6]
    dba0:	05c43005 	strbeq	r3, [r4, #5]
    dba4:	e1a00c00 	lsl	r0, r0, #24
    dba8:	e1a00c40 	asr	r0, r0, #24
    dbac:	e28dd01c 	add	sp, sp, #28	; 0x1c
    dbb0:	e8bd4030 	pop	{r4, r5, lr}
    dbb4:	e12fff1e 	bx	lr

0000dbb8 <UsbConfigure>:
    dbb8:	e92d4ff0 	push	{r4, r5, r6, r7, r8, r9, sl, fp, lr}
    dbbc:	e5d03005 	ldrb	r3, [r0, #5]
    dbc0:	e3530003 	cmp	r3, #3	; 0x3
    dbc4:	e24dd014 	sub	sp, sp, #20	; 0x14
    dbc8:	e1a05000 	mov	r5, r0
    dbcc:	e1a04001 	mov	r4, r1
    dbd0:	13a0a0fc 	movne	sl, #252	; 0xfc
    dbd4:	1a00000a 	bne	dc04 <UsbConfigure+0x4c>
    dbd8:	e3a0c009 	mov	ip, #9	; 0x9
    dbdc:	e2802028 	add	r2, r0, #40	; 0x28
    dbe0:	e3a03000 	mov	r3, #0	; 0x0
    dbe4:	e88d1004 	stm	sp, {r2, ip}
    dbe8:	e58dc008 	str	ip, [sp, #8]
    dbec:	e58d300c 	str	r3, [sp, #12]
    dbf0:	e3a01002 	mov	r1, #2	; 0x2
    dbf4:	e1a02004 	mov	r2, r4
    dbf8:	ebfffe7a 	bl	d5e8 <UsbGetDescriptor>
    dbfc:	e250a000 	subs	sl, r0, #0	; 0x0
    dc00:	0a000004 	beq	dc18 <UsbConfigure+0x60>
    dc04:	e1a00c0a 	lsl	r0, sl, #24
    dc08:	e1a00c40 	asr	r0, r0, #24
    dc0c:	e28dd014 	add	sp, sp, #20	; 0x14
    dc10:	e8bd4ff0 	pop	{r4, r5, r6, r7, r8, r9, sl, fp, lr}
    dc14:	e12fff1e 	bx	lr
    dc18:	e1d502ba 	ldrh	r0, [r5, #42]
    dc1c:	ebfffc8e 	bl	ce5c <MemoryAllocate>
    dc20:	e2506000 	subs	r6, r0, #0	; 0x0
    dc24:	0a000055 	beq	dd80 <UsbConfigure+0x1c8>
    dc28:	e1d512ba 	ldrh	r1, [r5, #42]
    dc2c:	e1d522ba 	ldrh	r2, [r5, #42]
    dc30:	e1a0300a 	mov	r3, sl
    dc34:	e98d0006 	stmib	sp, {r1, r2}
    dc38:	e58da00c 	str	sl, [sp, #12]
    dc3c:	e58d6000 	str	r6, [sp]
    dc40:	e1a00005 	mov	r0, r5
    dc44:	e3a01002 	mov	r1, #2	; 0x2
    dc48:	e1a02004 	mov	r2, r4
    dc4c:	ebfffe65 	bl	d5e8 <UsbGetDescriptor>
    dc50:	e250a000 	subs	sl, r0, #0	; 0x0
    dc54:	1a00003a 	bne	dd44 <UsbConfigure+0x18c>
    dc58:	e5c54006 	strb	r4, [r5, #6]
    dc5c:	e5d5802d 	ldrb	r8, [r5, #45]
    dc60:	e5d64000 	ldrb	r4, [r6]
    dc64:	e1d532ba 	ldrh	r3, [r5, #42]
    dc68:	e1540003 	cmp	r4, r3
    dc6c:	e20880ff 	and	r8, r8, #255	; 0xff
    dc70:	e0864004 	add	r4, r6, r4
    dc74:	33a09010 	movcc	r9, #16	; 0x10
    dc78:	33a07008 	movcc	r7, #8	; 0x8
    dc7c:	3a00000a 	bcc	dcac <UsbConfigure+0xf4>
    dc80:	ea00002a 	b	dd30 <UsbConfigure+0x178>
    dc84:	e3520005 	cmp	r2, #5	; 0x5
    dc88:	0a000010 	beq	dcd0 <UsbConfigure+0x118>
    dc8c:	e5d42000 	ldrb	r2, [r4]
    dc90:	e3520000 	cmp	r2, #0	; 0x0
    dc94:	0a000025 	beq	dd30 <UsbConfigure+0x178>
    dc98:	e0844002 	add	r4, r4, r2
    dc9c:	e1d522ba 	ldrh	r2, [r5, #42]
    dca0:	e0663004 	rsb	r3, r6, r4
    dca4:	e1530002 	cmp	r3, r2
    dca8:	2a000020 	bcs	dd30 <UsbConfigure+0x178>
    dcac:	e5d42001 	ldrb	r2, [r4, #1]
    dcb0:	e3520004 	cmp	r2, #4	; 0x4
    dcb4:	1afffff2 	bne	dc84 <UsbConfigure+0xcc>
    dcb8:	e5d4b002 	ldrb	fp, [r4, #2]
    dcbc:	e15b0007 	cmp	fp, r7
    dcc0:	1a00000f 	bne	dd04 <UsbConfigure+0x14c>
    dcc4:	e5d42000 	ldrb	r2, [r4]
    dcc8:	e3a0a001 	mov	sl, #1	; 0x1
    dccc:	eafffff1 	b	dc98 <UsbConfigure+0xe0>
    dcd0:	e35a0000 	cmp	sl, #0	; 0x0
    dcd4:	1a000008 	bne	dcfc <UsbConfigure+0x144>
    dcd8:	e3570008 	cmp	r7, #8	; 0x8
    dcdc:	0a000006 	beq	dcfc <UsbConfigure+0x144>
    dce0:	e1a03187 	lsl	r3, r7, #3
    dce4:	e0832007 	add	r2, r3, r7
    dce8:	e0852002 	add	r2, r5, r2
    dcec:	e2822030 	add	r2, r2, #48	; 0x30
    dcf0:	e5d22008 	ldrb	r2, [r2, #8]
    dcf4:	e1520009 	cmp	r2, r9
    dcf8:	8a000016 	bhi	dd58 <UsbConfigure+0x1a0>
    dcfc:	e5d42000 	ldrb	r2, [r4]
    dd00:	eaffffe4 	b	dc98 <UsbConfigure+0xe0>
    dd04:	e08b018b 	add	r0, fp, fp, lsl #3
    dd08:	e0850000 	add	r0, r5, r0
    dd0c:	e3a02009 	mov	r2, #9	; 0x9
    dd10:	e2800034 	add	r0, r0, #52	; 0x34
    dd14:	e1a01004 	mov	r1, r4
    dd18:	e3a0a000 	mov	sl, #0	; 0x0
    dd1c:	ebfffda8 	bl	d3c4 <MemoryCopy>
    dd20:	e1a0700b 	mov	r7, fp
    dd24:	e5d42000 	ldrb	r2, [r4]
    dd28:	e1a0900a 	mov	r9, sl
    dd2c:	eaffffd9 	b	dc98 <UsbConfigure+0xe0>
    dd30:	e1a00005 	mov	r0, r5
    dd34:	e1a01008 	mov	r1, r8
    dd38:	ebffff69 	bl	dae4 <UsbSetConfiguration>
    dd3c:	e250a000 	subs	sl, r0, #0	; 0x0
    dd40:	0a000002 	beq	dd50 <UsbConfigure+0x198>
    dd44:	e1a00006 	mov	r0, r6
    dd48:	ebfffd57 	bl	d2ac <MemoryDeallocate>
    dd4c:	eaffffac 	b	dc04 <UsbConfigure+0x4c>
    dd50:	e5856400 	str	r6, [r5, #1024]
    dd54:	eaffffaa 	b	dc04 <UsbConfigure+0x4c>
    dd58:	e0692189 	rsb	r2, r9, r9, lsl #3
    dd5c:	e0670003 	rsb	r0, r7, r3
    dd60:	e0820200 	add	r0, r2, r0, lsl #4
    dd64:	e0850000 	add	r0, r5, r0
    dd68:	e280007c 	add	r0, r0, #124	; 0x7c
    dd6c:	e1a01004 	mov	r1, r4
    dd70:	e3a02007 	mov	r2, #7	; 0x7
    dd74:	ebfffd92 	bl	d3c4 <MemoryCopy>
    dd78:	e2899001 	add	r9, r9, #1	; 0x1
    dd7c:	eaffffde 	b	dcfc <UsbConfigure+0x144>
    dd80:	e3a0a0f9 	mov	sl, #249	; 0xf9
    dd84:	eaffff9e 	b	dc04 <UsbConfigure+0x4c>

0000dd88 <UsbGetDescription>:
    dd88:	e5d03005 	ldrb	r3, [r0, #5]
    dd8c:	e3530000 	cmp	r3, #0	; 0x0
    dd90:	0a000012 	beq	dde0 <UsbGetDescription+0x58>
    dd94:	e3530001 	cmp	r3, #1	; 0x1
    dd98:	0a00001b 	beq	de0c <UsbGetDescription+0x84>
    dd9c:	e5d02018 	ldrb	r2, [r0, #24]
    dda0:	e20220ff 	and	r2, r2, #255	; 0xff
    dda4:	e3520009 	cmp	r2, #9	; 0x9
    dda8:	0a000029 	beq	de54 <UsbGetDescription+0xcc>
    ddac:	e35200ff 	cmp	r2, #255	; 0xff
    ddb0:	0a000035 	beq	de8c <UsbGetDescription+0x104>
    ddb4:	e3520000 	cmp	r2, #0	; 0x0
    ddb8:	1a000011 	bne	de04 <UsbGetDescription+0x7c>
    ddbc:	e3530004 	cmp	r3, #4	; 0x4
    ddc0:	0a000013 	beq	de14 <UsbGetDescription+0x8c>
    ddc4:	e5d00018 	ldrb	r0, [r0, #24]
    ddc8:	e59f31f8 	ldr	r3, [pc, #504]	; dfc8 <UsbGetDescription+0x240>
    ddcc:	e35000ff 	cmp	r0, #255	; 0xff
    ddd0:	e2432030 	sub	r2, r3, #48	; 0x30
    ddd4:	11a00003 	movne	r0, r3
    ddd8:	01a00002 	moveq	r0, r2
    dddc:	e12fff1e 	bx	lr
    dde0:	e59f01e4 	ldr	r0, [pc, #484]	; dfcc <UsbGetDescription+0x244>
    dde4:	e12fff1e 	bx	lr
    dde8:	e3530007 	cmp	r3, #7	; 0x7
    ddec:	0a00005f 	beq	df70 <UsbGetDescription+0x1e8>
    ddf0:	3a00005c 	bcc	df68 <UsbGetDescription+0x1e0>
    ddf4:	e3530008 	cmp	r3, #8	; 0x8
    ddf8:	0a000058 	beq	df60 <UsbGetDescription+0x1d8>
    ddfc:	e3530009 	cmp	r3, #9	; 0x9
    de00:	0a000013 	beq	de54 <UsbGetDescription+0xcc>
    de04:	e59f01c4 	ldr	r0, [pc, #452]	; dfd0 <UsbGetDescription+0x248>
    de08:	e12fff1e 	bx	lr
    de0c:	e59f01c0 	ldr	r0, [pc, #448]	; dfd4 <UsbGetDescription+0x24c>
    de10:	e12fff1e 	bx	lr
    de14:	e5d03039 	ldrb	r3, [r0, #57]
    de18:	e20330ff 	and	r3, r3, #255	; 0xff
    de1c:	e353000a 	cmp	r3, #10	; 0xa
    de20:	0a000022 	beq	deb0 <UsbGetDescription+0x128>
    de24:	8a000027 	bhi	dec8 <UsbGetDescription+0x140>
    de28:	e3530005 	cmp	r3, #5	; 0x5
    de2c:	0a00003e 	beq	df2c <UsbGetDescription+0x1a4>
    de30:	8affffec 	bhi	dde8 <UsbGetDescription+0x60>
    de34:	e3530002 	cmp	r3, #2	; 0x2
    de38:	0a000037 	beq	df1c <UsbGetDescription+0x194>
    de3c:	e3530003 	cmp	r3, #3	; 0x3
    de40:	0a00003b 	beq	df34 <UsbGetDescription+0x1ac>
    de44:	e3530001 	cmp	r3, #1	; 0x1
    de48:	1affffed 	bne	de04 <UsbGetDescription+0x7c>
    de4c:	e59f0184 	ldr	r0, [pc, #388]	; dfd8 <UsbGetDescription+0x250>
    de50:	e12fff1e 	bx	lr
    de54:	e1d031b6 	ldrh	r3, [r0, #22]
    de58:	e3530e21 	cmp	r3, #528	; 0x210
    de5c:	0a000017 	beq	dec0 <UsbGetDescription+0x138>
    de60:	e1d031b6 	ldrh	r3, [r0, #22]
    de64:	e3530c02 	cmp	r3, #512	; 0x200
    de68:	0a000020 	beq	def0 <UsbGetDescription+0x168>
    de6c:	e1d031b6 	ldrh	r3, [r0, #22]
    de70:	e3530e11 	cmp	r3, #272	; 0x110
    de74:	0a00001f 	beq	def8 <UsbGetDescription+0x170>
    de78:	e1d031b6 	ldrh	r3, [r0, #22]
    de7c:	e3530c01 	cmp	r3, #256	; 0x100
    de80:	0a00000c 	beq	deb8 <UsbGetDescription+0x130>
    de84:	e59f0150 	ldr	r0, [pc, #336]	; dfdc <UsbGetDescription+0x254>
    de88:	e12fff1e 	bx	lr
    de8c:	e1d011bc 	ldrh	r1, [r0, #28]
    de90:	e59f2148 	ldr	r2, [pc, #328]	; dfe0 <UsbGetDescription+0x258>
    de94:	e1510002 	cmp	r1, r2
    de98:	1affffc7 	bne	ddbc <UsbGetDescription+0x34>
    de9c:	e1d021be 	ldrh	r2, [r0, #30]
    dea0:	e3520b3b 	cmp	r2, #60416	; 0xec00
    dea4:	1affffc4 	bne	ddbc <UsbGetDescription+0x34>
    dea8:	e59f0134 	ldr	r0, [pc, #308]	; dfe4 <UsbGetDescription+0x25c>
    deac:	e12fff1e 	bx	lr
    deb0:	e59f0130 	ldr	r0, [pc, #304]	; dfe8 <UsbGetDescription+0x260>
    deb4:	e12fff1e 	bx	lr
    deb8:	e59f012c 	ldr	r0, [pc, #300]	; dfec <UsbGetDescription+0x264>
    debc:	e12fff1e 	bx	lr
    dec0:	e59f0128 	ldr	r0, [pc, #296]	; dff0 <UsbGetDescription+0x268>
    dec4:	e12fff1e 	bx	lr
    dec8:	e3530010 	cmp	r3, #16	; 0x10
    decc:	0a000021 	beq	df58 <UsbGetDescription+0x1d0>
    ded0:	8a00000a 	bhi	df00 <UsbGetDescription+0x178>
    ded4:	e353000d 	cmp	r3, #13	; 0xd
    ded8:	0a00001c 	beq	df50 <UsbGetDescription+0x1c8>
    dedc:	8a00002d 	bhi	df98 <UsbGetDescription+0x210>
    dee0:	e353000b 	cmp	r3, #11	; 0xb
    dee4:	1affffc6 	bne	de04 <UsbGetDescription+0x7c>
    dee8:	e59f0104 	ldr	r0, [pc, #260]	; dff4 <UsbGetDescription+0x26c>
    deec:	e12fff1e 	bx	lr
    def0:	e59f0100 	ldr	r0, [pc, #256]	; dff8 <UsbGetDescription+0x270>
    def4:	e12fff1e 	bx	lr
    def8:	e59f00fc 	ldr	r0, [pc, #252]	; dffc <UsbGetDescription+0x274>
    defc:	e12fff1e 	bx	lr
    df00:	e35300e0 	cmp	r3, #224	; 0xe0
    df04:	0a000006 	beq	df24 <UsbGetDescription+0x19c>
    df08:	8a00001a 	bhi	df78 <UsbGetDescription+0x1f0>
    df0c:	e35300dc 	cmp	r3, #220	; 0xdc
    df10:	1affffbb 	bne	de04 <UsbGetDescription+0x7c>
    df14:	e59f00e4 	ldr	r0, [pc, #228]	; e000 <UsbGetDescription+0x278>
    df18:	e12fff1e 	bx	lr
    df1c:	e59f00e0 	ldr	r0, [pc, #224]	; e004 <UsbGetDescription+0x27c>
    df20:	e12fff1e 	bx	lr
    df24:	e59f00dc 	ldr	r0, [pc, #220]	; e008 <UsbGetDescription+0x280>
    df28:	e12fff1e 	bx	lr
    df2c:	e59f00d8 	ldr	r0, [pc, #216]	; e00c <UsbGetDescription+0x284>
    df30:	e12fff1e 	bx	lr
    df34:	e5d0303b 	ldrb	r3, [r0, #59]
    df38:	e2433001 	sub	r3, r3, #1	; 0x1
    df3c:	e20330ff 	and	r3, r3, #255	; 0xff
    df40:	e3530001 	cmp	r3, #1	; 0x1
    df44:	9a00001b 	bls	dfb8 <UsbGetDescription+0x230>
    df48:	e59f00c0 	ldr	r0, [pc, #192]	; e010 <UsbGetDescription+0x288>
    df4c:	e12fff1e 	bx	lr
    df50:	e59f00bc 	ldr	r0, [pc, #188]	; e014 <UsbGetDescription+0x28c>
    df54:	e12fff1e 	bx	lr
    df58:	e59f00b8 	ldr	r0, [pc, #184]	; e018 <UsbGetDescription+0x290>
    df5c:	e12fff1e 	bx	lr
    df60:	e59f00b4 	ldr	r0, [pc, #180]	; e01c <UsbGetDescription+0x294>
    df64:	e12fff1e 	bx	lr
    df68:	e59f00b0 	ldr	r0, [pc, #176]	; e020 <UsbGetDescription+0x298>
    df6c:	e12fff1e 	bx	lr
    df70:	e59f00ac 	ldr	r0, [pc, #172]	; e024 <UsbGetDescription+0x29c>
    df74:	e12fff1e 	bx	lr
    df78:	e35300ef 	cmp	r3, #239	; 0xef
    df7c:	0a000003 	beq	df90 <UsbGetDescription+0x208>
    df80:	e35300ff 	cmp	r3, #255	; 0xff
    df84:	1affff9e 	bne	de04 <UsbGetDescription+0x7c>
    df88:	e59f0098 	ldr	r0, [pc, #152]	; e028 <UsbGetDescription+0x2a0>
    df8c:	e12fff1e 	bx	lr
    df90:	e59f0094 	ldr	r0, [pc, #148]	; e02c <UsbGetDescription+0x2a4>
    df94:	e12fff1e 	bx	lr
    df98:	e353000e 	cmp	r3, #14	; 0xe
    df9c:	0a000003 	beq	dfb0 <UsbGetDescription+0x228>
    dfa0:	e353000f 	cmp	r3, #15	; 0xf
    dfa4:	1affff96 	bne	de04 <UsbGetDescription+0x7c>
    dfa8:	e59f0080 	ldr	r0, [pc, #128]	; e030 <UsbGetDescription+0x2a8>
    dfac:	e12fff1e 	bx	lr
    dfb0:	e59f007c 	ldr	r0, [pc, #124]	; e034 <UsbGetDescription+0x2ac>
    dfb4:	e12fff1e 	bx	lr
    dfb8:	e59f200c 	ldr	r2, [pc, #12]	; dfcc <UsbGetDescription+0x244>
    dfbc:	e0823103 	add	r3, r2, r3, lsl #2
    dfc0:	e5930224 	ldr	r0, [r3, #548]
    dfc4:	e12fff1e 	bx	lr
    dfc8:	00012fc4 	.word	0x00012fc4
    dfcc:	00012e6c 	.word	0x00012e6c
    dfd0:	00012f20 	.word	0x00012f20
    dfd4:	00012e84 	.word	0x00012e84
    dfd8:	00012efc 	.word	0x00012efc
    dfdc:	00012ee0 	.word	0x00012ee0
    dfe0:	00000424 	.word	0x00000424
    dfe4:	00012eec 	.word	0x00012eec
    dfe8:	00012fdc 	.word	0x00012fdc
    dfec:	00012ed0 	.word	0x00012ed0
    dff0:	00012ea0 	.word	0x00012ea0
    dff4:	00012ff4 	.word	0x00012ff4
    dff8:	00012eb0 	.word	0x00012eb0
    dffc:	00012ec0 	.word	0x00012ec0
    e000:	0001305c 	.word	0x0001305c
    e004:	00012f10 	.word	0x00012f10
    e008:	00013074 	.word	0x00013074
    e00c:	00012f3c 	.word	0x00012f3c
    e010:	00012f30 	.word	0x00012f30
    e014:	00013004 	.word	0x00013004
    e018:	0001304c 	.word	0x0001304c
    e01c:	00012f78 	.word	0x00012f78
    e020:	00012f54 	.word	0x00012f54
    e024:	00012f68 	.word	0x00012f68
    e028:	00012f94 	.word	0x00012f94
    e02c:	00012fa8 	.word	0x00012fa8
    e030:	00013034 	.word	0x00013034
    e034:	00013020 	.word	0x00013020

0000e038 <UsbScanDevice>:
    e038:	e92d40f8 	push	{r3, r4, r5, r6, r7, lr}
    e03c:	e3a03000 	mov	r3, #0	; 0x0
    e040:	e5906000 	ldr	r6, [r0]
    e044:	e5803000 	str	r3, [r0]
    e048:	e1a04000 	mov	r4, r0
    e04c:	ebfffe1c 	bl	d8c4 <UsbReadDeviceDescriptor>
    e050:	e2505000 	subs	r5, r0, #0	; 0x0
    e054:	120660ff 	andne	r6, r6, #255	; 0xff
    e058:	15846000 	strne	r6, [r4]
    e05c:	1a000020 	bne	e0e4 <UsbScanDevice+0xac>
    e060:	e59403fc 	ldr	r0, [r4, #1020]
    e064:	e3a03002 	mov	r3, #2	; 0x2
    e068:	e3500000 	cmp	r0, #0	; 0x0
    e06c:	e5c43005 	strb	r3, [r4, #5]
    e070:	0a000014 	beq	e0c8 <UsbScanDevice+0x90>
    e074:	e5d41007 	ldrb	r1, [r4, #7]
    e078:	e5903404 	ldr	r3, [r0, #1028]
    e07c:	e281200e 	add	r2, r1, #14	; 0xe
    e080:	e0833102 	add	r3, r3, r2, lsl #2
    e084:	e5d3c004 	ldrb	ip, [r3, #4]
    e088:	e5d37005 	ldrb	r7, [r3, #5]
    e08c:	e5d32006 	ldrb	r2, [r3, #6]
    e090:	e18c7407 	orr	r7, ip, r7, lsl #8
    e094:	e5d33007 	ldrb	r3, [r3, #7]
    e098:	e1877802 	orr	r7, r7, r2, lsl #16
    e09c:	e1877c03 	orr	r7, r7, r3, lsl #24
    e0a0:	e1570004 	cmp	r7, r4
    e0a4:	120660ff 	andne	r6, r6, #255	; 0xff
    e0a8:	15846000 	strne	r6, [r4]
    e0ac:	13a050fe 	movne	r5, #254	; 0xfe
    e0b0:	1a00000b 	bne	e0e4 <UsbScanDevice+0xac>
    e0b4:	eb00096a 	bl	10664 <HubPortReset>
    e0b8:	e2505000 	subs	r5, r0, #0	; 0x0
    e0bc:	120660ff 	andne	r6, r6, #255	; 0xff
    e0c0:	15876000 	strne	r6, [r7]
    e0c4:	1a000006 	bne	e0e4 <UsbScanDevice+0xac>
    e0c8:	e20660ff 	and	r6, r6, #255	; 0xff
    e0cc:	e1a00004 	mov	r0, r4
    e0d0:	e1a01006 	mov	r1, r6
    e0d4:	ebfffe4a 	bl	da04 <UsbSetAddress>
    e0d8:	e2505000 	subs	r5, r0, #0	; 0x0
    e0dc:	e5846000 	str	r6, [r4]
    e0e0:	0a000003 	beq	e0f4 <UsbScanDevice+0xbc>
    e0e4:	e1a00c05 	lsl	r0, r5, #24
    e0e8:	e1a00c40 	asr	r0, r0, #24
    e0ec:	e8bd40f8 	pop	{r3, r4, r5, r6, r7, lr}
    e0f0:	e12fff1e 	bx	lr
    e0f4:	e1a00004 	mov	r0, r4
    e0f8:	ebfffdf1 	bl	d8c4 <UsbReadDeviceDescriptor>
    e0fc:	e2505000 	subs	r5, r0, #0	; 0x0
    e100:	1afffff7 	bne	e0e4 <UsbScanDevice+0xac>
    e104:	e5d43023 	ldrb	r3, [r4, #35]
    e108:	e3530000 	cmp	r3, #0	; 0x0
    e10c:	1a000027 	bne	e1b0 <UsbScanDevice+0x178>
    e110:	e5d43022 	ldrb	r3, [r4, #34]
    e114:	e3530000 	cmp	r3, #0	; 0x0
    e118:	1a00003b 	bne	e20c <UsbScanDevice+0x1d4>
    e11c:	e5d43024 	ldrb	r3, [r4, #36]
    e120:	e3530000 	cmp	r3, #0	; 0x0
    e124:	0a000003 	beq	e138 <UsbScanDevice+0x100>
    e128:	e3a00c01 	mov	r0, #256	; 0x100
    e12c:	ebfffb4a 	bl	ce5c <MemoryAllocate>
    e130:	e2506000 	subs	r6, r0, #0	; 0x0
    e134:	1a00002c 	bne	e1ec <UsbScanDevice+0x1b4>
    e138:	e1a00004 	mov	r0, r4
    e13c:	e3a01000 	mov	r1, #0	; 0x0
    e140:	ebfffe9c 	bl	dbb8 <UsbConfigure>
    e144:	e3500000 	cmp	r0, #0	; 0x0
    e148:	1affffe5 	bne	e0e4 <UsbScanDevice+0xac>
    e14c:	e5d4302e 	ldrb	r3, [r4, #46]
    e150:	e3530000 	cmp	r3, #0	; 0x0
    e154:	0a00000a 	beq	e184 <UsbScanDevice+0x14c>
    e158:	e3a00c01 	mov	r0, #256	; 0x100
    e15c:	ebfffb3e 	bl	ce5c <MemoryAllocate>
    e160:	e2506000 	subs	r6, r0, #0	; 0x0
    e164:	0a000006 	beq	e184 <UsbScanDevice+0x14c>
    e168:	e5d4102e 	ldrb	r1, [r4, #46]
    e16c:	e1a00004 	mov	r0, r4
    e170:	e1a02006 	mov	r2, r6
    e174:	e3a03c01 	mov	r3, #256	; 0x100
    e178:	ebfffd91 	bl	d7c4 <UsbReadString>
    e17c:	e1a00006 	mov	r0, r6
    e180:	ebfffc49 	bl	d2ac <MemoryDeallocate>
    e184:	e5d43039 	ldrb	r3, [r4, #57]
    e188:	e3530009 	cmp	r3, #9	; 0x9
    e18c:	0a00002b 	beq	e240 <UsbScanDevice+0x208>
    e190:	e5d43039 	ldrb	r3, [r4, #57]
    e194:	e3530003 	cmp	r3, #3	; 0x3
    e198:	1affffd1 	bne	e0e4 <UsbScanDevice+0xac>
    e19c:	e1a00004 	mov	r0, r4
    e1a0:	e3a01000 	mov	r1, #0	; 0x0
    e1a4:	eb0006dd 	bl	fd20 <HidScan>
    e1a8:	e3a05000 	mov	r5, #0	; 0x0
    e1ac:	eaffffcc 	b	e0e4 <UsbScanDevice+0xac>
    e1b0:	e3a00c01 	mov	r0, #256	; 0x100
    e1b4:	ebfffb28 	bl	ce5c <MemoryAllocate>
    e1b8:	e2506000 	subs	r6, r0, #0	; 0x0
    e1bc:	0affffd3 	beq	e110 <UsbScanDevice+0xd8>
    e1c0:	e3a03c01 	mov	r3, #256	; 0x100
    e1c4:	e5d41023 	ldrb	r1, [r4, #35]
    e1c8:	e1a00004 	mov	r0, r4
    e1cc:	e1a02006 	mov	r2, r6
    e1d0:	ebfffd7b 	bl	d7c4 <UsbReadString>
    e1d4:	e5d43022 	ldrb	r3, [r4, #34]
    e1d8:	e3530000 	cmp	r3, #0	; 0x0
    e1dc:	1a00000e 	bne	e21c <UsbScanDevice+0x1e4>
    e1e0:	e5d43024 	ldrb	r3, [r4, #36]
    e1e4:	e3530000 	cmp	r3, #0	; 0x0
    e1e8:	0a000004 	beq	e200 <UsbScanDevice+0x1c8>
    e1ec:	e5d41024 	ldrb	r1, [r4, #36]
    e1f0:	e1a00004 	mov	r0, r4
    e1f4:	e1a02006 	mov	r2, r6
    e1f8:	e3a03c01 	mov	r3, #256	; 0x100
    e1fc:	ebfffd70 	bl	d7c4 <UsbReadString>
    e200:	e1a00006 	mov	r0, r6
    e204:	ebfffc28 	bl	d2ac <MemoryDeallocate>
    e208:	eaffffca 	b	e138 <UsbScanDevice+0x100>
    e20c:	e3a00c01 	mov	r0, #256	; 0x100
    e210:	ebfffb11 	bl	ce5c <MemoryAllocate>
    e214:	e2506000 	subs	r6, r0, #0	; 0x0
    e218:	0affffbf 	beq	e11c <UsbScanDevice+0xe4>
    e21c:	e3a03c01 	mov	r3, #256	; 0x100
    e220:	e5d41022 	ldrb	r1, [r4, #34]
    e224:	e1a00004 	mov	r0, r4
    e228:	e1a02006 	mov	r2, r6
    e22c:	ebfffd64 	bl	d7c4 <UsbReadString>
    e230:	e5d43024 	ldrb	r3, [r4, #36]
    e234:	e3530000 	cmp	r3, #0	; 0x0
    e238:	1affffeb 	bne	e1ec <UsbScanDevice+0x1b4>
    e23c:	eaffffef 	b	e200 <UsbScanDevice+0x1c8>
    e240:	e5d4303a 	ldrb	r3, [r4, #58]
    e244:	e3530001 	cmp	r3, #1	; 0x1
    e248:	8affffd0 	bhi	e190 <UsbScanDevice+0x158>
    e24c:	e1a00004 	mov	r0, r4
    e250:	e3a01000 	mov	r1, #0	; 0x0
    e254:	eb000a38 	bl	10b3c <HubScan>
    e258:	e3a05000 	mov	r5, #0	; 0x0
    e25c:	eaffffa0 	b	e0e4 <UsbScanDevice+0xac>

0000e260 <UsbAllocateDevice>:
    e260:	e92d4038 	push	{r3, r4, r5, lr}
    e264:	e1a04000 	mov	r4, r0
    e268:	e59f00a4 	ldr	r0, [pc, #164]	; e314 <UsbAllocateDevice+0xb4>
    e26c:	ebfffafa 	bl	ce5c <MemoryAllocate>
    e270:	e3500000 	cmp	r0, #0	; 0x0
    e274:	e5840000 	str	r0, [r4]
    e278:	0a000023 	beq	e30c <UsbAllocateDevice+0xac>
    e27c:	e59f5094 	ldr	r5, [pc, #148]	; e318 <UsbAllocateDevice+0xb8>
    e280:	e3a03000 	mov	r3, #0	; 0x0
    e284:	e5951000 	ldr	r1, [r5]
    e288:	e3a0c001 	mov	ip, #1	; 0x1
    e28c:	ea000002 	b	e29c <UsbAllocateDevice+0x3c>
    e290:	e2833001 	add	r3, r3, #1	; 0x1
    e294:	e3530020 	cmp	r3, #32	; 0x20
    e298:	0a000006 	beq	e2b8 <UsbAllocateDevice+0x58>
    e29c:	e1a0231c 	lsl	r2, ip, r3
    e2a0:	e1120001 	tst	r2, r1
    e2a4:	1afffff9 	bne	e290 <UsbAllocateDevice+0x30>
    e2a8:	e1812002 	orr	r2, r1, r2
    e2ac:	e2833001 	add	r3, r3, #1	; 0x1
    e2b0:	e5852000 	str	r2, [r5]
    e2b4:	e5803000 	str	r3, [r0]
    e2b8:	e3a03000 	mov	r3, #0	; 0x0
    e2bc:	e5c03007 	strb	r3, [r0, #7]
    e2c0:	e5942000 	ldr	r2, [r4]
    e2c4:	e58233fc 	str	r3, [r2, #1020]
    e2c8:	e5942000 	ldr	r2, [r4]
    e2cc:	e5823404 	str	r3, [r2, #1028]
    e2d0:	e5942000 	ldr	r2, [r4]
    e2d4:	e5823400 	str	r3, [r2, #1024]
    e2d8:	e5942000 	ldr	r2, [r4]
    e2dc:	e3e01000 	mvn	r1, #0	; 0x0
    e2e0:	e5803008 	str	r3, [r0, #8]
    e2e4:	e5c21006 	strb	r1, [r2, #6]
    e2e8:	e5942000 	ldr	r2, [r4]
    e2ec:	e5823010 	str	r3, [r2, #16]
    e2f0:	e5942000 	ldr	r2, [r4]
    e2f4:	e5c03005 	strb	r3, [r0, #5]
    e2f8:	e582300c 	str	r3, [r2, #12]
    e2fc:	e1a00c03 	lsl	r0, r3, #24
    e300:	e1a00c40 	asr	r0, r0, #24
    e304:	e8bd4038 	pop	{r3, r4, r5, lr}
    e308:	e12fff1e 	bx	lr
    e30c:	e3a030f9 	mov	r3, #249	; 0xf9
    e310:	eafffff9 	b	e2fc <UsbAllocateDevice+0x9c>
    e314:	0000040c 	.word	0x0000040c
    e318:	0001a62c 	.word	0x0001a62c

0000e31c <UsbDeallocateDevice>:
    e31c:	e590300c 	ldr	r3, [r0, #12]
    e320:	e3530000 	cmp	r3, #0	; 0x0
    e324:	e92d4010 	push	{r4, lr}
    e328:	e1a04000 	mov	r4, r0
    e32c:	11a0e00f 	movne	lr, pc
    e330:	112fff13 	bxne	r3
    e334:	e5943010 	ldr	r3, [r4, #16]
    e338:	e3530000 	cmp	r3, #0	; 0x0
    e33c:	11a00004 	movne	r0, r4
    e340:	11a0e00f 	movne	lr, pc
    e344:	112fff13 	bxne	r3
    e348:	e59433fc 	ldr	r3, [r4, #1020]
    e34c:	e3530000 	cmp	r3, #0	; 0x0
    e350:	0a000006 	beq	e370 <UsbDeallocateDevice+0x54>
    e354:	e5933404 	ldr	r3, [r3, #1028]
    e358:	e3530000 	cmp	r3, #0	; 0x0
    e35c:	0a000003 	beq	e370 <UsbDeallocateDevice+0x54>
    e360:	e5931000 	ldr	r1, [r3]
    e364:	e59f20c0 	ldr	r2, [pc, #192]	; e42c <UsbDeallocateDevice+0x110>
    e368:	e1510002 	cmp	r1, r2
    e36c:	0a000014 	beq	e3c4 <UsbDeallocateDevice+0xa8>
    e370:	e5d43005 	ldrb	r3, [r4, #5]
    e374:	e2433003 	sub	r3, r3, #3	; 0x3
    e378:	e3530001 	cmp	r3, #1	; 0x1
    e37c:	9a000006 	bls	e39c <UsbDeallocateDevice+0x80>
    e380:	e5940400 	ldr	r0, [r4, #1024]
    e384:	e3500000 	cmp	r0, #0	; 0x0
    e388:	1bfffbc7 	blne	d2ac <MemoryDeallocate>
    e38c:	e1a00004 	mov	r0, r4
    e390:	ebfffbc5 	bl	d2ac <MemoryDeallocate>
    e394:	e8bd4010 	pop	{r4, lr}
    e398:	e12fff1e 	bx	lr
    e39c:	e5941000 	ldr	r1, [r4]
    e3a0:	e59f3088 	ldr	r3, [pc, #136]	; e430 <UsbDeallocateDevice+0x114>
    e3a4:	e2411001 	sub	r1, r1, #1	; 0x1
    e3a8:	e1a022a1 	lsr	r2, r1, #5
    e3ac:	e7930102 	ldr	r0, [r3, r2, lsl #2]
    e3b0:	e201101f 	and	r1, r1, #31	; 0x1f
    e3b4:	e3a0c001 	mov	ip, #1	; 0x1
    e3b8:	e1c0111c 	bic	r1, r0, ip, lsl r1
    e3bc:	e7831102 	str	r1, [r3, r2, lsl #2]
    e3c0:	eaffffee 	b	e380 <UsbDeallocateDevice+0x64>
    e3c4:	e5d32010 	ldrb	r2, [r3, #16]
    e3c8:	e5d31011 	ldrb	r1, [r3, #17]
    e3cc:	e5d3c012 	ldrb	ip, [r3, #18]
    e3d0:	e1821401 	orr	r1, r2, r1, lsl #8
    e3d4:	e5d30013 	ldrb	r0, [r3, #19]
    e3d8:	e5d42007 	ldrb	r2, [r4, #7]
    e3dc:	e181180c 	orr	r1, r1, ip, lsl #16
    e3e0:	e1811c00 	orr	r1, r1, r0, lsl #24
    e3e4:	e1510002 	cmp	r1, r2
    e3e8:	9affffe0 	bls	e370 <UsbDeallocateDevice+0x54>
    e3ec:	e282200e 	add	r2, r2, #14	; 0xe
    e3f0:	e0833102 	add	r3, r3, r2, lsl #2
    e3f4:	e5d31005 	ldrb	r1, [r3, #5]
    e3f8:	e5d32004 	ldrb	r2, [r3, #4]
    e3fc:	e5d30006 	ldrb	r0, [r3, #6]
    e400:	e1822401 	orr	r2, r2, r1, lsl #8
    e404:	e5d31007 	ldrb	r1, [r3, #7]
    e408:	e1822800 	orr	r2, r2, r0, lsl #16
    e40c:	e1822c01 	orr	r2, r2, r1, lsl #24
    e410:	e1540002 	cmp	r4, r2
    e414:	03a02000 	moveq	r2, #0	; 0x0
    e418:	05c32004 	strbeq	r2, [r3, #4]
    e41c:	05c32005 	strbeq	r2, [r3, #5]
    e420:	05c32006 	strbeq	r2, [r3, #6]
    e424:	05c32007 	strbeq	r2, [r3, #7]
    e428:	eaffffd0 	b	e370 <UsbDeallocateDevice+0x54>
    e42c:	48554230 	.word	0x48554230
    e430:	0001a62c 	.word	0x0001a62c

0000e434 <UsbScanRootHub>:
    e434:	e59f3044 	ldr	r3, [pc, #68]	; e480 <UsbScanRootHub+0x4c>
    e438:	e5930000 	ldr	r0, [r3]
    e43c:	e3500000 	cmp	r0, #0	; 0x0
    e440:	e92d4010 	push	{r4, lr}
    e444:	1bfffb98 	blne	d2ac <MemoryDeallocate>
    e448:	e59f4030 	ldr	r4, [pc, #48]	; e480 <UsbScanRootHub+0x4c>
    e44c:	e1a00004 	mov	r0, r4
    e450:	ebffff82 	bl	e260 <UsbAllocateDevice>
    e454:	e3500000 	cmp	r0, #0	; 0x0
    e458:	0a000003 	beq	e46c <UsbScanRootHub+0x38>
    e45c:	e1a00c00 	lsl	r0, r0, #24
    e460:	e1a00c40 	asr	r0, r0, #24
    e464:	e8bd4010 	pop	{r4, lr}
    e468:	e12fff1e 	bx	lr
    e46c:	e5940000 	ldr	r0, [r4]
    e470:	e3a03001 	mov	r3, #1	; 0x1
    e474:	e5c03005 	strb	r3, [r0, #5]
    e478:	e8bd4010 	pop	{r4, lr}
    e47c:	eafffeed 	b	e038 <UsbScanDevice>
    e480:	0001a628 	.word	0x0001a628

0000e484 <UsbInitialise>:
    e484:	e92d4010 	push	{r4, lr}
    e488:	eb000de0 	bl	11c10 <HcdInitialise>
    e48c:	e2504000 	subs	r4, r0, #0	; 0x0
    e490:	0a000003 	beq	e4a4 <UsbInitialise+0x20>
    e494:	e1a00c04 	lsl	r0, r4, #24
    e498:	e1a00c40 	asr	r0, r0, #24
    e49c:	e8bd4010 	pop	{r4, lr}
    e4a0:	e12fff1e 	bx	lr
    e4a4:	eb000e3e 	bl	11da4 <HcdStart>
    e4a8:	e2504000 	subs	r4, r0, #0	; 0x0
    e4ac:	1a000003 	bne	e4c0 <UsbInitialise+0x3c>
    e4b0:	ebffffdf 	bl	e434 <UsbScanRootHub>
    e4b4:	e2504000 	subs	r4, r0, #0	; 0x0
    e4b8:	0a000002 	beq	e4c8 <UsbInitialise+0x44>
    e4bc:	eb000f8f 	bl	12300 <HcdStop>
    e4c0:	eb000f97 	bl	12324 <HcdDeinitialise>
    e4c4:	eafffff2 	b	e494 <UsbInitialise+0x10>
    e4c8:	e59f300c 	ldr	r3, [pc, #12]	; e4dc <UsbInitialise+0x58>
    e4cc:	e1a01004 	mov	r1, r4
    e4d0:	e5930000 	ldr	r0, [r3]
    e4d4:	ebfffbd2 	bl	d424 <UsbPrintDeviceTree>
    e4d8:	eaffffed 	b	e494 <UsbInitialise+0x10>
    e4dc:	0001a628 	.word	0x0001a628

0000e4e0 <UsbCheckForChange>:
    e4e0:	e92d4008 	push	{r3, lr}
    e4e4:	e59f300c 	ldr	r3, [pc, #12]	; e4f8 <UsbCheckForChange+0x18>
    e4e8:	e5930000 	ldr	r0, [r3]
    e4ec:	eb000960 	bl	10a74 <HubRecursiveCheck>
    e4f0:	e8bd4008 	pop	{r3, lr}
    e4f4:	e12fff1e 	bx	lr
    e4f8:	0001a628 	.word	0x0001a628

0000e4fc <HidEnumerateActionCountField>:
    e4fc:	e2411020 	sub	r1, r1, #32	; 0x20
    e500:	e92d00f0 	push	{r4, r5, r6, r7}
    e504:	e351000c 	cmp	r1, #12	; 0xc
    e508:	979ff101 	ldrls	pc, [pc, r1, lsl #2]
    e50c:	ea000029 	b	e5b8 <HidEnumerateActionCountField+0xbc>
    e510:	0000e5c0 	.word	0x0000e5c0
    e514:	0000e5f0 	.word	0x0000e5f0
    e518:	0000e5b8 	.word	0x0000e5b8
    e51c:	0000e5b8 	.word	0x0000e5b8
    e520:	0000e5c8 	.word	0x0000e5c8
    e524:	0000e5d0 	.word	0x0000e5d0
    e528:	0000e5b8 	.word	0x0000e5b8
    e52c:	0000e5b8 	.word	0x0000e5b8
    e530:	0000e5b8 	.word	0x0000e5b8
    e534:	0000e5b8 	.word	0x0000e5b8
    e538:	0000e5b8 	.word	0x0000e5b8
    e53c:	0000e5b8 	.word	0x0000e5b8
    e540:	0000e544 	.word	0x0000e544
    e544:	e3a07003 	mov	r7, #3	; 0x3
    e548:	e5d05004 	ldrb	r5, [r0, #4]
    e54c:	e3550000 	cmp	r5, #0	; 0x0
    e550:	05d06005 	ldrbeq	r6, [r0, #5]
    e554:	0a000027 	beq	e5f8 <HidEnumerateActionCountField+0xfc>
    e558:	e3a03000 	mov	r3, #0	; 0x0
    e55c:	e5d06005 	ldrb	r6, [r0, #5]
    e560:	e1a01003 	mov	r1, r3
    e564:	ea000003 	b	e578 <HidEnumerateActionCountField+0x7c>
    e568:	e2811001 	add	r1, r1, #1	; 0x1
    e56c:	e1510005 	cmp	r1, r5
    e570:	e2833003 	add	r3, r3, #3	; 0x3
    e574:	2a00001f 	bcs	e5f8 <HidEnumerateActionCountField+0xfc>
    e578:	e080c003 	add	ip, r0, r3
    e57c:	e5dc4006 	ldrb	r4, [ip, #6]
    e580:	e1540006 	cmp	r4, r6
    e584:	1afffff7 	bne	e568 <HidEnumerateActionCountField+0x6c>
    e588:	e5dcc008 	ldrb	ip, [ip, #8]
    e58c:	e15c0007 	cmp	ip, r7
    e590:	1afffff4 	bne	e568 <HidEnumerateActionCountField+0x6c>
    e594:	e0811081 	add	r1, r1, r1, lsl #1
    e598:	e0803001 	add	r3, r0, r1
    e59c:	e2833006 	add	r3, r3, #6	; 0x6
    e5a0:	e5d34001 	ldrb	r4, [r3, #1]
    e5a4:	e3120002 	tst	r2, #2	; 0x2
    e5a8:	15d02000 	ldrbne	r2, [r0]
    e5ac:	02844001 	addeq	r4, r4, #1	; 0x1
    e5b0:	10824004 	addne	r4, r2, r4
    e5b4:	e5c34001 	strb	r4, [r3, #1]
    e5b8:	e8bd00f0 	pop	{r4, r5, r6, r7}
    e5bc:	e12fff1e 	bx	lr
    e5c0:	e3a07001 	mov	r7, #1	; 0x1
    e5c4:	eaffffdf 	b	e548 <HidEnumerateActionCountField+0x4c>
    e5c8:	e3a07002 	mov	r7, #2	; 0x2
    e5cc:	eaffffdd 	b	e548 <HidEnumerateActionCountField+0x4c>
    e5d0:	e1a0c422 	lsr	ip, r2, #8
    e5d4:	e1a01822 	lsr	r1, r2, #16
    e5d8:	e1a03c22 	lsr	r3, r2, #24
    e5dc:	e5c02000 	strb	r2, [r0]
    e5e0:	e5c0c001 	strb	ip, [r0, #1]
    e5e4:	e5c01002 	strb	r1, [r0, #2]
    e5e8:	e5c03003 	strb	r3, [r0, #3]
    e5ec:	eafffff1 	b	e5b8 <HidEnumerateActionCountField+0xbc>
    e5f0:	e5c02005 	strb	r2, [r0, #5]
    e5f4:	eaffffef 	b	e5b8 <HidEnumerateActionCountField+0xbc>
    e5f8:	e085c085 	add	ip, r5, r5, lsl #1
    e5fc:	e080c00c 	add	ip, r0, ip
    e600:	e28c3006 	add	r3, ip, #6	; 0x6
    e604:	e3a01000 	mov	r1, #0	; 0x0
    e608:	e2855001 	add	r5, r5, #1	; 0x1
    e60c:	e5c05004 	strb	r5, [r0, #4]
    e610:	e1a04001 	mov	r4, r1
    e614:	e5cc6006 	strb	r6, [ip, #6]
    e618:	e5c31001 	strb	r1, [r3, #1]
    e61c:	e5c37002 	strb	r7, [r3, #2]
    e620:	eaffffdf 	b	e5a4 <HidEnumerateActionCountField+0xa8>

0000e624 <HidDetached>:
    e624:	e92d4008 	push	{r3, lr}
    e628:	e5903404 	ldr	r3, [r0, #1028]
    e62c:	e3530000 	cmp	r3, #0	; 0x0
    e630:	0a000008 	beq	e658 <HidDetached+0x34>
    e634:	e5d32014 	ldrb	r2, [r3, #20]
    e638:	e5d31015 	ldrb	r1, [r3, #21]
    e63c:	e5d3c016 	ldrb	ip, [r3, #22]
    e640:	e1821401 	orr	r1, r2, r1, lsl #8
    e644:	e5d32017 	ldrb	r2, [r3, #23]
    e648:	e181380c 	orr	r3, r1, ip, lsl #16
    e64c:	e1933c02 	orrs	r3, r3, r2, lsl #24
    e650:	11a0e00f 	movne	lr, pc
    e654:	112fff13 	bxne	r3
    e658:	e8bd4008 	pop	{r3, lr}
    e65c:	e12fff1e 	bx	lr

0000e660 <HidEnumerateActionAddField>:
    e660:	e2411001 	sub	r1, r1, #1	; 0x1
    e664:	e92d47f0 	push	{r4, r5, r6, r7, r8, r9, sl, lr}
    e668:	e1a04000 	mov	r4, r0
    e66c:	e1a06002 	mov	r6, r2
    e670:	e351002f 	cmp	r1, #47	; 0x2f
    e674:	979ff101 	ldrls	pc, [pc, r1, lsl #2]
    e678:	ea000063 	b	e80c <HidEnumerateActionAddField+0x1ac>
    e67c:	0000ed0c 	.word	0x0000ed0c
    e680:	0000e814 	.word	0x0000e814
    e684:	0000e80c 	.word	0x0000e80c
    e688:	0000e80c 	.word	0x0000e80c
    e68c:	0000ed28 	.word	0x0000ed28
    e690:	0000e814 	.word	0x0000e814
    e694:	0000e80c 	.word	0x0000e80c
    e698:	0000e80c 	.word	0x0000e80c
    e69c:	0000e8a0 	.word	0x0000e8a0
    e6a0:	0000e8c0 	.word	0x0000e8c0
    e6a4:	0000e80c 	.word	0x0000e80c
    e6a8:	0000e80c 	.word	0x0000e80c
    e6ac:	0000e934 	.word	0x0000e934
    e6b0:	0000e80c 	.word	0x0000e80c
    e6b4:	0000e80c 	.word	0x0000e80c
    e6b8:	0000e80c 	.word	0x0000e80c
    e6bc:	0000e954 	.word	0x0000e954
    e6c0:	0000e80c 	.word	0x0000e80c
    e6c4:	0000e80c 	.word	0x0000e80c
    e6c8:	0000e80c 	.word	0x0000e80c
    e6cc:	0000e974 	.word	0x0000e974
    e6d0:	0000e80c 	.word	0x0000e80c
    e6d4:	0000e80c 	.word	0x0000e80c
    e6d8:	0000e80c 	.word	0x0000e80c
    e6dc:	0000e994 	.word	0x0000e994
    e6e0:	0000e80c 	.word	0x0000e80c
    e6e4:	0000e80c 	.word	0x0000e80c
    e6e8:	0000e80c 	.word	0x0000e80c
    e6ec:	0000e99c 	.word	0x0000e99c
    e6f0:	0000e80c 	.word	0x0000e80c
    e6f4:	0000e80c 	.word	0x0000e80c
    e6f8:	0000e9bc 	.word	0x0000e9bc
    e6fc:	0000ecfc 	.word	0x0000ecfc
    e700:	0000e80c 	.word	0x0000e80c
    e704:	0000e80c 	.word	0x0000e80c
    e708:	0000ed68 	.word	0x0000ed68
    e70c:	0000ed48 	.word	0x0000ed48
    e710:	0000e80c 	.word	0x0000e80c
    e714:	0000e80c 	.word	0x0000e80c
    e718:	0000e73c 	.word	0x0000e73c
    e71c:	0000e80c 	.word	0x0000e80c
    e720:	0000e80c 	.word	0x0000e80c
    e724:	0000e80c 	.word	0x0000e80c
    e728:	0000ed04 	.word	0x0000ed04
    e72c:	0000e80c 	.word	0x0000e80c
    e730:	0000e80c 	.word	0x0000e80c
    e734:	0000e80c 	.word	0x0000e80c
    e738:	0000ed1c 	.word	0x0000ed1c
    e73c:	e5d0100c 	ldrb	r1, [r0, #12]
    e740:	e5d0000d 	ldrb	r0, [r0, #13]
    e744:	e5d4200e 	ldrb	r2, [r4, #14]
    e748:	e181c400 	orr	ip, r1, r0, lsl #8
    e74c:	e5d4300f 	ldrb	r3, [r4, #15]
    e750:	e18cc802 	orr	ip, ip, r2, lsl #16
    e754:	e18ccc03 	orr	ip, ip, r3, lsl #24
    e758:	e59c5000 	ldr	r5, [ip]
    e75c:	e3750001 	cmn	r5, #1	; 0x1
    e760:	1a00000a 	bne	e790 <HidEnumerateActionAddField+0x130>
    e764:	e28cc004 	add	ip, ip, #4	; 0x4
    e768:	e1a0042c 	lsr	r0, ip, #8
    e76c:	e1a0282c 	lsr	r2, ip, #16
    e770:	e20c10ff 	and	r1, ip, #255	; 0xff
    e774:	e20000ff 	and	r0, r0, #255	; 0xff
    e778:	e20220ff 	and	r2, r2, #255	; 0xff
    e77c:	e1a03c2c 	lsr	r3, ip, #24
    e780:	e5c4100c 	strb	r1, [r4, #12]
    e784:	e5c4000d 	strb	r0, [r4, #13]
    e788:	e5c4200e 	strb	r2, [r4, #14]
    e78c:	e5c4300f 	strb	r3, [r4, #15]
    e790:	e21660ff 	ands	r6, r6, #255	; 0xff
    e794:	0a0001aa 	beq	ee44 <HidEnumerateActionAddField+0x7e4>
    e798:	e3560001 	cmp	r6, #1	; 0x1
    e79c:	1a00000f 	bne	e7e0 <HidEnumerateActionAddField+0x180>
    e7a0:	e1811400 	orr	r1, r1, r0, lsl #8
    e7a4:	e5d45000 	ldrb	r5, [r4]
    e7a8:	e5d40001 	ldrb	r0, [r4, #1]
    e7ac:	e1812802 	orr	r2, r1, r2, lsl #16
    e7b0:	e5d4c002 	ldrb	ip, [r4, #2]
    e7b4:	e5d41003 	ldrb	r1, [r4, #3]
    e7b8:	e1823c03 	orr	r3, r2, r3, lsl #24
    e7bc:	e1850400 	orr	r0, r5, r0, lsl #8
    e7c0:	e5932000 	ldr	r2, [r3]
    e7c4:	e180380c 	orr	r3, r0, ip, lsl #16
    e7c8:	e1833c01 	orr	r3, r3, r1, lsl #24
    e7cc:	e5832000 	str	r2, [r3]
    e7d0:	e5d4100c 	ldrb	r1, [r4, #12]
    e7d4:	e5d4000d 	ldrb	r0, [r4, #13]
    e7d8:	e5d4200e 	ldrb	r2, [r4, #14]
    e7dc:	e5d4300f 	ldrb	r3, [r4, #15]
    e7e0:	e1811400 	orr	r1, r1, r0, lsl #8
    e7e4:	e1812802 	orr	r2, r1, r2, lsl #16
    e7e8:	e1823c03 	orr	r3, r2, r3, lsl #24
    e7ec:	e2433004 	sub	r3, r3, #4	; 0x4
    e7f0:	e1a00423 	lsr	r0, r3, #8
    e7f4:	e1a01823 	lsr	r1, r3, #16
    e7f8:	e1a02c23 	lsr	r2, r3, #24
    e7fc:	e5c4300c 	strb	r3, [r4, #12]
    e800:	e5c4000d 	strb	r0, [r4, #13]
    e804:	e5c4100e 	strb	r1, [r4, #14]
    e808:	e5c4200f 	strb	r2, [r4, #15]
    e80c:	e8bd47f0 	pop	{r4, r5, r6, r7, r8, r9, sl, lr}
    e810:	e12fff1e 	bx	lr
    e814:	e5d0300c 	ldrb	r3, [r0, #12]
    e818:	e5d0000d 	ldrb	r0, [r0, #13]
    e81c:	e5d4100e 	ldrb	r1, [r4, #14]
    e820:	e5d4200f 	ldrb	r2, [r4, #15]
    e824:	e1833400 	orr	r3, r3, r0, lsl #8
    e828:	e1833801 	orr	r3, r3, r1, lsl #16
    e82c:	e1832c02 	orr	r2, r3, r2, lsl #24
    e830:	e2823004 	add	r3, r2, #4	; 0x4
    e834:	e1a0c423 	lsr	ip, r3, #8
    e838:	e1a00823 	lsr	r0, r3, #16
    e83c:	e1a01c23 	lsr	r1, r3, #24
    e840:	e1b05826 	lsrs	r5, r6, #16
    e844:	e5c4300c 	strb	r3, [r4, #12]
    e848:	e5c4c00d 	strb	ip, [r4, #13]
    e84c:	e5c4000e 	strb	r0, [r4, #14]
    e850:	e5c4100f 	strb	r1, [r4, #15]
    e854:	1584600c 	strne	r6, [r4, #12]
    e858:	1affffeb 	bne	e80c <HidEnumerateActionAddField+0x1ac>
    e85c:	e1a03426 	lsr	r3, r6, #8
    e860:	e5c26004 	strb	r6, [r2, #4]
    e864:	e5c23005 	strb	r3, [r2, #5]
    e868:	e5d4300c 	ldrb	r3, [r4, #12]
    e86c:	e5d4500d 	ldrb	r5, [r4, #13]
    e870:	e5d4000e 	ldrb	r0, [r4, #14]
    e874:	e5d4202c 	ldrb	r2, [r4, #44]
    e878:	e5d4c02d 	ldrb	ip, [r4, #45]
    e87c:	e5d4100f 	ldrb	r1, [r4, #15]
    e880:	e1833405 	orr	r3, r3, r5, lsl #8
    e884:	e182240c 	orr	r2, r2, ip, lsl #8
    e888:	e1833800 	orr	r3, r3, r0, lsl #16
    e88c:	e1833c01 	orr	r3, r3, r1, lsl #24
    e890:	e1a01422 	lsr	r1, r2, #8
    e894:	e5c32002 	strb	r2, [r3, #2]
    e898:	e5c31003 	strb	r1, [r3, #3]
    e89c:	eaffffda 	b	e80c <HidEnumerateActionAddField+0x1ac>
    e8a0:	e1a01422 	lsr	r1, r2, #8
    e8a4:	e1a03c26 	lsr	r3, r6, #24
    e8a8:	e1a02822 	lsr	r2, r2, #16
    e8ac:	e5c06018 	strb	r6, [r0, #24]
    e8b0:	e5c01019 	strb	r1, [r0, #25]
    e8b4:	e5c0201a 	strb	r2, [r0, #26]
    e8b8:	e5c0301b 	strb	r3, [r0, #27]
    e8bc:	eaffffd2 	b	e80c <HidEnumerateActionAddField+0x1ac>
    e8c0:	e5d0300c 	ldrb	r3, [r0, #12]
    e8c4:	e5d0000d 	ldrb	r0, [r0, #13]
    e8c8:	e5d4100e 	ldrb	r1, [r4, #14]
    e8cc:	e5d4200f 	ldrb	r2, [r4, #15]
    e8d0:	e1833400 	orr	r3, r3, r0, lsl #8
    e8d4:	e1833801 	orr	r3, r3, r1, lsl #16
    e8d8:	e1832c02 	orr	r2, r3, r2, lsl #24
    e8dc:	e2823004 	add	r3, r2, #4	; 0x4
    e8e0:	e1a00c23 	lsr	r0, r3, #24
    e8e4:	e1a05423 	lsr	r5, r3, #8
    e8e8:	e1a0c823 	lsr	ip, r3, #16
    e8ec:	e1a01426 	lsr	r1, r6, #8
    e8f0:	e5c4000f 	strb	r0, [r4, #15]
    e8f4:	e5c4300c 	strb	r3, [r4, #12]
    e8f8:	e5c4500d 	strb	r5, [r4, #13]
    e8fc:	e5c4c00e 	strb	ip, [r4, #14]
    e900:	e5c26004 	strb	r6, [r2, #4]
    e904:	e5c21005 	strb	r1, [r2, #5]
    e908:	e5d4300c 	ldrb	r3, [r4, #12]
    e90c:	e5d4000d 	ldrb	r0, [r4, #13]
    e910:	e5d4100e 	ldrb	r1, [r4, #14]
    e914:	e5d4200f 	ldrb	r2, [r4, #15]
    e918:	e1833400 	orr	r3, r3, r0, lsl #8
    e91c:	e1833801 	orr	r3, r3, r1, lsl #16
    e920:	e1833c02 	orr	r3, r3, r2, lsl #24
    e924:	e3e02000 	mvn	r2, #0	; 0x0
    e928:	e5c32002 	strb	r2, [r3, #2]
    e92c:	e5c32003 	strb	r2, [r3, #3]
    e930:	eaffffb5 	b	e80c <HidEnumerateActionAddField+0x1ac>
    e934:	e1a01422 	lsr	r1, r2, #8
    e938:	e1a03c26 	lsr	r3, r6, #24
    e93c:	e1a02822 	lsr	r2, r2, #16
    e940:	e5c0601c 	strb	r6, [r0, #28]
    e944:	e5c0101d 	strb	r1, [r0, #29]
    e948:	e5c0201e 	strb	r2, [r0, #30]
    e94c:	e5c0301f 	strb	r3, [r0, #31]
    e950:	eaffffad 	b	e80c <HidEnumerateActionAddField+0x1ac>
    e954:	e1a01422 	lsr	r1, r2, #8
    e958:	e1a03c26 	lsr	r3, r6, #24
    e95c:	e1a02822 	lsr	r2, r2, #16
    e960:	e5c06020 	strb	r6, [r0, #32]
    e964:	e5c01021 	strb	r1, [r0, #33]
    e968:	e5c02022 	strb	r2, [r0, #34]
    e96c:	e5c03023 	strb	r3, [r0, #35]
    e970:	eaffffa5 	b	e80c <HidEnumerateActionAddField+0x1ac>
    e974:	e1a01422 	lsr	r1, r2, #8
    e978:	e1a03c26 	lsr	r3, r6, #24
    e97c:	e1a02822 	lsr	r2, r2, #16
    e980:	e5c06028 	strb	r6, [r0, #40]
    e984:	e5c01029 	strb	r1, [r0, #41]
    e988:	e5c0202a 	strb	r2, [r0, #42]
    e98c:	e5c0302b 	strb	r3, [r0, #43]
    e990:	eaffff9d 	b	e80c <HidEnumerateActionAddField+0x1ac>
    e994:	e5842024 	str	r2, [r4, #36]
    e998:	eaffff9b 	b	e80c <HidEnumerateActionAddField+0x1ac>
    e99c:	e1a01422 	lsr	r1, r2, #8
    e9a0:	e1a03c26 	lsr	r3, r6, #24
    e9a4:	e1a02822 	lsr	r2, r2, #16
    e9a8:	e5c06008 	strb	r6, [r0, #8]
    e9ac:	e5c01009 	strb	r1, [r0, #9]
    e9b0:	e5c0200a 	strb	r2, [r0, #10]
    e9b4:	e5c0300b 	strb	r3, [r0, #11]
    e9b8:	eaffff93 	b	e80c <HidEnumerateActionAddField+0x1ac>
    e9bc:	e3a07001 	mov	r7, #1	; 0x1
    e9c0:	e5d41001 	ldrb	r1, [r4, #1]
    e9c4:	e5d43000 	ldrb	r3, [r4]
    e9c8:	e5d42002 	ldrb	r2, [r4, #2]
    e9cc:	e1833401 	orr	r3, r3, r1, lsl #8
    e9d0:	e5d41003 	ldrb	r1, [r4, #3]
    e9d4:	e1833802 	orr	r3, r3, r2, lsl #16
    e9d8:	e1831c01 	orr	r1, r3, r1, lsl #24
    e9dc:	e5d10004 	ldrb	r0, [r1, #4]
    e9e0:	e3500000 	cmp	r0, #0	; 0x0
    e9e4:	0a00011c 	beq	ee5c <HidEnumerateActionAddField+0x7fc>
    e9e8:	e5d4c02e 	ldrb	ip, [r4, #46]
    e9ec:	e3a03000 	mov	r3, #0	; 0x0
    e9f0:	ea000002 	b	ea00 <HidEnumerateActionAddField+0x3a0>
    e9f4:	e1530000 	cmp	r3, r0
    e9f8:	e2811004 	add	r1, r1, #4	; 0x4
    e9fc:	2a00010e 	bcs	ee3c <HidEnumerateActionAddField+0x7dc>
    ea00:	e5915008 	ldr	r5, [r1, #8]
    ea04:	e5d52002 	ldrb	r2, [r5, #2]
    ea08:	e152000c 	cmp	r2, ip
    ea0c:	e2833001 	add	r3, r3, #1	; 0x1
    ea10:	1afffff7 	bne	e9f4 <HidEnumerateActionAddField+0x394>
    ea14:	e5d52003 	ldrb	r2, [r5, #3]
    ea18:	e1520007 	cmp	r2, r7
    ea1c:	1afffff4 	bne	e9f4 <HidEnumerateActionAddField+0x394>
    ea20:	e5d42005 	ldrb	r2, [r4, #5]
    ea24:	e5d43004 	ldrb	r3, [r4, #4]
    ea28:	e5d41006 	ldrb	r1, [r4, #6]
    ea2c:	e1833402 	orr	r3, r3, r2, lsl #8
    ea30:	e5d42007 	ldrb	r2, [r4, #7]
    ea34:	e1833801 	orr	r3, r3, r1, lsl #16
    ea38:	e1932c02 	orrs	r2, r3, r2, lsl #24
    ea3c:	159f7420 	ldrne	r7, [pc, #1056]	; ee64 <HidEnumerateActionAddField+0x804>
    ea40:	13a08000 	movne	r8, #0	; 0x0
    ea44:	1a000022 	bne	ead4 <HidEnumerateActionAddField+0x474>
    ea48:	ea0000f1 	b	ee14 <HidEnumerateActionAddField+0x7b4>
    ea4c:	e5d40005 	ldrb	r0, [r4, #5]
    ea50:	e5d43004 	ldrb	r3, [r4, #4]
    ea54:	e5d41006 	ldrb	r1, [r4, #6]
    ea58:	e5d42007 	ldrb	r2, [r4, #7]
    ea5c:	e1833400 	orr	r3, r3, r0, lsl #8
    ea60:	e1833801 	orr	r3, r3, r1, lsl #16
    ea64:	e1833c02 	orr	r3, r3, r2, lsl #24
    ea68:	e2433001 	sub	r3, r3, #1	; 0x1
    ea6c:	e1a00423 	lsr	r0, r3, #8
    ea70:	e1a01823 	lsr	r1, r3, #16
    ea74:	e1a02c23 	lsr	r2, r3, #24
    ea78:	e5c42007 	strb	r2, [r4, #7]
    ea7c:	e5c43004 	strb	r3, [r4, #4]
    ea80:	e5c40005 	strb	r0, [r4, #5]
    ea84:	e5c41006 	strb	r1, [r4, #6]
    ea88:	e5d53001 	ldrb	r3, [r5, #1]
    ea8c:	e0832103 	add	r2, r3, r3, lsl #2
    ea90:	e0832082 	add	r2, r3, r2, lsl #1
    ea94:	e0852102 	add	r2, r5, r2, lsl #2
    ea98:	e5d51004 	ldrb	r1, [r5, #4]
    ea9c:	e5d2000c 	ldrb	r0, [r2, #12]
    eaa0:	e0801001 	add	r1, r0, r1
    eaa4:	e5c51004 	strb	r1, [r5, #4]
    eaa8:	e5828034 	str	r8, [r2, #52]
    eaac:	e2833001 	add	r3, r3, #1	; 0x1
    eab0:	e5c53001 	strb	r3, [r5, #1]
    eab4:	e5d42005 	ldrb	r2, [r4, #5]
    eab8:	e5d43004 	ldrb	r3, [r4, #4]
    eabc:	e5d41006 	ldrb	r1, [r4, #6]
    eac0:	e1833402 	orr	r3, r3, r2, lsl #8
    eac4:	e5d42007 	ldrb	r2, [r4, #7]
    eac8:	e1833801 	orr	r3, r3, r1, lsl #16
    eacc:	e1932c02 	orrs	r2, r3, r2, lsl #24
    ead0:	0a0000cf 	beq	ee14 <HidEnumerateActionAddField+0x7b4>
    ead4:	e5d4200d 	ldrb	r2, [r4, #13]
    ead8:	e5d4300c 	ldrb	r3, [r4, #12]
    eadc:	e5d4100e 	ldrb	r1, [r4, #14]
    eae0:	e1833402 	orr	r3, r3, r2, lsl #8
    eae4:	e5d4200f 	ldrb	r2, [r4, #15]
    eae8:	e1833801 	orr	r3, r3, r1, lsl #16
    eaec:	e1833c02 	orr	r3, r3, r2, lsl #24
    eaf0:	e5932000 	ldr	r2, [r3]
    eaf4:	e3720001 	cmn	r2, #1	; 0x1
    eaf8:	0a0000b3 	beq	edcc <HidEnumerateActionAddField+0x76c>
    eafc:	e5d53001 	ldrb	r3, [r5, #1]
    eb00:	e0832103 	add	r2, r3, r3, lsl #2
    eb04:	e0833082 	add	r3, r3, r2, lsl #1
    eb08:	e0853103 	add	r3, r5, r3, lsl #2
    eb0c:	e5836010 	str	r6, [r3, #16]
    eb10:	e5d53001 	ldrb	r3, [r5, #1]
    eb14:	e1a02103 	lsl	r2, r3, #2
    eb18:	e0821003 	add	r1, r2, r3
    eb1c:	e0831081 	add	r1, r3, r1, lsl #1
    eb20:	e0851101 	add	r1, r5, r1, lsl #2
    eb24:	e5d11010 	ldrb	r1, [r1, #16]
    eb28:	e0822003 	add	r2, r2, r3
    eb2c:	e3110002 	tst	r1, #2	; 0x2
    eb30:	e0832082 	add	r2, r3, r2, lsl #1
    eb34:	05d40004 	ldrbeq	r0, [r4, #4]
    eb38:	e1a02102 	lsl	r2, r2, #2
    eb3c:	e0853002 	add	r3, r5, r2
    eb40:	13a00001 	movne	r0, #1	; 0x1
    eb44:	e5c3000e 	strb	r0, [r3, #14]
    eb48:	e5d49019 	ldrb	r9, [r4, #25]
    eb4c:	e5d40018 	ldrb	r0, [r4, #24]
    eb50:	e5d4a01a 	ldrb	sl, [r4, #26]
    eb54:	e5d4c01b 	ldrb	ip, [r4, #27]
    eb58:	e1800409 	orr	r0, r0, r9, lsl #8
    eb5c:	e180080a 	orr	r0, r0, sl, lsl #16
    eb60:	e1800c0c 	orr	r0, r0, ip, lsl #24
    eb64:	e5830020 	str	r0, [r3, #32]
    eb68:	e5d40014 	ldrb	r0, [r4, #20]
    eb6c:	e5d49015 	ldrb	r9, [r4, #21]
    eb70:	e5d4a016 	ldrb	sl, [r4, #22]
    eb74:	e5d4c017 	ldrb	ip, [r4, #23]
    eb78:	e1800409 	orr	r0, r0, r9, lsl #8
    eb7c:	e180080a 	orr	r0, r0, sl, lsl #16
    eb80:	e1800c0c 	orr	r0, r0, ip, lsl #24
    eb84:	e583001c 	str	r0, [r3, #28]
    eb88:	e5d50004 	ldrb	r0, [r5, #4]
    eb8c:	e5c3000d 	strb	r0, [r3, #13]
    eb90:	e5d4a021 	ldrb	sl, [r4, #33]
    eb94:	e5d41020 	ldrb	r1, [r4, #32]
    eb98:	e5d4c022 	ldrb	ip, [r4, #34]
    eb9c:	e5d40023 	ldrb	r0, [r4, #35]
    eba0:	e181140a 	orr	r1, r1, sl, lsl #8
    eba4:	e181180c 	orr	r1, r1, ip, lsl #16
    eba8:	e1811c00 	orr	r1, r1, r0, lsl #24
    ebac:	e5831028 	str	r1, [r3, #40]
    ebb0:	e5d4a01d 	ldrb	sl, [r4, #29]
    ebb4:	e5d4101c 	ldrb	r1, [r4, #28]
    ebb8:	e5d4c01e 	ldrb	ip, [r4, #30]
    ebbc:	e5d4001f 	ldrb	r0, [r4, #31]
    ebc0:	e181140a 	orr	r1, r1, sl, lsl #8
    ebc4:	e181180c 	orr	r1, r1, ip, lsl #16
    ebc8:	e1811c00 	orr	r1, r1, r0, lsl #24
    ebcc:	e5831024 	str	r1, [r3, #36]
    ebd0:	e5943010 	ldr	r3, [r4, #16]
    ebd4:	e0852002 	add	r2, r5, r2
    ebd8:	e5823018 	str	r3, [r2, #24]
    ebdc:	e5d53001 	ldrb	r3, [r5, #1]
    ebe0:	e0832103 	add	r2, r3, r3, lsl #2
    ebe4:	e0833082 	add	r3, r3, r2, lsl #1
    ebe8:	e5d41008 	ldrb	r1, [r4, #8]
    ebec:	e1a03103 	lsl	r3, r3, #2
    ebf0:	e0852003 	add	r2, r5, r3
    ebf4:	e5c2100c 	strb	r1, [r2, #12]
    ebf8:	e5942024 	ldr	r2, [r4, #36]
    ebfc:	e0853003 	add	r3, r5, r3
    ec00:	e583202c 	str	r2, [r3, #44]
    ec04:	e5d53001 	ldrb	r3, [r5, #1]
    ec08:	e5d41028 	ldrb	r1, [r4, #40]
    ec0c:	e5d4a029 	ldrb	sl, [r4, #41]
    ec10:	e5d4c02a 	ldrb	ip, [r4, #42]
    ec14:	e0832103 	add	r2, r3, r3, lsl #2
    ec18:	e5d4002b 	ldrb	r0, [r4, #43]
    ec1c:	e0833082 	add	r3, r3, r2, lsl #1
    ec20:	e181140a 	orr	r1, r1, sl, lsl #8
    ec24:	e1a02103 	lsl	r2, r3, #2
    ec28:	e181180c 	orr	r1, r1, ip, lsl #16
    ec2c:	e1811c00 	orr	r1, r1, r0, lsl #24
    ec30:	e0853002 	add	r3, r5, r2
    ec34:	e5831030 	str	r1, [r3, #48]
    ec38:	e5d4100d 	ldrb	r1, [r4, #13]
    ec3c:	e5d4300c 	ldrb	r3, [r4, #12]
    ec40:	e5d4000e 	ldrb	r0, [r4, #14]
    ec44:	e1833401 	orr	r3, r3, r1, lsl #8
    ec48:	e5d4100f 	ldrb	r1, [r4, #15]
    ec4c:	e1833800 	orr	r3, r3, r0, lsl #16
    ec50:	e1833c01 	orr	r3, r3, r1, lsl #24
    ec54:	e5d31002 	ldrb	r1, [r3, #2]
    ec58:	e5d30003 	ldrb	r0, [r3, #3]
    ec5c:	e1811400 	orr	r1, r1, r0, lsl #8
    ec60:	e1510007 	cmp	r1, r7
    ec64:	0a000041 	beq	ed70 <HidEnumerateActionAddField+0x710>
    ec68:	e413a004 	ldr	sl, [r3], #-4
    ec6c:	e0852002 	add	r2, r5, r2
    ec70:	e1a0c423 	lsr	ip, r3, #8
    ec74:	e1a00823 	lsr	r0, r3, #16
    ec78:	e1a01c23 	lsr	r1, r3, #24
    ec7c:	e582a014 	str	sl, [r2, #20]
    ec80:	e5c4300c 	strb	r3, [r4, #12]
    ec84:	e5c4c00d 	strb	ip, [r4, #13]
    ec88:	e5c4000e 	strb	r0, [r4, #14]
    ec8c:	e5c4100f 	strb	r1, [r4, #15]
    ec90:	e5d53001 	ldrb	r3, [r5, #1]
    ec94:	e0832103 	add	r2, r3, r3, lsl #2
    ec98:	e0833082 	add	r3, r3, r2, lsl #1
    ec9c:	e0853103 	add	r3, r5, r3, lsl #2
    eca0:	e5d33010 	ldrb	r3, [r3, #16]
    eca4:	e1a030a3 	lsr	r3, r3, #1
    eca8:	e2133001 	ands	r3, r3, #1	; 0x1
    ecac:	1affff66 	bne	ea4c <HidEnumerateActionAddField+0x3ec>
    ecb0:	e5c43004 	strb	r3, [r4, #4]
    ecb4:	e5c43005 	strb	r3, [r4, #5]
    ecb8:	e5c43006 	strb	r3, [r4, #6]
    ecbc:	e5c43007 	strb	r3, [r4, #7]
    ecc0:	e5d53001 	ldrb	r3, [r5, #1]
    ecc4:	e083a103 	add	sl, r3, r3, lsl #2
    ecc8:	e083308a 	add	r3, r3, sl, lsl #1
    eccc:	e085a103 	add	sl, r5, r3, lsl #2
    ecd0:	e5da300e 	ldrb	r3, [sl, #14]
    ecd4:	e5da000c 	ldrb	r0, [sl, #12]
    ecd8:	e0000093 	mul	r0, r3, r0
    ecdc:	e5d53004 	ldrb	r3, [r5, #4]
    ece0:	e0803003 	add	r3, r0, r3
    ece4:	e5c53004 	strb	r3, [r5, #4]
    ece8:	e1a001a0 	lsr	r0, r0, #3
    ecec:	ebfff85a 	bl	ce5c <MemoryAllocate>
    ecf0:	e58a0034 	str	r0, [sl, #52]
    ecf4:	e5d53001 	ldrb	r3, [r5, #1]
    ecf8:	eaffff6b 	b	eaac <HidEnumerateActionAddField+0x44c>
    ecfc:	e5c4202e 	strb	r2, [r4, #46]
    ed00:	eafffec1 	b	e80c <HidEnumerateActionAddField+0x1ac>
    ed04:	e3a07003 	mov	r7, #3	; 0x3
    ed08:	eaffff2c 	b	e9c0 <HidEnumerateActionAddField+0x360>
    ed0c:	e1a03422 	lsr	r3, r2, #8
    ed10:	e5c4202c 	strb	r2, [r4, #44]
    ed14:	e5c0302d 	strb	r3, [r0, #45]
    ed18:	eafffebb 	b	e80c <HidEnumerateActionAddField+0x1ac>
    ed1c:	e21260ff 	ands	r6, r2, #255	; 0xff
    ed20:	05806010 	streq	r6, [r0, #16]
    ed24:	eafffeb8 	b	e80c <HidEnumerateActionAddField+0x1ac>
    ed28:	e1a01422 	lsr	r1, r2, #8
    ed2c:	e1a03c26 	lsr	r3, r6, #24
    ed30:	e1a02822 	lsr	r2, r2, #16
    ed34:	e5c06014 	strb	r6, [r0, #20]
    ed38:	e5c01015 	strb	r1, [r0, #21]
    ed3c:	e5c02016 	strb	r2, [r0, #22]
    ed40:	e5c03017 	strb	r3, [r0, #23]
    ed44:	eafffeb0 	b	e80c <HidEnumerateActionAddField+0x1ac>
    ed48:	e1a01422 	lsr	r1, r2, #8
    ed4c:	e1a03c26 	lsr	r3, r6, #24
    ed50:	e1a02822 	lsr	r2, r2, #16
    ed54:	e5c06004 	strb	r6, [r0, #4]
    ed58:	e5c01005 	strb	r1, [r0, #5]
    ed5c:	e5c02006 	strb	r2, [r0, #6]
    ed60:	e5c03007 	strb	r3, [r0, #7]
    ed64:	eafffea8 	b	e80c <HidEnumerateActionAddField+0x1ac>
    ed68:	e3a07002 	mov	r7, #2	; 0x2
    ed6c:	eaffff13 	b	e9c0 <HidEnumerateActionAddField+0x360>
    ed70:	e5131004 	ldr	r1, [r3, #-4]
    ed74:	e0852002 	add	r2, r5, r2
    ed78:	e5821014 	str	r1, [r2, #20]
    ed7c:	e5531004 	ldrb	r1, [r3, #-4]
    ed80:	e553c003 	ldrb	ip, [r3, #-3]
    ed84:	e5d32000 	ldrb	r2, [r3]
    ed88:	e5d30001 	ldrb	r0, [r3, #1]
    ed8c:	e181140c 	orr	r1, r1, ip, lsl #8
    ed90:	e1822400 	orr	r2, r2, r0, lsl #8
    ed94:	e1520001 	cmp	r2, r1
    ed98:	0a000014 	beq	edf0 <HidEnumerateActionAddField+0x790>
    ed9c:	e5d52001 	ldrb	r2, [r5, #1]
    eda0:	e0820102 	add	r0, r2, r2, lsl #2
    eda4:	e0822080 	add	r2, r2, r0, lsl #1
    eda8:	e0852102 	add	r2, r5, r2, lsl #2
    edac:	e5d22010 	ldrb	r2, [r2, #16]
    edb0:	e3120002 	tst	r2, #2	; 0x2
    edb4:	0a00000d 	beq	edf0 <HidEnumerateActionAddField+0x790>
    edb8:	e2811001 	add	r1, r1, #1	; 0x1
    edbc:	e1a02421 	lsr	r2, r1, #8
    edc0:	e5431004 	strb	r1, [r3, #-4]
    edc4:	e5432003 	strb	r2, [r3, #-3]
    edc8:	eaffffb0 	b	ec90 <HidEnumerateActionAddField+0x630>
    edcc:	e2833004 	add	r3, r3, #4	; 0x4
    edd0:	e1a00423 	lsr	r0, r3, #8
    edd4:	e1a01823 	lsr	r1, r3, #16
    edd8:	e1a02c23 	lsr	r2, r3, #24
    eddc:	e5c4300c 	strb	r3, [r4, #12]
    ede0:	e5c4000d 	strb	r0, [r4, #13]
    ede4:	e5c4100e 	strb	r1, [r4, #14]
    ede8:	e5c4200f 	strb	r2, [r4, #15]
    edec:	eaffff42 	b	eafc <HidEnumerateActionAddField+0x49c>
    edf0:	e2433008 	sub	r3, r3, #8	; 0x8
    edf4:	e1a00423 	lsr	r0, r3, #8
    edf8:	e1a01823 	lsr	r1, r3, #16
    edfc:	e1a02c23 	lsr	r2, r3, #24
    ee00:	e5c4300c 	strb	r3, [r4, #12]
    ee04:	e5c4000d 	strb	r0, [r4, #13]
    ee08:	e5c4100e 	strb	r1, [r4, #14]
    ee0c:	e5c4200f 	strb	r2, [r4, #15]
    ee10:	eaffff9e 	b	ec90 <HidEnumerateActionAddField+0x630>
    ee14:	e5d4300c 	ldrb	r3, [r4, #12]
    ee18:	e5d4000d 	ldrb	r0, [r4, #13]
    ee1c:	e5d4100e 	ldrb	r1, [r4, #14]
    ee20:	e5d4200f 	ldrb	r2, [r4, #15]
    ee24:	e1833400 	orr	r3, r3, r0, lsl #8
    ee28:	e1833801 	orr	r3, r3, r1, lsl #16
    ee2c:	e1833c02 	orr	r3, r3, r2, lsl #24
    ee30:	e3a02000 	mov	r2, #0	; 0x0
    ee34:	e5832004 	str	r2, [r3, #4]
    ee38:	eafffe73 	b	e80c <HidEnumerateActionAddField+0x1ac>
    ee3c:	e3a05000 	mov	r5, #0	; 0x0
    ee40:	eafffef6 	b	ea20 <HidEnumerateActionAddField+0x3c0>
    ee44:	e181c400 	orr	ip, r1, r0, lsl #8
    ee48:	e18cc802 	orr	ip, ip, r2, lsl #16
    ee4c:	e18ccc03 	orr	ip, ip, r3, lsl #24
    ee50:	e59cc000 	ldr	ip, [ip]
    ee54:	e584c010 	str	ip, [r4, #16]
    ee58:	eafffe60 	b	e7e0 <HidEnumerateActionAddField+0x180>
    ee5c:	e1a05000 	mov	r5, r0
    ee60:	eafffeee 	b	ea20 <HidEnumerateActionAddField+0x3c0>
    ee64:	0000ffff 	.word	0x0000ffff

0000ee68 <HidDeallocate>:
    ee68:	e92d47f0 	push	{r4, r5, r6, r7, r8, r9, sl, lr}
    ee6c:	e5906404 	ldr	r6, [r0, #1028]
    ee70:	e3560000 	cmp	r6, #0	; 0x0
    ee74:	e1a0a000 	mov	sl, r0
    ee78:	0a00004a 	beq	efa8 <HidDeallocate+0x140>
    ee7c:	e5d62019 	ldrb	r2, [r6, #25]
    ee80:	e5d63018 	ldrb	r3, [r6, #24]
    ee84:	e5d6101a 	ldrb	r1, [r6, #26]
    ee88:	e1833402 	orr	r3, r3, r2, lsl #8
    ee8c:	e5d6201b 	ldrb	r2, [r6, #27]
    ee90:	e1833801 	orr	r3, r3, r1, lsl #16
    ee94:	e1933c02 	orrs	r3, r3, r2, lsl #24
    ee98:	11a0e00f 	movne	lr, pc
    ee9c:	112fff13 	bxne	r3
    eea0:	e5d6200c 	ldrb	r2, [r6, #12]
    eea4:	e5d6100d 	ldrb	r1, [r6, #13]
    eea8:	e5d6c00e 	ldrb	ip, [r6, #14]
    eeac:	e1820401 	orr	r0, r2, r1, lsl #8
    eeb0:	e5d6300f 	ldrb	r3, [r6, #15]
    eeb4:	e180080c 	orr	r0, r0, ip, lsl #16
    eeb8:	e1900c03 	orrs	r0, r0, r3, lsl #24
    eebc:	0a000037 	beq	efa0 <HidDeallocate+0x138>
    eec0:	e5d0e004 	ldrb	lr, [r0, #4]
    eec4:	e35e0000 	cmp	lr, #0	; 0x0
    eec8:	0a000033 	beq	ef9c <HidDeallocate+0x134>
    eecc:	e3a07000 	mov	r7, #0	; 0x0
    eed0:	e2878002 	add	r8, r7, #2	; 0x2
    eed4:	e7909108 	ldr	r9, [r0, r8, lsl #2]
    eed8:	e3590000 	cmp	r9, #0	; 0x0
    eedc:	0a000027 	beq	ef80 <HidDeallocate+0x118>
    eee0:	e5d93008 	ldrb	r3, [r9, #8]
    eee4:	e5990004 	ldr	r0, [r9, #4]
    eee8:	e1a03c03 	lsl	r3, r3, #24
    eeec:	e1930420 	orrs	r0, r3, r0, lsr #8
    eef0:	1bfff8ed 	blne	d2ac <MemoryDeallocate>
    eef4:	e5d92001 	ldrb	r2, [r9, #1]
    eef8:	e3520000 	cmp	r2, #0	; 0x0
    eefc:	11a05009 	movne	r5, r9
    ef00:	13a04000 	movne	r4, #0	; 0x0
    ef04:	1a000003 	bne	ef18 <HidDeallocate+0xb0>
    ef08:	ea00000f 	b	ef4c <HidDeallocate+0xe4>
    ef0c:	e1520004 	cmp	r2, r4
    ef10:	e285502c 	add	r5, r5, #44	; 0x2c
    ef14:	9a00000c 	bls	ef4c <HidDeallocate+0xe4>
    ef18:	e0843104 	add	r3, r4, r4, lsl #2
    ef1c:	e0843083 	add	r3, r4, r3, lsl #1
    ef20:	e0893103 	add	r3, r9, r3, lsl #2
    ef24:	e5d33010 	ldrb	r3, [r3, #16]
    ef28:	e3130002 	tst	r3, #2	; 0x2
    ef2c:	e2844001 	add	r4, r4, #1	; 0x1
    ef30:	1afffff5 	bne	ef0c <HidDeallocate+0xa4>
    ef34:	e5950034 	ldr	r0, [r5, #52]
    ef38:	ebfff8db 	bl	d2ac <MemoryDeallocate>
    ef3c:	e5d92001 	ldrb	r2, [r9, #1]
    ef40:	e1520004 	cmp	r2, r4
    ef44:	e285502c 	add	r5, r5, #44	; 0x2c
    ef48:	8afffff2 	bhi	ef18 <HidDeallocate+0xb0>
    ef4c:	e5d6200d 	ldrb	r2, [r6, #13]
    ef50:	e5d6300c 	ldrb	r3, [r6, #12]
    ef54:	e5d6100e 	ldrb	r1, [r6, #14]
    ef58:	e1833402 	orr	r3, r3, r2, lsl #8
    ef5c:	e5d6200f 	ldrb	r2, [r6, #15]
    ef60:	e1833801 	orr	r3, r3, r1, lsl #16
    ef64:	e1833c02 	orr	r3, r3, r2, lsl #24
    ef68:	e7930108 	ldr	r0, [r3, r8, lsl #2]
    ef6c:	ebfff8ce 	bl	d2ac <MemoryDeallocate>
    ef70:	e5d6200c 	ldrb	r2, [r6, #12]
    ef74:	e5d6100d 	ldrb	r1, [r6, #13]
    ef78:	e5d6c00e 	ldrb	ip, [r6, #14]
    ef7c:	e5d6300f 	ldrb	r3, [r6, #15]
    ef80:	e1820401 	orr	r0, r2, r1, lsl #8
    ef84:	e180080c 	orr	r0, r0, ip, lsl #16
    ef88:	e1800c03 	orr	r0, r0, r3, lsl #24
    ef8c:	e5d0e004 	ldrb	lr, [r0, #4]
    ef90:	e2877001 	add	r7, r7, #1	; 0x1
    ef94:	e15e0007 	cmp	lr, r7
    ef98:	8affffcc 	bhi	eed0 <HidDeallocate+0x68>
    ef9c:	ebfff8c2 	bl	d2ac <MemoryDeallocate>
    efa0:	e1a00006 	mov	r0, r6
    efa4:	ebfff8c0 	bl	d2ac <MemoryDeallocate>
    efa8:	e3a03000 	mov	r3, #0	; 0x0
    efac:	e58a3010 	str	r3, [sl, #16]
    efb0:	e58a300c 	str	r3, [sl, #12]
    efb4:	e8bd47f0 	pop	{r4, r5, r6, r7, r8, r9, sl, lr}
    efb8:	e12fff1e 	bx	lr

0000efbc <HidEnumerateActionCountReport>:
    efbc:	e2411020 	sub	r1, r1, #32	; 0x20
    efc0:	e351000c 	cmp	r1, #12	; 0xc
    efc4:	979ff101 	ldrls	pc, [pc, r1, lsl #2]
    efc8:	ea000010 	b	f010 <HidEnumerateActionCountReport+0x54>
    efcc:	0000f054 	.word	0x0000f054
    efd0:	0000f000 	.word	0x0000f000
    efd4:	0000f010 	.word	0x0000f010
    efd8:	0000f010 	.word	0x0000f010
    efdc:	0000f034 	.word	0x0000f034
    efe0:	0000f010 	.word	0x0000f010
    efe4:	0000f010 	.word	0x0000f010
    efe8:	0000f010 	.word	0x0000f010
    efec:	0000f010 	.word	0x0000f010
    eff0:	0000f010 	.word	0x0000f010
    eff4:	0000f010 	.word	0x0000f010
    eff8:	0000f010 	.word	0x0000f010
    effc:	0000f014 	.word	0x0000f014
    f000:	e3a03000 	mov	r3, #0	; 0x0
    f004:	e5c03004 	strb	r3, [r0, #4]
    f008:	e5c03003 	strb	r3, [r0, #3]
    f00c:	e5c03002 	strb	r3, [r0, #2]
    f010:	e12fff1e 	bx	lr
    f014:	e5d03004 	ldrb	r3, [r0, #4]
    f018:	e3530000 	cmp	r3, #0	; 0x0
    f01c:	05d03000 	ldrbeq	r3, [r0]
    f020:	02833001 	addeq	r3, r3, #1	; 0x1
    f024:	05c03000 	strbeq	r3, [r0]
    f028:	03a03001 	moveq	r3, #1	; 0x1
    f02c:	05c03004 	strbeq	r3, [r0, #4]
    f030:	e12fff1e 	bx	lr
    f034:	e5d03003 	ldrb	r3, [r0, #3]
    f038:	e3530000 	cmp	r3, #0	; 0x0
    f03c:	05d03000 	ldrbeq	r3, [r0]
    f040:	02833001 	addeq	r3, r3, #1	; 0x1
    f044:	05c03000 	strbeq	r3, [r0]
    f048:	03a03001 	moveq	r3, #1	; 0x1
    f04c:	05c03003 	strbeq	r3, [r0, #3]
    f050:	e12fff1e 	bx	lr
    f054:	e5d03002 	ldrb	r3, [r0, #2]
    f058:	e3530000 	cmp	r3, #0	; 0x0
    f05c:	05d03000 	ldrbeq	r3, [r0]
    f060:	02833001 	addeq	r3, r3, #1	; 0x1
    f064:	05c03000 	strbeq	r3, [r0]
    f068:	03a03001 	moveq	r3, #1	; 0x1
    f06c:	05c03002 	strbeq	r3, [r0, #2]
    f070:	e12fff1e 	bx	lr

0000f074 <HidGetReport>:
    f074:	e92d40f0 	push	{r4, r5, r6, r7, lr}
    f078:	e5d0e01b 	ldrb	lr, [r0, #27]
    f07c:	e20ee0ff 	and	lr, lr, #255	; 0xff
    f080:	e24dd01c 	sub	sp, sp, #28	; 0x1c
    f084:	e3a04000 	mov	r4, #0	; 0x0
    f088:	e35e0008 	cmp	lr, #8	; 0x8
    f08c:	e1a05003 	mov	r5, r3
    f090:	e59dc030 	ldr	ip, [sp, #48]
    f094:	e58d400c 	str	r4, [sp, #12]
    f098:	9a000005 	bls	f0b4 <HidGetReport+0x40>
    f09c:	e35e0010 	cmp	lr, #16	; 0x10
    f0a0:	93a04001 	movls	r4, #1	; 0x1
    f0a4:	9a000002 	bls	f0b4 <HidGetReport+0x40>
    f0a8:	e35e0020 	cmp	lr, #32	; 0x20
    f0ac:	83a04003 	movhi	r4, #3	; 0x3
    f0b0:	93a04002 	movls	r4, #2	; 0x2
    f0b4:	e5dd600c 	ldrb	r6, [sp, #12]
    f0b8:	e5d07004 	ldrb	r7, [r0, #4]
    f0bc:	e5dd300e 	ldrb	r3, [sp, #14]
    f0c0:	e20660f0 	and	r6, r6, #240	; 0xf0
    f0c4:	e2077003 	and	r7, r7, #3	; 0x3
    f0c8:	e1864004 	orr	r4, r6, r4
    f0cc:	e3833004 	orr	r3, r3, #4	; 0x4
    f0d0:	e5d06000 	ldrb	r6, [r0]
    f0d4:	e1844107 	orr	r4, r4, r7, lsl #2
    f0d8:	e5cd300e 	strb	r3, [sp, #14]
    f0dc:	e28d3010 	add	r3, sp, #16	; 0x10
    f0e0:	e5cd400c 	strb	r4, [sp, #12]
    f0e4:	e5cd600d 	strb	r6, [sp, #13]
    f0e8:	e58d3000 	str	r3, [sp]
    f0ec:	e3e0405e 	mvn	r4, #94	; 0x5e
    f0f0:	e3a0300a 	mov	r3, #10	; 0xa
    f0f4:	e182e401 	orr	lr, r2, r1, lsl #8
    f0f8:	e58d3004 	str	r3, [sp, #4]
    f0fc:	e5cd4010 	strb	r4, [sp, #16]
    f100:	e59d100c 	ldr	r1, [sp, #12]
    f104:	e3a04001 	mov	r4, #1	; 0x1
    f108:	e59d2034 	ldr	r2, [sp, #52]
    f10c:	e1a0300c 	mov	r3, ip
    f110:	e5cd4011 	strb	r4, [sp, #17]
    f114:	e1cde1b2 	strh	lr, [sp, #18]
    f118:	e1cd51b4 	strh	r5, [sp, #20]
    f11c:	e1cdc1b6 	strh	ip, [sp, #22]
    f120:	ebfff8f2 	bl	d4f0 <UsbControlMessage>
    f124:	e28dd01c 	add	sp, sp, #28	; 0x1c
    f128:	e8bd40f0 	pop	{r4, r5, r6, r7, lr}
    f12c:	e12fff1e 	bx	lr

0000f130 <HidSetReport>:
    f130:	e92d4070 	push	{r4, r5, r6, lr}
    f134:	e5d0e01b 	ldrb	lr, [r0, #27]
    f138:	e20ee0ff 	and	lr, lr, #255	; 0xff
    f13c:	e24dd018 	sub	sp, sp, #24	; 0x18
    f140:	e3a04000 	mov	r4, #0	; 0x0
    f144:	e35e0008 	cmp	lr, #8	; 0x8
    f148:	e1a05003 	mov	r5, r3
    f14c:	e59dc028 	ldr	ip, [sp, #40]
    f150:	e58d400c 	str	r4, [sp, #12]
    f154:	9a000005 	bls	f170 <HidSetReport+0x40>
    f158:	e35e0010 	cmp	lr, #16	; 0x10
    f15c:	93a04001 	movls	r4, #1	; 0x1
    f160:	9a000002 	bls	f170 <HidSetReport+0x40>
    f164:	e35e0020 	cmp	lr, #32	; 0x20
    f168:	83a04003 	movhi	r4, #3	; 0x3
    f16c:	93a04002 	movls	r4, #2	; 0x2
    f170:	e5dd300c 	ldrb	r3, [sp, #12]
    f174:	e5d06004 	ldrb	r6, [r0, #4]
    f178:	e20330f0 	and	r3, r3, #240	; 0xf0
    f17c:	e1834004 	orr	r4, r3, r4
    f180:	e5d03000 	ldrb	r3, [r0]
    f184:	e2066003 	and	r6, r6, #3	; 0x3
    f188:	e1844106 	orr	r4, r4, r6, lsl #2
    f18c:	e5cd300d 	strb	r3, [sp, #13]
    f190:	e28d3010 	add	r3, sp, #16	; 0x10
    f194:	e5cd400c 	strb	r4, [sp, #12]
    f198:	e58d3000 	str	r3, [sp]
    f19c:	e3a04021 	mov	r4, #33	; 0x21
    f1a0:	e3a0300a 	mov	r3, #10	; 0xa
    f1a4:	e182e401 	orr	lr, r2, r1, lsl #8
    f1a8:	e58d3004 	str	r3, [sp, #4]
    f1ac:	e5cd4010 	strb	r4, [sp, #16]
    f1b0:	e59d100c 	ldr	r1, [sp, #12]
    f1b4:	e3a04009 	mov	r4, #9	; 0x9
    f1b8:	e59d202c 	ldr	r2, [sp, #44]
    f1bc:	e1a0300c 	mov	r3, ip
    f1c0:	e5cd4011 	strb	r4, [sp, #17]
    f1c4:	e1cde1b2 	strh	lr, [sp, #18]
    f1c8:	e1cd51b4 	strh	r5, [sp, #20]
    f1cc:	e1cdc1b6 	strh	ip, [sp, #22]
    f1d0:	ebfff8c6 	bl	d4f0 <UsbControlMessage>
    f1d4:	e28dd018 	add	sp, sp, #24	; 0x18
    f1d8:	e8bd4070 	pop	{r4, r5, r6, lr}
    f1dc:	e12fff1e 	bx	lr

0000f1e0 <BitSet>:
    f1e0:	e92d0ff0 	push	{r4, r5, r6, r7, r8, r9, sl, fp}
    f1e4:	e0825001 	add	r5, r2, r1
    f1e8:	e2856007 	add	r6, r5, #7	; 0x7
    f1ec:	e1a041a1 	lsr	r4, r1, #3
    f1f0:	e1a061a6 	lsr	r6, r6, #3
    f1f4:	e1540006 	cmp	r4, r6
    f1f8:	e24dd010 	sub	sp, sp, #16	; 0x10
    f1fc:	2a00003f 	bcs	f300 <BitSet+0x120>
    f200:	e201a007 	and	sl, r1, #7	; 0x7
    f204:	e08a8002 	add	r8, sl, r2
    f208:	e3a01001 	mov	r1, #1	; 0x1
    f20c:	e1a08811 	lsl	r8, r1, r8
    f210:	e1a01a11 	lsl	r1, r1, sl
    f214:	e1a0ca13 	lsl	ip, r3, sl
    f218:	e20120ff 	and	r2, r1, #255	; 0xff
    f21c:	e20880ff 	and	r8, r8, #255	; 0xff
    f220:	e0629008 	rsb	r9, r2, r8
    f224:	e2622000 	rsb	r2, r2, #0	; 0x0
    f228:	e2488001 	sub	r8, r8, #1	; 0x1
    f22c:	e20220ff 	and	r2, r2, #255	; 0xff
    f230:	e20880ff 	and	r8, r8, #255	; 0xff
    f234:	e20cc0ff 	and	ip, ip, #255	; 0xff
    f238:	e20990ff 	and	r9, r9, #255	; 0xff
    f23c:	e1e07002 	mvn	r7, r2
    f240:	e1e01008 	mvn	r1, r8
    f244:	e00c2002 	and	r2, ip, r2
    f248:	e1e0b009 	mvn	fp, r9
    f24c:	e2455001 	sub	r5, r5, #1	; 0x1
    f250:	e20770ff 	and	r7, r7, #255	; 0xff
    f254:	e20110ff 	and	r1, r1, #255	; 0xff
    f258:	e009900c 	and	r9, r9, ip
    f25c:	e58d2008 	str	r2, [sp, #8]
    f260:	e1a051a5 	lsr	r5, r5, #3
    f264:	e20bb0ff 	and	fp, fp, #255	; 0xff
    f268:	e58d7004 	str	r7, [sp, #4]
    f26c:	e58d100c 	str	r1, [sp, #12]
    f270:	e1a02004 	mov	r2, r4
    f274:	e3a0c000 	mov	ip, #0	; 0x0
    f278:	e26aa008 	rsb	sl, sl, #8	; 0x8
    f27c:	e58d8000 	str	r8, [sp]
    f280:	ea00000d 	b	f2bc <BitSet+0xdc>
    f284:	e1550002 	cmp	r5, r2
    f288:	059d1000 	ldreq	r1, [sp]
    f28c:	11a01c33 	lsrne	r1, r3, ip
    f290:	00017c33 	andeq	r7, r1, r3, lsr ip
    f294:	059d800c 	ldreq	r8, [sp, #12]
    f298:	07d01005 	ldrbeq	r1, [r0, r5]
    f29c:	00011008 	andeq	r1, r1, r8
    f2a0:	01871001 	orreq	r1, r7, r1
    f2a4:	17c01002 	strbne	r1, [r0, r2]
    f2a8:	e2822001 	add	r2, r2, #1	; 0x1
    f2ac:	07c01005 	strbeq	r1, [r0, r5]
    f2b0:	128cc008 	addne	ip, ip, #8	; 0x8
    f2b4:	e1520006 	cmp	r2, r6
    f2b8:	0a000010 	beq	f300 <BitSet+0x120>
    f2bc:	e1540005 	cmp	r4, r5
    f2c0:	07d01002 	ldrbeq	r1, [r0, r2]
    f2c4:	0001100b 	andeq	r1, r1, fp
    f2c8:	01891001 	orreq	r1, r9, r1
    f2cc:	07c01002 	strbeq	r1, [r0, r2]
    f2d0:	e1520004 	cmp	r2, r4
    f2d4:	1affffea 	bne	f284 <BitSet+0xa4>
    f2d8:	e7d01002 	ldrb	r1, [r0, r2]
    f2dc:	e59d7004 	ldr	r7, [sp, #4]
    f2e0:	e59d8008 	ldr	r8, [sp, #8]
    f2e4:	e0071001 	and	r1, r7, r1
    f2e8:	e1881001 	orr	r1, r8, r1
    f2ec:	e7c01002 	strb	r1, [r0, r2]
    f2f0:	e2822001 	add	r2, r2, #1	; 0x1
    f2f4:	e1520006 	cmp	r2, r6
    f2f8:	e08cc00a 	add	ip, ip, sl
    f2fc:	1affffee 	bne	f2bc <BitSet+0xdc>
    f300:	e28dd010 	add	sp, sp, #16	; 0x10
    f304:	e8bd0ff0 	pop	{r4, r5, r6, r7, r8, r9, sl, fp}
    f308:	e12fff1e 	bx	lr

0000f30c <BitGetUnsigned>:
    f30c:	e92d0ff0 	push	{r4, r5, r6, r7, r8, r9, sl, fp}
    f310:	e0825001 	add	r5, r2, r1
    f314:	e2856007 	add	r6, r5, #7	; 0x7
    f318:	e1a0c1a1 	lsr	ip, r1, #3
    f31c:	e1a061a6 	lsr	r6, r6, #3
    f320:	e15c0006 	cmp	ip, r6
    f324:	e24dd008 	sub	sp, sp, #8	; 0x8
    f328:	e1a07000 	mov	r7, r0
    f32c:	2a000036 	bcs	f40c <BitGetUnsigned+0x100>
    f330:	e2011007 	and	r1, r1, #7	; 0x7
    f334:	e3a0b001 	mov	fp, #1	; 0x1
    f338:	e0813002 	add	r3, r1, r2
    f33c:	e1a0331b 	lsl	r3, fp, r3
    f340:	e1a0b11b 	lsl	fp, fp, r1
    f344:	e20330ff 	and	r3, r3, #255	; 0xff
    f348:	e20bb0ff 	and	fp, fp, #255	; 0xff
    f34c:	e06b9003 	rsb	r9, fp, r3
    f350:	e2433001 	sub	r3, r3, #1	; 0x1
    f354:	e20330ff 	and	r3, r3, #255	; 0xff
    f358:	e2455001 	sub	r5, r5, #1	; 0x1
    f35c:	e26bb000 	rsb	fp, fp, #0	; 0x0
    f360:	e3a04000 	mov	r4, #0	; 0x0
    f364:	e2618008 	rsb	r8, r1, #8	; 0x8
    f368:	e58d3004 	str	r3, [sp, #4]
    f36c:	e1a051a5 	lsr	r5, r5, #3
    f370:	e20990ff 	and	r9, r9, #255	; 0xff
    f374:	e20bb0ff 	and	fp, fp, #255	; 0xff
    f378:	e1a0300c 	mov	r3, ip
    f37c:	e1a00004 	mov	r0, r4
    f380:	e58d8000 	str	r8, [sp]
    f384:	ea00000d 	b	f3c0 <BitGetUnsigned+0xb4>
    f388:	e153000c 	cmp	r3, ip
    f38c:	0a000016 	beq	f3ec <BitGetUnsigned+0xe0>
    f390:	e1550003 	cmp	r5, r3
    f394:	17d7a003 	ldrbne	sl, [r7, r3]
    f398:	12844008 	addne	r4, r4, #8	; 0x8
    f39c:	10648002 	rsbne	r8, r4, r2
    f3a0:	1180081a 	orrne	r0, r0, sl, lsl r8
    f3a4:	07d78005 	ldrbeq	r8, [r7, r5]
    f3a8:	059da004 	ldreq	sl, [sp, #4]
    f3ac:	000a8008 	andeq	r8, sl, r8
    f3b0:	01800008 	orreq	r0, r0, r8
    f3b4:	e2833001 	add	r3, r3, #1	; 0x1
    f3b8:	e1530006 	cmp	r3, r6
    f3bc:	0a000007 	beq	f3e0 <BitGetUnsigned+0xd4>
    f3c0:	e15c0005 	cmp	ip, r5
    f3c4:	1affffef 	bne	f388 <BitGetUnsigned+0x7c>
    f3c8:	e7d70003 	ldrb	r0, [r7, r3]
    f3cc:	e2833001 	add	r3, r3, #1	; 0x1
    f3d0:	e0090000 	and	r0, r9, r0
    f3d4:	e1530006 	cmp	r3, r6
    f3d8:	e1a00150 	asr	r0, r0, r1
    f3dc:	1afffff7 	bne	f3c0 <BitGetUnsigned+0xb4>
    f3e0:	e28dd008 	add	sp, sp, #8	; 0x8
    f3e4:	e8bd0ff0 	pop	{r4, r5, r6, r7, r8, r9, sl, fp}
    f3e8:	e12fff1e 	bx	lr
    f3ec:	e7d70003 	ldrb	r0, [r7, r3]
    f3f0:	e00b0000 	and	r0, fp, r0
    f3f4:	e1a00150 	asr	r0, r0, r1
    f3f8:	e59da000 	ldr	sl, [sp]
    f3fc:	e084400a 	add	r4, r4, sl
    f400:	e0648002 	rsb	r8, r4, r2
    f404:	e1a00810 	lsl	r0, r0, r8
    f408:	eaffffe9 	b	f3b4 <BitGetUnsigned+0xa8>
    f40c:	e3a00000 	mov	r0, #0	; 0x0
    f410:	eafffff2 	b	f3e0 <BitGetUnsigned+0xd4>

0000f414 <BitGetSigned>:
    f414:	e92d4010 	push	{r4, lr}
    f418:	e1a04002 	mov	r4, r2
    f41c:	ebffffba 	bl	f30c <BitGetUnsigned>
    f420:	e3a03001 	mov	r3, #1	; 0x1
    f424:	e2442001 	sub	r2, r4, #1	; 0x1
    f428:	e0102213 	ands	r2, r0, r3, lsl r2
    f42c:	11a03413 	lslne	r3, r3, r4
    f430:	12633000 	rsbne	r3, r3, #0	; 0x0
    f434:	11800003 	orrne	r0, r0, r3
    f438:	e8bd4010 	pop	{r4, lr}
    f43c:	e12fff1e 	bx	lr

0000f440 <HidReadDevice>:
    f440:	e92d4ff0 	push	{r4, r5, r6, r7, r8, r9, sl, fp, lr}
    f444:	e5904404 	ldr	r4, [r0, #1028]
    f448:	e5d4200d 	ldrb	r2, [r4, #13]
    f44c:	e5d4300c 	ldrb	r3, [r4, #12]
    f450:	e1a05000 	mov	r5, r0
    f454:	e5d4000e 	ldrb	r0, [r4, #14]
    f458:	e1833402 	orr	r3, r3, r2, lsl #8
    f45c:	e5d4200f 	ldrb	r2, [r4, #15]
    f460:	e1833800 	orr	r3, r3, r0, lsl #16
    f464:	e1833c02 	orr	r3, r3, r2, lsl #24
    f468:	e2811002 	add	r1, r1, #2	; 0x2
    f46c:	e7938101 	ldr	r8, [r3, r1, lsl #2]
    f470:	e5d82008 	ldrb	r2, [r8, #8]
    f474:	e5d86004 	ldrb	r6, [r8, #4]
    f478:	e5981004 	ldr	r1, [r8, #4]
    f47c:	e1a02c02 	lsl	r2, r2, #24
    f480:	e2866007 	add	r6, r6, #7	; 0x7
    f484:	e192c421 	orrs	ip, r2, r1, lsr #8
    f488:	e24dd00c 	sub	sp, sp, #12	; 0xc
    f48c:	e1a061c6 	asr	r6, r6, #3
    f490:	0a000055 	beq	f5ec <HidReadDevice+0x1ac>
    f494:	e5d81003 	ldrb	r1, [r8, #3]
    f498:	e5d82002 	ldrb	r2, [r8, #2]
    f49c:	e5d33005 	ldrb	r3, [r3, #5]
    f4a0:	e1a00005 	mov	r0, r5
    f4a4:	e88d1040 	stm	sp, {r6, ip}
    f4a8:	ebfffef1 	bl	f074 <HidGetReport>
    f4ac:	e250b000 	subs	fp, r0, #0	; 0x0
    f4b0:	1a00003c 	bne	f5a8 <HidReadDevice+0x168>
    f4b4:	e5d82001 	ldrb	r2, [r8, #1]
    f4b8:	e3520000 	cmp	r2, #0	; 0x0
    f4bc:	0a000039 	beq	f5a8 <HidReadDevice+0x168>
    f4c0:	e1a0900b 	mov	r9, fp
    f4c4:	e0893109 	add	r3, r9, r9, lsl #2
    f4c8:	e0893083 	add	r3, r9, r3, lsl #1
    f4cc:	e0883103 	add	r3, r8, r3, lsl #2
    f4d0:	e2833008 	add	r3, r3, #8	; 0x8
    f4d4:	e2834004 	add	r4, r3, #4	; 0x4
    f4d8:	e5d45004 	ldrb	r5, [r4, #4]
    f4dc:	e2155002 	ands	r5, r5, #2	; 0x2
    f4e0:	1a000021 	bne	f56c <HidReadDevice+0x12c>
    f4e4:	e5d41002 	ldrb	r1, [r4, #2]
    f4e8:	e3510000 	cmp	r1, #0	; 0x0
    f4ec:	15d36004 	ldrbne	r6, [r3, #4]
    f4f0:	1a00000e 	bne	f530 <HidReadDevice+0xf0>
    f4f4:	ea000028 	b	f59c <HidReadDevice+0x15c>
    f4f8:	e1830420 	orr	r0, r3, r0, lsr #8
    f4fc:	e0871001 	add	r1, r7, r1
    f500:	e1a02006 	mov	r2, r6
    f504:	ebffff80 	bl	f30c <BitGetUnsigned>
    f508:	e1a03000 	mov	r3, r0
    f50c:	e1a02006 	mov	r2, r6
    f510:	e1a0000a 	mov	r0, sl
    f514:	e1a01007 	mov	r1, r7
    f518:	ebffff30 	bl	f1e0 <BitSet>
    f51c:	e5d43002 	ldrb	r3, [r4, #2]
    f520:	e2855001 	add	r5, r5, #1	; 0x1
    f524:	e1530005 	cmp	r3, r5
    f528:	9a000023 	bls	f5bc <HidReadDevice+0x17c>
    f52c:	e5d46000 	ldrb	r6, [r4]
    f530:	e5943010 	ldr	r3, [r4, #16]
    f534:	e3530000 	cmp	r3, #0	; 0x0
    f538:	e5d83008 	ldrb	r3, [r8, #8]
    f53c:	e0070695 	mul	r7, r5, r6
    f540:	e594a028 	ldr	sl, [r4, #40]
    f544:	e5980004 	ldr	r0, [r8, #4]
    f548:	e5d41001 	ldrb	r1, [r4, #1]
    f54c:	e1a03c03 	lsl	r3, r3, #24
    f550:	aaffffe8 	bge	f4f8 <HidReadDevice+0xb8>
    f554:	e1830420 	orr	r0, r3, r0, lsr #8
    f558:	e0871001 	add	r1, r7, r1
    f55c:	e1a02006 	mov	r2, r6
    f560:	ebffffab 	bl	f414 <BitGetSigned>
    f564:	e1a03000 	mov	r3, r0
    f568:	eaffffe7 	b	f50c <HidReadDevice+0xcc>
    f56c:	e5942010 	ldr	r2, [r4, #16]
    f570:	e3520000 	cmp	r2, #0	; 0x0
    f574:	e5d82008 	ldrb	r2, [r8, #8]
    f578:	e5980004 	ldr	r0, [r8, #4]
    f57c:	e1a02c02 	lsl	r2, r2, #24
    f580:	e1820420 	orr	r0, r2, r0, lsr #8
    f584:	e5d41001 	ldrb	r1, [r4, #1]
    f588:	e5d32004 	ldrb	r2, [r3, #4]
    f58c:	ba00000f 	blt	f5d0 <HidReadDevice+0x190>
    f590:	ebffff5d 	bl	f30c <BitGetUnsigned>
    f594:	e5840028 	str	r0, [r4, #40]
    f598:	e5d82001 	ldrb	r2, [r8, #1]
    f59c:	e2899001 	add	r9, r9, #1	; 0x1
    f5a0:	e1520009 	cmp	r2, r9
    f5a4:	8affffc6 	bhi	f4c4 <HidReadDevice+0x84>
    f5a8:	e1a00c0b 	lsl	r0, fp, #24
    f5ac:	e1a00c40 	asr	r0, r0, #24
    f5b0:	e28dd00c 	add	sp, sp, #12	; 0xc
    f5b4:	e8bd4ff0 	pop	{r4, r5, r6, r7, r8, r9, sl, fp, lr}
    f5b8:	e12fff1e 	bx	lr
    f5bc:	e5d82001 	ldrb	r2, [r8, #1]
    f5c0:	e2899001 	add	r9, r9, #1	; 0x1
    f5c4:	e1520009 	cmp	r2, r9
    f5c8:	8affffbd 	bhi	f4c4 <HidReadDevice+0x84>
    f5cc:	eafffff5 	b	f5a8 <HidReadDevice+0x168>
    f5d0:	ebffff8f 	bl	f414 <BitGetSigned>
    f5d4:	e5840028 	str	r0, [r4, #40]
    f5d8:	e5d82001 	ldrb	r2, [r8, #1]
    f5dc:	e2899001 	add	r9, r9, #1	; 0x1
    f5e0:	e1520009 	cmp	r2, r9
    f5e4:	8affffb6 	bhi	f4c4 <HidReadDevice+0x84>
    f5e8:	eaffffee 	b	f5a8 <HidReadDevice+0x168>
    f5ec:	e1a00006 	mov	r0, r6
    f5f0:	ebfff619 	bl	ce5c <MemoryAllocate>
    f5f4:	e5d82004 	ldrb	r2, [r8, #4]
    f5f8:	e1a03c20 	lsr	r3, r0, #24
    f5fc:	e1822400 	orr	r2, r2, r0, lsl #8
    f600:	e3500000 	cmp	r0, #0	; 0x0
    f604:	e1a0c000 	mov	ip, r0
    f608:	e5882004 	str	r2, [r8, #4]
    f60c:	e5c83008 	strb	r3, [r8, #8]
    f610:	0a000007 	beq	f634 <HidReadDevice+0x1f4>
    f614:	e5d4200d 	ldrb	r2, [r4, #13]
    f618:	e5d4300c 	ldrb	r3, [r4, #12]
    f61c:	e5d4100e 	ldrb	r1, [r4, #14]
    f620:	e1833402 	orr	r3, r3, r2, lsl #8
    f624:	e5d4200f 	ldrb	r2, [r4, #15]
    f628:	e1833801 	orr	r3, r3, r1, lsl #16
    f62c:	e1833c02 	orr	r3, r3, r2, lsl #24
    f630:	eaffff97 	b	f494 <HidReadDevice+0x54>
    f634:	e3a0b0f9 	mov	fp, #249	; 0xf9
    f638:	eaffffda 	b	f5a8 <HidReadDevice+0x168>

0000f63c <HidWriteDevice>:
    f63c:	e92d4ff0 	push	{r4, r5, r6, r7, r8, r9, sl, fp, lr}
    f640:	e24dd014 	sub	sp, sp, #20	; 0x14
    f644:	e58d0008 	str	r0, [sp, #8]
    f648:	e590a404 	ldr	sl, [r0, #1028]
    f64c:	e5da200d 	ldrb	r2, [sl, #13]
    f650:	e5da300c 	ldrb	r3, [sl, #12]
    f654:	e5da000e 	ldrb	r0, [sl, #14]
    f658:	e1833402 	orr	r3, r3, r2, lsl #8
    f65c:	e5da200f 	ldrb	r2, [sl, #15]
    f660:	e1833800 	orr	r3, r3, r0, lsl #16
    f664:	e1833c02 	orr	r3, r3, r2, lsl #24
    f668:	e2811002 	add	r1, r1, #2	; 0x2
    f66c:	e7937101 	ldr	r7, [r3, r1, lsl #2]
    f670:	e5d73008 	ldrb	r3, [r7, #8]
    f674:	e5d7b004 	ldrb	fp, [r7, #4]
    f678:	e597c004 	ldr	ip, [r7, #4]
    f67c:	e1a03c03 	lsl	r3, r3, #24
    f680:	e28bb007 	add	fp, fp, #7	; 0x7
    f684:	e1a0b1cb 	asr	fp, fp, #3
    f688:	e193942c 	orrs	r9, r3, ip, lsr #8
    f68c:	e58db00c 	str	fp, [sp, #12]
    f690:	0a000048 	beq	f7b8 <HidWriteDevice+0x17c>
    f694:	e5d72001 	ldrb	r2, [r7, #1]
    f698:	e3520000 	cmp	r2, #0	; 0x0
    f69c:	13a08000 	movne	r8, #0	; 0x0
    f6a0:	0a000025 	beq	f73c <HidWriteDevice+0x100>
    f6a4:	e0883108 	add	r3, r8, r8, lsl #2
    f6a8:	e0883083 	add	r3, r8, r3, lsl #1
    f6ac:	e0873103 	add	r3, r7, r3, lsl #2
    f6b0:	e2833008 	add	r3, r3, #8	; 0x8
    f6b4:	e2834004 	add	r4, r3, #4	; 0x4
    f6b8:	e5d45004 	ldrb	r5, [r4, #4]
    f6bc:	e2155002 	ands	r5, r5, #2	; 0x2
    f6c0:	1a000031 	bne	f78c <HidWriteDevice+0x150>
    f6c4:	e5d41002 	ldrb	r1, [r4, #2]
    f6c8:	e3510000 	cmp	r1, #0	; 0x0
    f6cc:	15d36004 	ldrbne	r6, [r3, #4]
    f6d0:	1a000002 	bne	f6e0 <HidWriteDevice+0xa4>
    f6d4:	ea000015 	b	f730 <HidWriteDevice+0xf4>
    f6d8:	e5d46000 	ldrb	r6, [r4]
    f6dc:	e18c9423 	orr	r9, ip, r3, lsr #8
    f6e0:	e0010596 	mul	r1, r6, r5
    f6e4:	e5d43001 	ldrb	r3, [r4, #1]
    f6e8:	e5940028 	ldr	r0, [r4, #40]
    f6ec:	e1a02006 	mov	r2, r6
    f6f0:	e081b003 	add	fp, r1, r3
    f6f4:	ebffff46 	bl	f414 <BitGetSigned>
    f6f8:	e1a0100b 	mov	r1, fp
    f6fc:	e1a03000 	mov	r3, r0
    f700:	e1a02006 	mov	r2, r6
    f704:	e1a00009 	mov	r0, r9
    f708:	ebfffeb4 	bl	f1e0 <BitSet>
    f70c:	e5d43002 	ldrb	r3, [r4, #2]
    f710:	e2855001 	add	r5, r5, #1	; 0x1
    f714:	e5d7c008 	ldrb	ip, [r7, #8]
    f718:	e1530005 	cmp	r3, r5
    f71c:	e1a0cc0c 	lsl	ip, ip, #24
    f720:	e5973004 	ldr	r3, [r7, #4]
    f724:	8affffeb 	bhi	f6d8 <HidWriteDevice+0x9c>
    f728:	e5d72001 	ldrb	r2, [r7, #1]
    f72c:	e18c9423 	orr	r9, ip, r3, lsr #8
    f730:	e2888001 	add	r8, r8, #1	; 0x1
    f734:	e1520008 	cmp	r2, r8
    f738:	8affffd9 	bhi	f6a4 <HidWriteDevice+0x68>
    f73c:	e5da000d 	ldrb	r0, [sl, #13]
    f740:	e5da300c 	ldrb	r3, [sl, #12]
    f744:	e5da100e 	ldrb	r1, [sl, #14]
    f748:	e5da200f 	ldrb	r2, [sl, #15]
    f74c:	e1833400 	orr	r3, r3, r0, lsl #8
    f750:	e28d0008 	add	r0, sp, #8	; 0x8
    f754:	e1833801 	orr	r3, r3, r1, lsl #16
    f758:	e8901001 	ldm	r0, {r0, ip}
    f75c:	e1833c02 	orr	r3, r3, r2, lsl #24
    f760:	e5d71003 	ldrb	r1, [r7, #3]
    f764:	e5d72002 	ldrb	r2, [r7, #2]
    f768:	e5d33005 	ldrb	r3, [r3, #5]
    f76c:	e58dc000 	str	ip, [sp]
    f770:	e58d9004 	str	r9, [sp, #4]
    f774:	ebfffe6d 	bl	f130 <HidSetReport>
    f778:	e1a00c00 	lsl	r0, r0, #24
    f77c:	e1a00c40 	asr	r0, r0, #24
    f780:	e28dd014 	add	sp, sp, #20	; 0x14
    f784:	e8bd4ff0 	pop	{r4, r5, r6, r7, r8, r9, sl, fp, lr}
    f788:	e12fff1e 	bx	lr
    f78c:	e5d32004 	ldrb	r2, [r3, #4]
    f790:	e1a00009 	mov	r0, r9
    f794:	e5943028 	ldr	r3, [r4, #40]
    f798:	e5d41001 	ldrb	r1, [r4, #1]
    f79c:	ebfffe8f 	bl	f1e0 <BitSet>
    f7a0:	e5d73008 	ldrb	r3, [r7, #8]
    f7a4:	e597c004 	ldr	ip, [r7, #4]
    f7a8:	e1a03c03 	lsl	r3, r3, #24
    f7ac:	e183942c 	orr	r9, r3, ip, lsr #8
    f7b0:	e5d72001 	ldrb	r2, [r7, #1]
    f7b4:	eaffffdd 	b	f730 <HidWriteDevice+0xf4>
    f7b8:	e59d000c 	ldr	r0, [sp, #12]
    f7bc:	ebfff5a6 	bl	ce5c <MemoryAllocate>
    f7c0:	e5d72004 	ldrb	r2, [r7, #4]
    f7c4:	e1a03c20 	lsr	r3, r0, #24
    f7c8:	e1822400 	orr	r2, r2, r0, lsl #8
    f7cc:	e3500000 	cmp	r0, #0	; 0x0
    f7d0:	e1a09000 	mov	r9, r0
    f7d4:	e5872004 	str	r2, [r7, #4]
    f7d8:	e5c73008 	strb	r3, [r7, #8]
    f7dc:	1affffac 	bne	f694 <HidWriteDevice+0x58>
    f7e0:	e3a000f9 	mov	r0, #249	; 0xf9
    f7e4:	eaffffe3 	b	f778 <HidWriteDevice+0x13c>

0000f7e8 <HidSetProtocol>:
    f7e8:	e92d4030 	push	{r4, r5, lr}
    f7ec:	e5d0301b 	ldrb	r3, [r0, #27]
    f7f0:	e20330ff 	and	r3, r3, #255	; 0xff
    f7f4:	e24dd01c 	sub	sp, sp, #28	; 0x1c
    f7f8:	e3a0c000 	mov	ip, #0	; 0x0
    f7fc:	e3530008 	cmp	r3, #8	; 0x8
    f800:	e1a0e001 	mov	lr, r1
    f804:	e1a04002 	mov	r4, r2
    f808:	e58dc00c 	str	ip, [sp, #12]
    f80c:	9a000005 	bls	f828 <HidSetProtocol+0x40>
    f810:	e3530010 	cmp	r3, #16	; 0x10
    f814:	93a0c001 	movls	ip, #1	; 0x1
    f818:	9a000002 	bls	f828 <HidSetProtocol+0x40>
    f81c:	e3530020 	cmp	r3, #32	; 0x20
    f820:	83a0c003 	movhi	ip, #3	; 0x3
    f824:	93a0c002 	movls	ip, #2	; 0x2
    f828:	e5dd200c 	ldrb	r2, [sp, #12]
    f82c:	e5d01004 	ldrb	r1, [r0, #4]
    f830:	e20220f0 	and	r2, r2, #240	; 0xf0
    f834:	e182300c 	orr	r3, r2, ip
    f838:	e2011003 	and	r1, r1, #3	; 0x3
    f83c:	e5d02000 	ldrb	r2, [r0]
    f840:	e1833101 	orr	r3, r3, r1, lsl #2
    f844:	e5cd300c 	strb	r3, [sp, #12]
    f848:	e28d3010 	add	r3, sp, #16	; 0x10
    f84c:	e3a0c000 	mov	ip, #0	; 0x0
    f850:	e5cd200d 	strb	r2, [sp, #13]
    f854:	e58d3000 	str	r3, [sp]
    f858:	e3a05021 	mov	r5, #33	; 0x21
    f85c:	e3a0300a 	mov	r3, #10	; 0xa
    f860:	e58d3004 	str	r3, [sp, #4]
    f864:	e5cd5010 	strb	r5, [sp, #16]
    f868:	e1a0200c 	mov	r2, ip
    f86c:	e3a0500b 	mov	r5, #11	; 0xb
    f870:	e59d100c 	ldr	r1, [sp, #12]
    f874:	e1a0300c 	mov	r3, ip
    f878:	e5cd5011 	strb	r5, [sp, #17]
    f87c:	e1cd41b2 	strh	r4, [sp, #18]
    f880:	e1cde1b4 	strh	lr, [sp, #20]
    f884:	e1cdc1b6 	strh	ip, [sp, #22]
    f888:	ebfff718 	bl	d4f0 <UsbControlMessage>
    f88c:	e28dd01c 	add	sp, sp, #28	; 0x1c
    f890:	e8bd4030 	pop	{r4, r5, lr}
    f894:	e12fff1e 	bx	lr

0000f898 <HidEnumerateReport>:
    f898:	e3510000 	cmp	r1, #0	; 0x0
    f89c:	e92d4ff8 	push	{r3, r4, r5, r6, r7, r8, r9, sl, fp, lr}
    f8a0:	e1a08002 	mov	r8, r2
    f8a4:	e1a0a003 	mov	sl, r3
    f8a8:	0a000030 	beq	f970 <HidEnumerateReport+0xd8>
    f8ac:	e2413001 	sub	r3, r1, #1	; 0x1
    f8b0:	e2802002 	add	r2, r0, #2	; 0x2
    f8b4:	e1a03803 	lsl	r3, r3, #16
    f8b8:	e2804001 	add	r4, r0, #1	; 0x1
    f8bc:	e0829823 	add	r9, r2, r3, lsr #16
    f8c0:	e3a0c000 	mov	ip, #0	; 0x0
    f8c4:	ea00000a 	b	f8f4 <HidEnumerateReport+0x5c>
    f8c8:	e5541001 	ldrb	r1, [r4, #-1]
    f8cc:	e1a02185 	lsl	r2, r5, #3
    f8d0:	e1866211 	orr	r6, r6, r1, lsl r2
    f8d4:	e2855001 	add	r5, r5, #1	; 0x1
    f8d8:	e1a05805 	lsl	r5, r5, #16
    f8dc:	e1a05825 	lsr	r5, r5, #16
    f8e0:	e1550007 	cmp	r5, r7
    f8e4:	0a000014 	beq	f93c <HidEnumerateReport+0xa4>
    f8e8:	e2844001 	add	r4, r4, #1	; 0x1
    f8ec:	e1540009 	cmp	r4, r9
    f8f0:	0a00001e 	beq	f970 <HidEnumerateReport+0xd8>
    f8f4:	e35c0000 	cmp	ip, #0	; 0x0
    f8f8:	e2442001 	sub	r2, r4, #1	; 0x1
    f8fc:	0a00001d 	beq	f978 <HidEnumerateReport+0xe0>
    f900:	e5dc2000 	ldrb	r2, [ip]
    f904:	e20220fc 	and	r2, r2, #252	; 0xfc
    f908:	e35200fc 	cmp	r2, #252	; 0xfc
    f90c:	1affffed 	bne	f8c8 <HidEnumerateReport+0x30>
    f910:	e3550001 	cmp	r5, #1	; 0x1
    f914:	8affffeb 	bhi	f8c8 <HidEnumerateReport+0x30>
    f918:	e5542001 	ldrb	r2, [r4, #-1]
    f91c:	e3550000 	cmp	r5, #0	; 0x0
    f920:	00877002 	addeq	r7, r7, r2
    f924:	118bb402 	orrne	fp, fp, r2, lsl #8
    f928:	01a07807 	lsleq	r7, r7, #16
    f92c:	11a0b80b 	lslne	fp, fp, #16
    f930:	01a07827 	lsreq	r7, r7, #16
    f934:	11a0b82b 	lsrne	fp, fp, #16
    f938:	eaffffe5 	b	f8d4 <HidEnumerateReport+0x3c>
    f93c:	e20b2003 	and	r2, fp, #3	; 0x3
    f940:	e3520001 	cmp	r2, #1	; 0x1
    f944:	0a00001b 	beq	f9b8 <HidEnumerateReport+0x120>
    f948:	e1a02006 	mov	r2, r6
    f94c:	e1a0000a 	mov	r0, sl
    f950:	e1a0100b 	mov	r1, fp
    f954:	e2844001 	add	r4, r4, #1	; 0x1
    f958:	e1a0e00f 	mov	lr, pc
    f95c:	e12fff18 	bx	r8
    f960:	e1540009 	cmp	r4, r9
    f964:	e1a07005 	mov	r7, r5
    f968:	e3a0c000 	mov	ip, #0	; 0x0
    f96c:	1affffe0 	bne	f8f4 <HidEnumerateReport+0x5c>
    f970:	e8bd4ff8 	pop	{r3, r4, r5, r6, r7, r8, r9, sl, fp, lr}
    f974:	e12fff1e 	bx	lr
    f978:	e554b001 	ldrb	fp, [r4, #-1]
    f97c:	e20b7003 	and	r7, fp, #3	; 0x3
    f980:	e2477001 	sub	r7, r7, #1	; 0x1
    f984:	e3a03001 	mov	r3, #1	; 0x1
    f988:	e1a07713 	lsl	r7, r3, r7
    f98c:	e1a07807 	lsl	r7, r7, #16
    f990:	e1b07827 	lsrs	r7, r7, #16
    f994:	e1a0b12b 	lsr	fp, fp, #2
    f998:	13a06000 	movne	r6, #0	; 0x0
    f99c:	11a0c002 	movne	ip, r2
    f9a0:	11a05006 	movne	r5, r6
    f9a4:	1affffcf 	bne	f8e8 <HidEnumerateReport+0x50>
    f9a8:	e1a05007 	mov	r5, r7
    f9ac:	e1a02007 	mov	r2, r7
    f9b0:	e1a06007 	mov	r6, r7
    f9b4:	eaffffe4 	b	f94c <HidEnumerateReport+0xb4>
    f9b8:	e3550001 	cmp	r5, #1	; 0x1
    f9bc:	0a000005 	beq	f9d8 <HidEnumerateReport+0x140>
    f9c0:	e3550002 	cmp	r5, #2	; 0x2
    f9c4:	1affffdf 	bne	f948 <HidEnumerateReport+0xb0>
    f9c8:	e3160902 	tst	r6, #32768	; 0x8000
    f9cc:	11e06806 	mvnne	r6, r6, lsl #16
    f9d0:	11e06826 	mvnne	r6, r6, lsr #16
    f9d4:	eaffffdb 	b	f948 <HidEnumerateReport+0xb0>
    f9d8:	e3160080 	tst	r6, #128	; 0x80
    f9dc:	0affffd9 	beq	f948 <HidEnumerateReport+0xb0>
    f9e0:	e1e06c06 	mvn	r6, r6, lsl #24
    f9e4:	e1e06c26 	mvn	r6, r6, lsr #24
    f9e8:	e1a02006 	mov	r2, r6
    f9ec:	eaffffd6 	b	f94c <HidEnumerateReport+0xb4>

0000f9f0 <HidParseReportDescriptor>:
    f9f0:	e92d4ff0 	push	{r4, r5, r6, r7, r8, r9, sl, fp, lr}
    f9f4:	e5900404 	ldr	r0, [r0, #1028]
    f9f8:	e24dd024 	sub	sp, sp, #36	; 0x24
    f9fc:	e1a0a001 	mov	sl, r1
    fa00:	e3a04000 	mov	r4, #0	; 0x0
    fa04:	e1a01002 	mov	r1, r2
    fa08:	e58d2008 	str	r2, [sp, #8]
    fa0c:	e58d000c 	str	r0, [sp, #12]
    fa10:	e59f22fc 	ldr	r2, [pc, #764]	; fd14 <HidParseReportDescriptor+0x324>
    fa14:	e1a0000a 	mov	r0, sl
    fa18:	e28d3018 	add	r3, sp, #24	; 0x18
    fa1c:	e5cd4018 	strb	r4, [sp, #24]
    fa20:	e5cd4019 	strb	r4, [sp, #25]
    fa24:	e5cd401a 	strb	r4, [sp, #26]
    fa28:	e5cd401b 	strb	r4, [sp, #27]
    fa2c:	e5cd401c 	strb	r4, [sp, #28]
    fa30:	ebffff98 	bl	f898 <HidEnumerateReport>
    fa34:	e5dd0018 	ldrb	r0, [sp, #24]
    fa38:	e1a00100 	lsl	r0, r0, #2
    fa3c:	e2800008 	add	r0, r0, #8	; 0x8
    fa40:	ebfff505 	bl	ce5c <MemoryAllocate>
    fa44:	e2506000 	subs	r6, r0, #0	; 0x0
    fa48:	0a000046 	beq	fb68 <HidParseReportDescriptor+0x178>
    fa4c:	e5dd1018 	ldrb	r1, [sp, #24]
    fa50:	e1510004 	cmp	r1, r4
    fa54:	0a000007 	beq	fa78 <HidParseReportDescriptor+0x88>
    fa58:	e1a03004 	mov	r3, r4
    fa5c:	e1a02006 	mov	r2, r6
    fa60:	e1a00004 	mov	r0, r4
    fa64:	e2833001 	add	r3, r3, #1	; 0x1
    fa68:	e1530001 	cmp	r3, r1
    fa6c:	e5820008 	str	r0, [r2, #8]
    fa70:	e2822004 	add	r2, r2, #4	; 0x4
    fa74:	3afffffa 	bcc	fa64 <HidParseReportDescriptor+0x74>
    fa78:	e0810081 	add	r0, r1, r1, lsl #1
    fa7c:	e2800006 	add	r0, r0, #6	; 0x6
    fa80:	ebfff4f5 	bl	ce5c <MemoryAllocate>
    fa84:	e2505000 	subs	r5, r0, #0	; 0x0
    fa88:	0a000036 	beq	fb68 <HidParseReportDescriptor+0x178>
    fa8c:	e5dd3018 	ldrb	r3, [sp, #24]
    fa90:	e3a04000 	mov	r4, #0	; 0x0
    fa94:	e5c63004 	strb	r3, [r6, #4]
    fa98:	e5c54000 	strb	r4, [r5]
    fa9c:	e5c54001 	strb	r4, [r5, #1]
    faa0:	e5c54002 	strb	r4, [r5, #2]
    faa4:	e5c54003 	strb	r4, [r5, #3]
    faa8:	e1a03005 	mov	r3, r5
    faac:	e1a0000a 	mov	r0, sl
    fab0:	e5c54004 	strb	r4, [r5, #4]
    fab4:	e5c54005 	strb	r4, [r5, #5]
    fab8:	e59d1008 	ldr	r1, [sp, #8]
    fabc:	e59f2254 	ldr	r2, [pc, #596]	; fd18 <HidParseReportDescriptor+0x328>
    fac0:	ebffff74 	bl	f898 <HidEnumerateReport>
    fac4:	e5dd3018 	ldrb	r3, [sp, #24]
    fac8:	e1530004 	cmp	r3, r4
    facc:	0a00003d 	beq	fbc8 <HidParseReportDescriptor+0x1d8>
    fad0:	e1a08004 	mov	r8, r4
    fad4:	e1a0b008 	mov	fp, r8
    fad8:	e1a04006 	mov	r4, r6
    fadc:	e1a09008 	mov	r9, r8
    fae0:	ea000013 	b	fb34 <HidParseReportDescriptor+0x144>
    fae4:	e5c0b000 	strb	fp, [r0]
    fae8:	e5942008 	ldr	r2, [r4, #8]
    faec:	e5c29001 	strb	r9, [r2, #1]
    faf0:	e5942008 	ldr	r2, [r4, #8]
    faf4:	e5d70006 	ldrb	r0, [r7, #6]
    faf8:	e5c20002 	strb	r0, [r2, #2]
    fafc:	e5942008 	ldr	r2, [r4, #8]
    fb00:	e5d70008 	ldrb	r0, [r7, #8]
    fb04:	e5c29004 	strb	r9, [r2, #4]
    fb08:	e5c20003 	strb	r0, [r2, #3]
    fb0c:	e5942008 	ldr	r2, [r4, #8]
    fb10:	e5d20004 	ldrb	r0, [r2, #4]
    fb14:	e5c29008 	strb	r9, [r2, #8]
    fb18:	e5820004 	str	r0, [r2, #4]
    fb1c:	e5dd2018 	ldrb	r2, [sp, #24]
    fb20:	e28bb001 	add	fp, fp, #1	; 0x1
    fb24:	e152000b 	cmp	r2, fp
    fb28:	e2888003 	add	r8, r8, #3	; 0x3
    fb2c:	e2844004 	add	r4, r4, #4	; 0x4
    fb30:	9a000024 	bls	fbc8 <HidParseReportDescriptor+0x1d8>
    fb34:	e0857008 	add	r7, r5, r8
    fb38:	e5d72007 	ldrb	r2, [r7, #7]
    fb3c:	e0820102 	add	r0, r2, r2, lsl #2
    fb40:	e0822080 	add	r2, r2, r0, lsl #1
    fb44:	e1a00102 	lsl	r0, r2, #2
    fb48:	e280000c 	add	r0, r0, #12	; 0xc
    fb4c:	ebfff4c2 	bl	ce5c <MemoryAllocate>
    fb50:	e3500000 	cmp	r0, #0	; 0x0
    fb54:	e5840008 	str	r0, [r4, #8]
    fb58:	1affffe1 	bne	fae4 <HidParseReportDescriptor+0xf4>
    fb5c:	e3550000 	cmp	r5, #0	; 0x0
    fb60:	11a00005 	movne	r0, r5
    fb64:	1bfff5d0 	blne	d2ac <MemoryDeallocate>
    fb68:	e3a070f9 	mov	r7, #249	; 0xf9
    fb6c:	e3560000 	cmp	r6, #0	; 0x0
    fb70:	0a00000f 	beq	fbb4 <HidParseReportDescriptor+0x1c4>
    fb74:	e5dd3018 	ldrb	r3, [sp, #24]
    fb78:	e3530000 	cmp	r3, #0	; 0x0
    fb7c:	0a00000a 	beq	fbac <HidParseReportDescriptor+0x1bc>
    fb80:	e1a05006 	mov	r5, r6
    fb84:	e3a04000 	mov	r4, #0	; 0x0
    fb88:	e5950008 	ldr	r0, [r5, #8]
    fb8c:	e3500000 	cmp	r0, #0	; 0x0
    fb90:	e2844001 	add	r4, r4, #1	; 0x1
    fb94:	0a000001 	beq	fba0 <HidParseReportDescriptor+0x1b0>
    fb98:	ebfff5c3 	bl	d2ac <MemoryDeallocate>
    fb9c:	e5dd3018 	ldrb	r3, [sp, #24]
    fba0:	e1530004 	cmp	r3, r4
    fba4:	e2855004 	add	r5, r5, #4	; 0x4
    fba8:	8afffff6 	bhi	fb88 <HidParseReportDescriptor+0x198>
    fbac:	e1a00006 	mov	r0, r6
    fbb0:	ebfff5bd 	bl	d2ac <MemoryDeallocate>
    fbb4:	e1a00c07 	lsl	r0, r7, #24
    fbb8:	e1a00c40 	asr	r0, r0, #24
    fbbc:	e28dd024 	add	sp, sp, #36	; 0x24
    fbc0:	e8bd4ff0 	pop	{r4, r5, r6, r7, r8, r9, sl, fp, lr}
    fbc4:	e12fff1e 	bx	lr
    fbc8:	e1a00005 	mov	r0, r5
    fbcc:	ebfff5b6 	bl	d2ac <MemoryDeallocate>
    fbd0:	e3a0002f 	mov	r0, #47	; 0x2f
    fbd4:	ebfff4a0 	bl	ce5c <MemoryAllocate>
    fbd8:	e2504000 	subs	r4, r0, #0	; 0x0
    fbdc:	0affffe1 	beq	fb68 <HidParseReportDescriptor+0x178>
    fbe0:	e3a00040 	mov	r0, #64	; 0x40
    fbe4:	ebfff49c 	bl	ce5c <MemoryAllocate>
    fbe8:	e1a01420 	lsr	r1, r0, #8
    fbec:	e1a02820 	lsr	r2, r0, #16
    fbf0:	e1a03c20 	lsr	r3, r0, #24
    fbf4:	e3500000 	cmp	r0, #0	; 0x0
    fbf8:	e1a07000 	mov	r7, r0
    fbfc:	e3a05000 	mov	r5, #0	; 0x0
    fc00:	e5c4000c 	strb	r0, [r4, #12]
    fc04:	e5c4100d 	strb	r1, [r4, #13]
    fc08:	e5c4200e 	strb	r2, [r4, #14]
    fc0c:	e5c4300f 	strb	r3, [r4, #15]
    fc10:	0a00003d 	beq	fd0c <HidParseReportDescriptor+0x31c>
    fc14:	e1a03826 	lsr	r3, r6, #16
    fc18:	e206c0ff 	and	ip, r6, #255	; 0xff
    fc1c:	e1a0b426 	lsr	fp, r6, #8
    fc20:	e20330ff 	and	r3, r3, #255	; 0xff
    fc24:	e1a06c26 	lsr	r6, r6, #24
    fc28:	e58d3010 	str	r3, [sp, #16]
    fc2c:	e58d6014 	str	r6, [sp, #20]
    fc30:	e20bb0ff 	and	fp, fp, #255	; 0xff
    fc34:	e5c45004 	strb	r5, [r4, #4]
    fc38:	e5c45005 	strb	r5, [r4, #5]
    fc3c:	e5c45006 	strb	r5, [r4, #6]
    fc40:	e5c45007 	strb	r5, [r4, #7]
    fc44:	e5c45018 	strb	r5, [r4, #24]
    fc48:	e5c45019 	strb	r5, [r4, #25]
    fc4c:	e5c4501a 	strb	r5, [r4, #26]
    fc50:	e5c4501b 	strb	r5, [r4, #27]
    fc54:	e5c45014 	strb	r5, [r4, #20]
    fc58:	e5c45015 	strb	r5, [r4, #21]
    fc5c:	e5c45016 	strb	r5, [r4, #22]
    fc60:	e5c45017 	strb	r5, [r4, #23]
    fc64:	e5c45020 	strb	r5, [r4, #32]
    fc68:	e5c45021 	strb	r5, [r4, #33]
    fc6c:	e5c45022 	strb	r5, [r4, #34]
    fc70:	e5c45023 	strb	r5, [r4, #35]
    fc74:	e5c4501c 	strb	r5, [r4, #28]
    fc78:	e5c4501d 	strb	r5, [r4, #29]
    fc7c:	e5c4501e 	strb	r5, [r4, #30]
    fc80:	e5c4501f 	strb	r5, [r4, #31]
    fc84:	e5c45008 	strb	r5, [r4, #8]
    fc88:	e5c45009 	strb	r5, [r4, #9]
    fc8c:	e5c4500a 	strb	r5, [r4, #10]
    fc90:	e5c4500b 	strb	r5, [r4, #11]
    fc94:	e3e03000 	mvn	r3, #0	; 0x0
    fc98:	e59d1008 	ldr	r1, [sp, #8]
    fc9c:	e5c4502e 	strb	r5, [r4, #46]
    fca0:	e5873000 	str	r3, [r7]
    fca4:	e5c4c000 	strb	ip, [r4]
    fca8:	e5c4b001 	strb	fp, [r4, #1]
    fcac:	e59de010 	ldr	lr, [sp, #16]
    fcb0:	e5c4e002 	strb	lr, [r4, #2]
    fcb4:	e59de014 	ldr	lr, [sp, #20]
    fcb8:	e1a0000a 	mov	r0, sl
    fcbc:	e59f2058 	ldr	r2, [pc, #88]	; fd1c <HidParseReportDescriptor+0x32c>
    fcc0:	e1a03004 	mov	r3, r4
    fcc4:	e5c4e003 	strb	lr, [r4, #3]
    fcc8:	e58dc004 	str	ip, [sp, #4]
    fccc:	ebfffef1 	bl	f898 <HidEnumerateReport>
    fcd0:	e59dc004 	ldr	ip, [sp, #4]
    fcd4:	e59d200c 	ldr	r2, [sp, #12]
    fcd8:	e5c2c00c 	strb	ip, [r2, #12]
    fcdc:	e5c2b00d 	strb	fp, [r2, #13]
    fce0:	e59d3010 	ldr	r3, [sp, #16]
    fce4:	e5c2300e 	strb	r3, [r2, #14]
    fce8:	e59de014 	ldr	lr, [sp, #20]
    fcec:	e1a00007 	mov	r0, r7
    fcf0:	e5c2e00f 	strb	lr, [r2, #15]
    fcf4:	ebfff56c 	bl	d2ac <MemoryDeallocate>
    fcf8:	e1a06005 	mov	r6, r5
    fcfc:	e1a07005 	mov	r7, r5
    fd00:	e1a00004 	mov	r0, r4
    fd04:	ebfff568 	bl	d2ac <MemoryDeallocate>
    fd08:	eaffff97 	b	fb6c <HidParseReportDescriptor+0x17c>
    fd0c:	e3a070f9 	mov	r7, #249	; 0xf9
    fd10:	eafffffa 	b	fd00 <HidParseReportDescriptor+0x310>
    fd14:	0000efbc 	.word	0x0000efbc
    fd18:	0000e4fc 	.word	0x0000e4fc
    fd1c:	0000e660 	.word	0x0000e660

0000fd20 <HidScan>:
    fd20:	e92d45f0 	push	{r4, r5, r6, r7, r8, sl, lr}
    fd24:	e1a02181 	lsl	r2, r1, #3
    fd28:	e0823001 	add	r3, r2, r1
    fd2c:	e0803003 	add	r3, r0, r3
    fd30:	e2833030 	add	r3, r3, #48	; 0x30
    fd34:	e1a05001 	mov	r5, r1
    fd38:	e5d31009 	ldrb	r1, [r3, #9]
    fd3c:	e3510003 	cmp	r1, #3	; 0x3
    fd40:	e24dd014 	sub	sp, sp, #20	; 0x14
    fd44:	e1a06000 	mov	r6, r0
    fd48:	1a00008f 	bne	ff8c <HidScan+0x26c>
    fd4c:	e5d31008 	ldrb	r1, [r3, #8]
    fd50:	e3510000 	cmp	r1, #0	; 0x0
    fd54:	0a00002e 	beq	fe14 <HidScan+0xf4>
    fd58:	e0650002 	rsb	r0, r5, r2
    fd5c:	e0860200 	add	r0, r6, r0, lsl #4
    fd60:	e5d0c07e 	ldrb	ip, [r0, #126]
    fd64:	e1b0c3ac 	lsrs	ip, ip, #7
    fd68:	0a000029 	beq	fe14 <HidScan+0xf4>
    fd6c:	e5d0107f 	ldrb	r1, [r0, #127]
    fd70:	e2011003 	and	r1, r1, #3	; 0x3
    fd74:	e3510003 	cmp	r1, #3	; 0x3
    fd78:	1a000025 	bne	fe14 <HidScan+0xf4>
    fd7c:	e5d33008 	ldrb	r3, [r3, #8]
    fd80:	e3530001 	cmp	r3, #1	; 0x1
    fd84:	9a000007 	bls	fda8 <HidScan+0x88>
    fd88:	e5d03085 	ldrb	r3, [r0, #133]
    fd8c:	e1b033a3 	lsrs	r3, r3, #7
    fd90:	e280007f 	add	r0, r0, #127	; 0x7f
    fd94:	1a00001e 	bne	fe14 <HidScan+0xf4>
    fd98:	e5d03007 	ldrb	r3, [r0, #7]
    fd9c:	e2033003 	and	r3, r3, #3	; 0x3
    fda0:	e3530003 	cmp	r3, #3	; 0x3
    fda4:	1a00001a 	bne	fe14 <HidScan+0xf4>
    fda8:	e5d63005 	ldrb	r3, [r6, #5]
    fdac:	e3530004 	cmp	r3, #4	; 0x4
    fdb0:	1a000077 	bne	ff94 <HidScan+0x274>
    fdb4:	e0822005 	add	r2, r2, r5
    fdb8:	e0862002 	add	r2, r6, r2
    fdbc:	e2822030 	add	r2, r2, #48	; 0x30
    fdc0:	e5d2300a 	ldrb	r3, [r2, #10]
    fdc4:	e3530001 	cmp	r3, #1	; 0x1
    fdc8:	0a000062 	beq	ff58 <HidScan+0x238>
    fdcc:	e5964400 	ldr	r4, [r6, #1024]
    fdd0:	e5d42000 	ldrb	r2, [r4]
    fdd4:	e3520000 	cmp	r2, #0	; 0x0
    fdd8:	e2857001 	add	r7, r5, #1	; 0x1
    fddc:	1a000005 	bne	fdf8 <HidScan+0xd8>
    fde0:	ea00000b 	b	fe14 <HidScan+0xf4>
    fde4:	e3530021 	cmp	r3, #33	; 0x21
    fde8:	0a00000f 	beq	fe2c <HidScan+0x10c>
    fdec:	e7f42002 	ldrb	r2, [r4, r2]!
    fdf0:	e3520000 	cmp	r2, #0	; 0x0
    fdf4:	0a000006 	beq	fe14 <HidScan+0xf4>
    fdf8:	e5d43001 	ldrb	r3, [r4, #1]
    fdfc:	e3530004 	cmp	r3, #4	; 0x4
    fe00:	1afffff7 	bne	fde4 <HidScan+0xc4>
    fe04:	e5d47002 	ldrb	r7, [r4, #2]
    fe08:	e7f42002 	ldrb	r2, [r4, r2]!
    fe0c:	e3520000 	cmp	r2, #0	; 0x0
    fe10:	1afffff8 	bne	fdf8 <HidScan+0xd8>
    fe14:	e3a080fb 	mov	r8, #251	; 0xfb
    fe18:	e1a00c08 	lsl	r0, r8, #24
    fe1c:	e1a00c40 	asr	r0, r0, #24
    fe20:	e28dd014 	add	sp, sp, #20	; 0x14
    fe24:	e8bd45f0 	pop	{r4, r5, r6, r7, r8, sl, lr}
    fe28:	e12fff1e 	bx	lr
    fe2c:	e1570005 	cmp	r7, r5
    fe30:	1affffed 	bne	fdec <HidScan+0xcc>
    fe34:	e5d43002 	ldrb	r3, [r4, #2]
    fe38:	e5d42003 	ldrb	r2, [r4, #3]
    fe3c:	e1832402 	orr	r2, r3, r2, lsl #8
    fe40:	e59f31b4 	ldr	r3, [pc, #436]	; fffc <HidScan+0x2dc>
    fe44:	e1520003 	cmp	r2, r3
    fe48:	8afffff1 	bhi	fe14 <HidScan+0xf4>
    fe4c:	e59f31ac 	ldr	r3, [pc, #428]	; 10000 <HidScan+0x2e0>
    fe50:	e5863010 	str	r3, [r6, #16]
    fe54:	e59f31a8 	ldr	r3, [pc, #424]	; 10004 <HidScan+0x2e4>
    fe58:	e3a0001c 	mov	r0, #28	; 0x1c
    fe5c:	e586300c 	str	r3, [r6, #12]
    fe60:	ebfff3fd 	bl	ce5c <MemoryAllocate>
    fe64:	e3500000 	cmp	r0, #0	; 0x0
    fe68:	e1a05000 	mov	r5, r0
    fe6c:	e5860404 	str	r0, [r6, #1028]
    fe70:	0a000034 	beq	ff48 <HidScan+0x228>
    fe74:	e5903004 	ldr	r3, [r0, #4]
    fe78:	e3a0301c 	mov	r3, #28	; 0x1c
    fe7c:	e5803004 	str	r3, [r0, #4]
    fe80:	e1a03c24 	lsr	r3, r4, #24
    fe84:	e5c0300b 	strb	r3, [r0, #11]
    fe88:	e5903000 	ldr	r3, [r0]
    fe8c:	e59f3174 	ldr	r3, [pc, #372]	; 10008 <HidScan+0x2e8>
    fe90:	e3a08000 	mov	r8, #0	; 0x0
    fe94:	e1a01424 	lsr	r1, r4, #8
    fe98:	e1a02824 	lsr	r2, r4, #16
    fe9c:	e5c04008 	strb	r4, [r0, #8]
    fea0:	e5c01009 	strb	r1, [r0, #9]
    fea4:	e5c0200a 	strb	r2, [r0, #10]
    fea8:	e5c08010 	strb	r8, [r0, #16]
    feac:	e5c08011 	strb	r8, [r0, #17]
    feb0:	e5c08012 	strb	r8, [r0, #18]
    feb4:	e5c08013 	strb	r8, [r0, #19]
    feb8:	e5803000 	str	r3, [r0]
    febc:	e5d43007 	ldrb	r3, [r4, #7]
    fec0:	e5d40008 	ldrb	r0, [r4, #8]
    fec4:	e1830400 	orr	r0, r3, r0, lsl #8
    fec8:	ebfff3e3 	bl	ce5c <MemoryAllocate>
    fecc:	e250a000 	subs	sl, r0, #0	; 0x0
    fed0:	0a00001c 	beq	ff48 <HidScan+0x228>
    fed4:	e5d41008 	ldrb	r1, [r4, #8]
    fed8:	e5d42007 	ldrb	r2, [r4, #7]
    fedc:	e1822401 	orr	r2, r2, r1, lsl #8
    fee0:	e58d2004 	str	r2, [sp, #4]
    fee4:	e58d2008 	str	r2, [sp, #8]
    fee8:	e1a03807 	lsl	r3, r7, #16
    feec:	e3a02001 	mov	r2, #1	; 0x1
    fef0:	e58d200c 	str	r2, [sp, #12]
    fef4:	e58da000 	str	sl, [sp]
    fef8:	e1a02008 	mov	r2, r8
    fefc:	e1a00006 	mov	r0, r6
    ff00:	e3a01022 	mov	r1, #34	; 0x22
    ff04:	e1a03823 	lsr	r3, r3, #16
    ff08:	ebfff5b6 	bl	d5e8 <UsbGetDescriptor>
    ff0c:	e2508000 	subs	r8, r0, #0	; 0x0
    ff10:	1a00001a 	bne	ff80 <HidScan+0x260>
    ff14:	e5d43007 	ldrb	r3, [r4, #7]
    ff18:	e5d42008 	ldrb	r2, [r4, #8]
    ff1c:	e1a00006 	mov	r0, r6
    ff20:	e1a0100a 	mov	r1, sl
    ff24:	e1832402 	orr	r2, r3, r2, lsl #8
    ff28:	ebfffeb0 	bl	f9f0 <HidParseReportDescriptor>
    ff2c:	e2508000 	subs	r8, r0, #0	; 0x0
    ff30:	e1a0000a 	mov	r0, sl
    ff34:	0a000018 	beq	ff9c <HidScan+0x27c>
    ff38:	ebfff4db 	bl	d2ac <MemoryDeallocate>
    ff3c:	e1a0000a 	mov	r0, sl
    ff40:	ebfff4d9 	bl	d2ac <MemoryDeallocate>
    ff44:	ea000000 	b	ff4c <HidScan+0x22c>
    ff48:	e3a080f9 	mov	r8, #249	; 0xf9
    ff4c:	e1a00006 	mov	r0, r6
    ff50:	ebfffbc4 	bl	ee68 <HidDeallocate>
    ff54:	eaffffaf 	b	fe18 <HidScan+0xf8>
    ff58:	e5d2300b 	ldrb	r3, [r2, #11]
    ff5c:	e3530001 	cmp	r3, #1	; 0x1
    ff60:	15d2300b 	ldrbne	r3, [r2, #11]
    ff64:	e20510ff 	and	r1, r5, #255	; 0xff
    ff68:	e1a00006 	mov	r0, r6
    ff6c:	e3a02001 	mov	r2, #1	; 0x1
    ff70:	ebfffe1c 	bl	f7e8 <HidSetProtocol>
    ff74:	e2508000 	subs	r8, r0, #0	; 0x0
    ff78:	0affff93 	beq	fdcc <HidScan+0xac>
    ff7c:	eaffffa5 	b	fe18 <HidScan+0xf8>
    ff80:	e1a0000a 	mov	r0, sl
    ff84:	ebfff4c8 	bl	d2ac <MemoryDeallocate>
    ff88:	eaffffeb 	b	ff3c <HidScan+0x21c>
    ff8c:	e3a080fe 	mov	r8, #254	; 0xfe
    ff90:	eaffffa0 	b	fe18 <HidScan+0xf8>
    ff94:	e3a080fc 	mov	r8, #252	; 0xfc
    ff98:	eaffff9e 	b	fe18 <HidScan+0xf8>
    ff9c:	ebfff4c2 	bl	d2ac <MemoryDeallocate>
    ffa0:	e5d5300c 	ldrb	r3, [r5, #12]
    ffa4:	e5d5000d 	ldrb	r0, [r5, #13]
    ffa8:	e5d5100e 	ldrb	r1, [r5, #14]
    ffac:	e5d5200f 	ldrb	r2, [r5, #15]
    ffb0:	e1833400 	orr	r3, r3, r0, lsl #8
    ffb4:	e1833801 	orr	r3, r3, r1, lsl #16
    ffb8:	e1833c02 	orr	r3, r3, r2, lsl #24
    ffbc:	e5c37005 	strb	r7, [r3, #5]
    ffc0:	e5d5200d 	ldrb	r2, [r5, #13]
    ffc4:	e5d5300c 	ldrb	r3, [r5, #12]
    ffc8:	e5d5100e 	ldrb	r1, [r5, #14]
    ffcc:	e1833402 	orr	r3, r3, r2, lsl #8
    ffd0:	e5d5200f 	ldrb	r2, [r5, #15]
    ffd4:	e1833801 	orr	r3, r3, r1, lsl #16
    ffd8:	e1833c02 	orr	r3, r3, r2, lsl #24
    ffdc:	e5932000 	ldr	r2, [r3]
    ffe0:	e59f3024 	ldr	r3, [pc, #36]	; 1000c <HidScan+0x2ec>
    ffe4:	e1520003 	cmp	r2, r3
    ffe8:	1affff8a 	bne	fe18 <HidScan+0xf8>
    ffec:	e1a00006 	mov	r0, r6
    fff0:	e1a01007 	mov	r1, r7
    fff4:	ebffeffb 	bl	bfe8 <KeyboardScan>
    fff8:	eaffff86 	b	fe18 <HidScan+0xf8>
    fffc:	00000111 	.word	0x00000111
   10000:	0000ee68 	.word	0x0000ee68
   10004:	0000e624 	.word	0x0000e624
   10008:	48494430 	.word	0x48494430
   1000c:	00010006 	.word	0x00010006

00010010 <HidGetFieldValue>:
   10010:	e5d02000 	ldrb	r2, [r0]
   10014:	e0010192 	mul	r1, r2, r1
   10018:	e5900028 	ldr	r0, [r0, #40]
   1001c:	eafffcfc 	b	f414 <BitGetSigned>

00010020 <HubDetached>:
   10020:	e92d41f0 	push	{r4, r5, r6, r7, r8, lr}
   10024:	e5905404 	ldr	r5, [r0, #1028]
   10028:	e3550000 	cmp	r5, #0	; 0x0
   1002c:	0a000021 	beq	100b8 <HubDetached+0x98>
   10030:	e5d52010 	ldrb	r2, [r5, #16]
   10034:	e5d51011 	ldrb	r1, [r5, #17]
   10038:	e5d5c012 	ldrb	ip, [r5, #18]
   1003c:	e1823401 	orr	r3, r2, r1, lsl #8
   10040:	e5d56013 	ldrb	r6, [r5, #19]
   10044:	e183380c 	orr	r3, r3, ip, lsl #16
   10048:	e1933c06 	orrs	r3, r3, r6, lsl #24
   1004c:	0a000019 	beq	100b8 <HubDetached+0x98>
   10050:	e3a04000 	mov	r4, #0	; 0x0
   10054:	e284300e 	add	r3, r4, #14	; 0xe
   10058:	e0853103 	add	r3, r5, r3, lsl #2
   1005c:	e5d30004 	ldrb	r0, [r3, #4]
   10060:	e5d37005 	ldrb	r7, [r3, #5]
   10064:	e5d38006 	ldrb	r8, [r3, #6]
   10068:	e1807407 	orr	r7, r0, r7, lsl #8
   1006c:	e5d30007 	ldrb	r0, [r3, #7]
   10070:	e1873808 	orr	r3, r7, r8, lsl #16
   10074:	e1930c00 	orrs	r0, r3, r0, lsl #24
   10078:	e2844001 	add	r4, r4, #1	; 0x1
   1007c:	0a000008 	beq	100a4 <HubDetached+0x84>
   10080:	e590300c 	ldr	r3, [r0, #12]
   10084:	e3530000 	cmp	r3, #0	; 0x0
   10088:	0a000005 	beq	100a4 <HubDetached+0x84>
   1008c:	e1a0e00f 	mov	lr, pc
   10090:	e12fff13 	bx	r3
   10094:	e5d52010 	ldrb	r2, [r5, #16]
   10098:	e5d51011 	ldrb	r1, [r5, #17]
   1009c:	e5d5c012 	ldrb	ip, [r5, #18]
   100a0:	e5d56013 	ldrb	r6, [r5, #19]
   100a4:	e1823401 	orr	r3, r2, r1, lsl #8
   100a8:	e183380c 	orr	r3, r3, ip, lsl #16
   100ac:	e1833c06 	orr	r3, r3, r6, lsl #24
   100b0:	e1530004 	cmp	r3, r4
   100b4:	8affffe6 	bhi	10054 <HubDetached+0x34>
   100b8:	e8bd41f0 	pop	{r4, r5, r6, r7, r8, lr}
   100bc:	e12fff1e 	bx	lr

000100c0 <HubDeallocate>:
   100c0:	e92d45f8 	push	{r3, r4, r5, r6, r7, r8, sl, lr}
   100c4:	e5905404 	ldr	r5, [r0, #1028]
   100c8:	e3550000 	cmp	r5, #0	; 0x0
   100cc:	e1a08000 	mov	r8, r0
   100d0:	0a00002c 	beq	10188 <HubDeallocate+0xc8>
   100d4:	e5d51010 	ldrb	r1, [r5, #16]
   100d8:	e5d5c011 	ldrb	ip, [r5, #17]
   100dc:	e5d5e012 	ldrb	lr, [r5, #18]
   100e0:	e181340c 	orr	r3, r1, ip, lsl #8
   100e4:	e5d5a013 	ldrb	sl, [r5, #19]
   100e8:	e183380e 	orr	r3, r3, lr, lsl #16
   100ec:	e1933c0a 	orrs	r3, r3, sl, lsl #24
   100f0:	13a06000 	movne	r6, #0	; 0x0
   100f4:	11a07006 	movne	r7, r6
   100f8:	0a000018 	beq	10160 <HubDeallocate+0xa0>
   100fc:	e286400e 	add	r4, r6, #14	; 0xe
   10100:	e0854104 	add	r4, r5, r4, lsl #2
   10104:	e5d42005 	ldrb	r2, [r4, #5]
   10108:	e5d43004 	ldrb	r3, [r4, #4]
   1010c:	e5d40006 	ldrb	r0, [r4, #6]
   10110:	e1833402 	orr	r3, r3, r2, lsl #8
   10114:	e5d42007 	ldrb	r2, [r4, #7]
   10118:	e1833800 	orr	r3, r3, r0, lsl #16
   1011c:	e1930c02 	orrs	r0, r3, r2, lsl #24
   10120:	e2866001 	add	r6, r6, #1	; 0x1
   10124:	0a000008 	beq	1014c <HubDeallocate+0x8c>
   10128:	ebfff87b 	bl	e31c <UsbDeallocateDevice>
   1012c:	e5c47004 	strb	r7, [r4, #4]
   10130:	e5c47005 	strb	r7, [r4, #5]
   10134:	e5c47006 	strb	r7, [r4, #6]
   10138:	e5c47007 	strb	r7, [r4, #7]
   1013c:	e5d51010 	ldrb	r1, [r5, #16]
   10140:	e5d5c011 	ldrb	ip, [r5, #17]
   10144:	e5d5e012 	ldrb	lr, [r5, #18]
   10148:	e5d5a013 	ldrb	sl, [r5, #19]
   1014c:	e181340c 	orr	r3, r1, ip, lsl #8
   10150:	e183380e 	orr	r3, r3, lr, lsl #16
   10154:	e1833c0a 	orr	r3, r3, sl, lsl #24
   10158:	e1530006 	cmp	r3, r6
   1015c:	8affffe6 	bhi	100fc <HubDeallocate+0x3c>
   10160:	e5d5300c 	ldrb	r3, [r5, #12]
   10164:	e5d5100d 	ldrb	r1, [r5, #13]
   10168:	e5d5200e 	ldrb	r2, [r5, #14]
   1016c:	e1833401 	orr	r3, r3, r1, lsl #8
   10170:	e5d5000f 	ldrb	r0, [r5, #15]
   10174:	e1833802 	orr	r3, r3, r2, lsl #16
   10178:	e1930c00 	orrs	r0, r3, r0, lsl #24
   1017c:	1bfff44a 	blne	d2ac <MemoryDeallocate>
   10180:	e5980404 	ldr	r0, [r8, #1028]
   10184:	ebfff448 	bl	d2ac <MemoryDeallocate>
   10188:	e3a03000 	mov	r3, #0	; 0x0
   1018c:	e5883010 	str	r3, [r8, #16]
   10190:	e588300c 	str	r3, [r8, #12]
   10194:	e8bd45f8 	pop	{r3, r4, r5, r6, r7, r8, sl, lr}
   10198:	e12fff1e 	bx	lr

0001019c <HubReadDescriptor>:
   1019c:	e92d4030 	push	{r4, r5, lr}
   101a0:	e24dd01c 	sub	sp, sp, #28	; 0x1c
   101a4:	e3a03002 	mov	r3, #2	; 0x2
   101a8:	e28d1014 	add	r1, sp, #20	; 0x14
   101ac:	e88d000a 	stm	sp, {r1, r3}
   101b0:	e3a02000 	mov	r2, #0	; 0x0
   101b4:	e58d3008 	str	r3, [sp, #8]
   101b8:	e3a03020 	mov	r3, #32	; 0x20
   101bc:	e58d300c 	str	r3, [sp, #12]
   101c0:	e3a01029 	mov	r1, #41	; 0x29
   101c4:	e1a03002 	mov	r3, r2
   101c8:	e1a05000 	mov	r5, r0
   101cc:	ebfff505 	bl	d5e8 <UsbGetDescriptor>
   101d0:	e3500000 	cmp	r0, #0	; 0x0
   101d4:	1a000013 	bne	10228 <HubReadDescriptor+0x8c>
   101d8:	e5954404 	ldr	r4, [r5, #1028]
   101dc:	e5d4200d 	ldrb	r2, [r4, #13]
   101e0:	e5d4300c 	ldrb	r3, [r4, #12]
   101e4:	e5d4100e 	ldrb	r1, [r4, #14]
   101e8:	e1833402 	orr	r3, r3, r2, lsl #8
   101ec:	e5d4200f 	ldrb	r2, [r4, #15]
   101f0:	e1833801 	orr	r3, r3, r1, lsl #16
   101f4:	e1933c02 	orrs	r3, r3, r2, lsl #24
   101f8:	0a00000f 	beq	1023c <HubReadDescriptor+0xa0>
   101fc:	e5dd1014 	ldrb	r1, [sp, #20]
   10200:	e3a02000 	mov	r2, #0	; 0x0
   10204:	e58d3000 	str	r3, [sp]
   10208:	e3a03020 	mov	r3, #32	; 0x20
   1020c:	e58d1004 	str	r1, [sp, #4]
   10210:	e58d1008 	str	r1, [sp, #8]
   10214:	e58d300c 	str	r3, [sp, #12]
   10218:	e1a00005 	mov	r0, r5
   1021c:	e3a01029 	mov	r1, #41	; 0x29
   10220:	e1a03002 	mov	r3, r2
   10224:	ebfff4ef 	bl	d5e8 <UsbGetDescriptor>
   10228:	e1a00c00 	lsl	r0, r0, #24
   1022c:	e1a00c40 	asr	r0, r0, #24
   10230:	e28dd01c 	add	sp, sp, #28	; 0x1c
   10234:	e8bd4030 	pop	{r4, r5, lr}
   10238:	e12fff1e 	bx	lr
   1023c:	e5dd0014 	ldrb	r0, [sp, #20]
   10240:	ebfff305 	bl	ce5c <MemoryAllocate>
   10244:	e1a01420 	lsr	r1, r0, #8
   10248:	e1a02820 	lsr	r2, r0, #16
   1024c:	e1a03c20 	lsr	r3, r0, #24
   10250:	e3500000 	cmp	r0, #0	; 0x0
   10254:	e5c4000c 	strb	r0, [r4, #12]
   10258:	e5c4100d 	strb	r1, [r4, #13]
   1025c:	e5c4200e 	strb	r2, [r4, #14]
   10260:	e5c4300f 	strb	r3, [r4, #15]
   10264:	0a000008 	beq	1028c <HubReadDescriptor+0xf0>
   10268:	e5951404 	ldr	r1, [r5, #1028]
   1026c:	e5d1200d 	ldrb	r2, [r1, #13]
   10270:	e5d1300c 	ldrb	r3, [r1, #12]
   10274:	e5d1000e 	ldrb	r0, [r1, #14]
   10278:	e1833402 	orr	r3, r3, r2, lsl #8
   1027c:	e5d1200f 	ldrb	r2, [r1, #15]
   10280:	e1833800 	orr	r3, r3, r0, lsl #16
   10284:	e1833c02 	orr	r3, r3, r2, lsl #24
   10288:	eaffffdb 	b	101fc <HubReadDescriptor+0x60>
   1028c:	e3a000f9 	mov	r0, #249	; 0xf9
   10290:	eaffffe4 	b	10228 <HubReadDescriptor+0x8c>

00010294 <HubGetStatus>:
   10294:	e92d4010 	push	{r4, lr}
   10298:	e5d0301b 	ldrb	r3, [r0, #27]
   1029c:	e20330ff 	and	r3, r3, #255	; 0xff
   102a0:	e24dd018 	sub	sp, sp, #24	; 0x18
   102a4:	e3a02000 	mov	r2, #0	; 0x0
   102a8:	e3530008 	cmp	r3, #8	; 0x8
   102ac:	e1a04000 	mov	r4, r0
   102b0:	e58d200c 	str	r2, [sp, #12]
   102b4:	9a000005 	bls	102d0 <HubGetStatus+0x3c>
   102b8:	e3530010 	cmp	r3, #16	; 0x10
   102bc:	93a02001 	movls	r2, #1	; 0x1
   102c0:	9a000002 	bls	102d0 <HubGetStatus+0x3c>
   102c4:	e3530020 	cmp	r3, #32	; 0x20
   102c8:	83a02003 	movhi	r2, #3	; 0x3
   102cc:	93a02002 	movls	r2, #2	; 0x2
   102d0:	e5dd000c 	ldrb	r0, [sp, #12]
   102d4:	e5d4c004 	ldrb	ip, [r4, #4]
   102d8:	e20000f0 	and	r0, r0, #240	; 0xf0
   102dc:	e5dd100e 	ldrb	r1, [sp, #14]
   102e0:	e1803002 	orr	r3, r0, r2
   102e4:	e20cc003 	and	ip, ip, #3	; 0x3
   102e8:	e5d40000 	ldrb	r0, [r4]
   102ec:	e183310c 	orr	r3, r3, ip, lsl #2
   102f0:	e5942404 	ldr	r2, [r4, #1028]
   102f4:	e3811004 	orr	r1, r1, #4	; 0x4
   102f8:	e5cd300c 	strb	r3, [sp, #12]
   102fc:	e28d3010 	add	r3, sp, #16	; 0x10
   10300:	e5cd000d 	strb	r0, [sp, #13]
   10304:	e3a0c004 	mov	ip, #4	; 0x4
   10308:	e3a0e000 	mov	lr, #0	; 0x0
   1030c:	e5cd100e 	strb	r1, [sp, #14]
   10310:	e58d3000 	str	r3, [sp]
   10314:	e3a0300a 	mov	r3, #10	; 0xa
   10318:	e58de010 	str	lr, [sp, #16]
   1031c:	e58de014 	str	lr, [sp, #20]
   10320:	e58d3004 	str	r3, [sp, #4]
   10324:	e3e0e05f 	mvn	lr, #95	; 0x5f
   10328:	e1a00004 	mov	r0, r4
   1032c:	e59d100c 	ldr	r1, [sp, #12]
   10330:	e2822008 	add	r2, r2, #8	; 0x8
   10334:	e1a0300c 	mov	r3, ip
   10338:	e5cde010 	strb	lr, [sp, #16]
   1033c:	e1cdc1b6 	strh	ip, [sp, #22]
   10340:	ebfff46a 	bl	d4f0 <UsbControlMessage>
   10344:	e3500000 	cmp	r0, #0	; 0x0
   10348:	1a000002 	bne	10358 <HubGetStatus+0xc4>
   1034c:	e5943408 	ldr	r3, [r4, #1032]
   10350:	e3530003 	cmp	r3, #3	; 0x3
   10354:	93a000fc 	movls	r0, #252	; 0xfc
   10358:	e1a00c00 	lsl	r0, r0, #24
   1035c:	e1a00c40 	asr	r0, r0, #24
   10360:	e28dd018 	add	sp, sp, #24	; 0x18
   10364:	e8bd4010 	pop	{r4, lr}
   10368:	e12fff1e 	bx	lr

0001036c <HubPortGetStatus>:
   1036c:	e92d4030 	push	{r4, r5, lr}
   10370:	e5d0301b 	ldrb	r3, [r0, #27]
   10374:	e20330ff 	and	r3, r3, #255	; 0xff
   10378:	e24dd01c 	sub	sp, sp, #28	; 0x1c
   1037c:	e3a02000 	mov	r2, #0	; 0x0
   10380:	e3530008 	cmp	r3, #8	; 0x8
   10384:	e1a04000 	mov	r4, r0
   10388:	e58d200c 	str	r2, [sp, #12]
   1038c:	9a000005 	bls	103a8 <HubPortGetStatus+0x3c>
   10390:	e3530010 	cmp	r3, #16	; 0x10
   10394:	93a02001 	movls	r2, #1	; 0x1
   10398:	9a000002 	bls	103a8 <HubPortGetStatus+0x3c>
   1039c:	e3530020 	cmp	r3, #32	; 0x20
   103a0:	83a02003 	movhi	r2, #3	; 0x3
   103a4:	93a02002 	movls	r2, #2	; 0x2
   103a8:	e5ddc00c 	ldrb	ip, [sp, #12]
   103ac:	e5d4e004 	ldrb	lr, [r4, #4]
   103b0:	e20cc0f0 	and	ip, ip, #240	; 0xf0
   103b4:	e5dd000e 	ldrb	r0, [sp, #14]
   103b8:	e18c3002 	orr	r3, ip, r2
   103bc:	e20ee003 	and	lr, lr, #3	; 0x3
   103c0:	e5d4c000 	ldrb	ip, [r4]
   103c4:	e5942404 	ldr	r2, [r4, #1028]
   103c8:	e183310e 	orr	r3, r3, lr, lsl #2
   103cc:	e5cd300c 	strb	r3, [sp, #12]
   103d0:	e3800004 	orr	r0, r0, #4	; 0x4
   103d4:	e28d3010 	add	r3, sp, #16	; 0x10
   103d8:	e5cdc00d 	strb	ip, [sp, #13]
   103dc:	e5cd000e 	strb	r0, [sp, #14]
   103e0:	e3a0c004 	mov	ip, #4	; 0x4
   103e4:	e281e001 	add	lr, r1, #1	; 0x1
   103e8:	e0822101 	add	r2, r2, r1, lsl #2
   103ec:	e58d3000 	str	r3, [sp]
   103f0:	e3a0300a 	mov	r3, #10	; 0xa
   103f4:	e58d3004 	str	r3, [sp, #4]
   103f8:	e1cde1b4 	strh	lr, [sp, #20]
   103fc:	e1a00004 	mov	r0, r4
   10400:	e3e0e05c 	mvn	lr, #92	; 0x5c
   10404:	e59d100c 	ldr	r1, [sp, #12]
   10408:	e2822014 	add	r2, r2, #20	; 0x14
   1040c:	e1a0300c 	mov	r3, ip
   10410:	e3a05000 	mov	r5, #0	; 0x0
   10414:	e58d5010 	str	r5, [sp, #16]
   10418:	e1cdc1b6 	strh	ip, [sp, #22]
   1041c:	e5cde010 	strb	lr, [sp, #16]
   10420:	ebfff432 	bl	d4f0 <UsbControlMessage>
   10424:	e3500000 	cmp	r0, #0	; 0x0
   10428:	1a000002 	bne	10438 <HubPortGetStatus+0xcc>
   1042c:	e5943408 	ldr	r3, [r4, #1032]
   10430:	e3530003 	cmp	r3, #3	; 0x3
   10434:	93a000fc 	movls	r0, #252	; 0xfc
   10438:	e1a00c00 	lsl	r0, r0, #24
   1043c:	e1a00c40 	asr	r0, r0, #24
   10440:	e28dd01c 	add	sp, sp, #28	; 0x1c
   10444:	e8bd4030 	pop	{r4, r5, lr}
   10448:	e12fff1e 	bx	lr

0001044c <HubChangeFeature>:
   1044c:	e92d4010 	push	{r4, lr}
   10450:	e5d0301b 	ldrb	r3, [r0, #27]
   10454:	e20330ff 	and	r3, r3, #255	; 0xff
   10458:	e24dd018 	sub	sp, sp, #24	; 0x18
   1045c:	e3a0c000 	mov	ip, #0	; 0x0
   10460:	e3530008 	cmp	r3, #8	; 0x8
   10464:	e1a0e001 	mov	lr, r1
   10468:	e1a04002 	mov	r4, r2
   1046c:	e58dc00c 	str	ip, [sp, #12]
   10470:	9a000005 	bls	1048c <HubChangeFeature+0x40>
   10474:	e3530010 	cmp	r3, #16	; 0x10
   10478:	93a0c001 	movls	ip, #1	; 0x1
   1047c:	9a000002 	bls	1048c <HubChangeFeature+0x40>
   10480:	e3530020 	cmp	r3, #32	; 0x20
   10484:	83a0c003 	movhi	ip, #3	; 0x3
   10488:	93a0c002 	movls	ip, #2	; 0x2
   1048c:	e5dd200c 	ldrb	r2, [sp, #12]
   10490:	e5d01004 	ldrb	r1, [r0, #4]
   10494:	e20220f0 	and	r2, r2, #240	; 0xf0
   10498:	e182300c 	orr	r3, r2, ip
   1049c:	e2011003 	and	r1, r1, #3	; 0x3
   104a0:	e5d02000 	ldrb	r2, [r0]
   104a4:	e1833101 	orr	r3, r3, r1, lsl #2
   104a8:	e3a0c000 	mov	ip, #0	; 0x0
   104ac:	e5cd300c 	strb	r3, [sp, #12]
   104b0:	e28d3010 	add	r3, sp, #16	; 0x10
   104b4:	e154000c 	cmp	r4, ip
   104b8:	e5cd200d 	strb	r2, [sp, #13]
   104bc:	e58d3000 	str	r3, [sp]
   104c0:	e3a0300a 	mov	r3, #10	; 0xa
   104c4:	e1a0200c 	mov	r2, ip
   104c8:	13a04003 	movne	r4, #3	; 0x3
   104cc:	03a04001 	moveq	r4, #1	; 0x1
   104d0:	e58d3004 	str	r3, [sp, #4]
   104d4:	e58dc014 	str	ip, [sp, #20]
   104d8:	e1a0300c 	mov	r3, ip
   104dc:	e59d100c 	ldr	r1, [sp, #12]
   104e0:	e3a0c020 	mov	ip, #32	; 0x20
   104e4:	e5cdc010 	strb	ip, [sp, #16]
   104e8:	e5cd4011 	strb	r4, [sp, #17]
   104ec:	e1cde1b2 	strh	lr, [sp, #18]
   104f0:	ebfff3fe 	bl	d4f0 <UsbControlMessage>
   104f4:	e28dd018 	add	sp, sp, #24	; 0x18
   104f8:	e8bd4010 	pop	{r4, lr}
   104fc:	e12fff1e 	bx	lr

00010500 <HubChangePortFeature>:
   10500:	e92d4030 	push	{r4, r5, lr}
   10504:	e5d0c01b 	ldrb	ip, [r0, #27]
   10508:	e20cc0ff 	and	ip, ip, #255	; 0xff
   1050c:	e24dd01c 	sub	sp, sp, #28	; 0x1c
   10510:	e3a0e000 	mov	lr, #0	; 0x0
   10514:	e35c0008 	cmp	ip, #8	; 0x8
   10518:	e1a04001 	mov	r4, r1
   1051c:	e58de00c 	str	lr, [sp, #12]
   10520:	e1a01002 	mov	r1, r2
   10524:	9a000005 	bls	10540 <HubChangePortFeature+0x40>
   10528:	e35c0010 	cmp	ip, #16	; 0x10
   1052c:	93a0e001 	movls	lr, #1	; 0x1
   10530:	9a000002 	bls	10540 <HubChangePortFeature+0x40>
   10534:	e35c0020 	cmp	ip, #32	; 0x20
   10538:	83a0e003 	movhi	lr, #3	; 0x3
   1053c:	93a0e002 	movls	lr, #2	; 0x2
   10540:	e5dd200c 	ldrb	r2, [sp, #12]
   10544:	e5d05004 	ldrb	r5, [r0, #4]
   10548:	e20220f0 	and	r2, r2, #240	; 0xf0
   1054c:	e2055003 	and	r5, r5, #3	; 0x3
   10550:	e3a0c000 	mov	ip, #0	; 0x0
   10554:	e182e00e 	orr	lr, r2, lr
   10558:	e5d02000 	ldrb	r2, [r0]
   1055c:	e18ee105 	orr	lr, lr, r5, lsl #2
   10560:	e153000c 	cmp	r3, ip
   10564:	e28d3010 	add	r3, sp, #16	; 0x10
   10568:	e5cde00c 	strb	lr, [sp, #12]
   1056c:	e5cd200d 	strb	r2, [sp, #13]
   10570:	e58d3000 	str	r3, [sp]
   10574:	e3a0300a 	mov	r3, #10	; 0xa
   10578:	e281e001 	add	lr, r1, #1	; 0x1
   1057c:	e58dc014 	str	ip, [sp, #20]
   10580:	e1a0200c 	mov	r2, ip
   10584:	13a05003 	movne	r5, #3	; 0x3
   10588:	03a05001 	moveq	r5, #1	; 0x1
   1058c:	e58d3004 	str	r3, [sp, #4]
   10590:	e59d100c 	ldr	r1, [sp, #12]
   10594:	e1a0300c 	mov	r3, ip
   10598:	e3a0c023 	mov	ip, #35	; 0x23
   1059c:	e5cdc010 	strb	ip, [sp, #16]
   105a0:	e5cd5011 	strb	r5, [sp, #17]
   105a4:	e1cd41b2 	strh	r4, [sp, #18]
   105a8:	e1cde1b4 	strh	lr, [sp, #20]
   105ac:	ebfff3cf 	bl	d4f0 <UsbControlMessage>
   105b0:	e28dd01c 	add	sp, sp, #28	; 0x1c
   105b4:	e8bd4030 	pop	{r4, r5, lr}
   105b8:	e12fff1e 	bx	lr

000105bc <HubPowerOn>:
   105bc:	e92d40f8 	push	{r3, r4, r5, r6, r7, lr}
   105c0:	e5904404 	ldr	r4, [r0, #1028]
   105c4:	e5d41011 	ldrb	r1, [r4, #17]
   105c8:	e5d42010 	ldrb	r2, [r4, #16]
   105cc:	e5d4300c 	ldrb	r3, [r4, #12]
   105d0:	e5d4700d 	ldrb	r7, [r4, #13]
   105d4:	e5d4c012 	ldrb	ip, [r4, #18]
   105d8:	e1822401 	orr	r2, r2, r1, lsl #8
   105dc:	e1a06000 	mov	r6, r0
   105e0:	e5d41013 	ldrb	r1, [r4, #19]
   105e4:	e5d4000e 	ldrb	r0, [r4, #14]
   105e8:	e1837407 	orr	r7, r3, r7, lsl #8
   105ec:	e182280c 	orr	r2, r2, ip, lsl #16
   105f0:	e5d4300f 	ldrb	r3, [r4, #15]
   105f4:	e1877800 	orr	r7, r7, r0, lsl #16
   105f8:	e1921c01 	orrs	r1, r2, r1, lsl #24
   105fc:	e1877c03 	orr	r7, r7, r3, lsl #24
   10600:	0a00000f 	beq	10644 <HubPowerOn+0x88>
   10604:	e3a05000 	mov	r5, #0	; 0x0
   10608:	e20520ff 	and	r2, r5, #255	; 0xff
   1060c:	e3a01008 	mov	r1, #8	; 0x8
   10610:	e3a03001 	mov	r3, #1	; 0x1
   10614:	e1a00006 	mov	r0, r6
   10618:	ebffffb8 	bl	10500 <HubChangePortFeature>
   1061c:	e5d42011 	ldrb	r2, [r4, #17]
   10620:	e5d43010 	ldrb	r3, [r4, #16]
   10624:	e5d41012 	ldrb	r1, [r4, #18]
   10628:	e1833402 	orr	r3, r3, r2, lsl #8
   1062c:	e5d42013 	ldrb	r2, [r4, #19]
   10630:	e1833801 	orr	r3, r3, r1, lsl #16
   10634:	e2855001 	add	r5, r5, #1	; 0x1
   10638:	e1833c02 	orr	r3, r3, r2, lsl #24
   1063c:	e1530005 	cmp	r3, r5
   10640:	8afffff0 	bhi	10608 <HubPowerOn+0x4c>
   10644:	e5d73005 	ldrb	r3, [r7, #5]
   10648:	e0632283 	rsb	r2, r3, r3, lsl #5
   1064c:	e0830102 	add	r0, r3, r2, lsl #2
   10650:	e1a00200 	lsl	r0, r0, #4
   10654:	eb000958 	bl	12bbc <MicroDelay>
   10658:	e3a00000 	mov	r0, #0	; 0x0
   1065c:	e8bd40f8 	pop	{r3, r4, r5, r6, r7, lr}
   10660:	e12fff1e 	bx	lr

00010664 <HubPortReset>:
   10664:	e92d45f8 	push	{r3, r4, r5, r6, r7, r8, sl, lr}
   10668:	e5905404 	ldr	r5, [r0, #1028]
   1066c:	e0855101 	add	r5, r5, r1, lsl #2
   10670:	e1a08000 	mov	r8, r0
   10674:	e1a07001 	mov	r7, r1
   10678:	e2855014 	add	r5, r5, #20	; 0x14
   1067c:	e3a0a003 	mov	sl, #3	; 0x3
   10680:	e1a00008 	mov	r0, r8
   10684:	e3a01004 	mov	r1, #4	; 0x4
   10688:	e1a02007 	mov	r2, r7
   1068c:	e3a03001 	mov	r3, #1	; 0x1
   10690:	ebffff9a 	bl	10500 <HubChangePortFeature>
   10694:	e2506000 	subs	r6, r0, #0	; 0x0
   10698:	1a000013 	bne	106ec <HubPortReset+0x88>
   1069c:	e1a04006 	mov	r4, r6
   106a0:	e59f008c 	ldr	r0, [pc, #140]	; 10734 <HubPortReset+0xd0>
   106a4:	eb000944 	bl	12bbc <MicroDelay>
   106a8:	e1a00008 	mov	r0, r8
   106ac:	e1a01007 	mov	r1, r7
   106b0:	ebffff2d 	bl	1036c <HubPortGetStatus>
   106b4:	e2506000 	subs	r6, r0, #0	; 0x0
   106b8:	1a00000b 	bne	106ec <HubPortReset+0x88>
   106bc:	e5d53002 	ldrb	r3, [r5, #2]
   106c0:	e3130010 	tst	r3, #16	; 0x10
   106c4:	e2844001 	add	r4, r4, #1	; 0x1
   106c8:	1a00000b 	bne	106fc <HubPortReset+0x98>
   106cc:	e5d5c000 	ldrb	ip, [r5]
   106d0:	e31c0002 	tst	ip, #2	; 0x2
   106d4:	1a000008 	bne	106fc <HubPortReset+0x98>
   106d8:	e354000a 	cmp	r4, #10	; 0xa
   106dc:	1affffef 	bne	106a0 <HubPortReset+0x3c>
   106e0:	e25aa001 	subs	sl, sl, #1	; 0x1
   106e4:	1affffe5 	bne	10680 <HubPortReset+0x1c>
   106e8:	e3a060fc 	mov	r6, #252	; 0xfc
   106ec:	e1a06c06 	lsl	r6, r6, #24
   106f0:	e1a00c46 	asr	r0, r6, #24
   106f4:	e8bd45f8 	pop	{r3, r4, r5, r6, r7, r8, sl, lr}
   106f8:	e12fff1e 	bx	lr
   106fc:	e354000a 	cmp	r4, #10	; 0xa
   10700:	0afffff6 	beq	106e0 <HubPortReset+0x7c>
   10704:	e2133001 	ands	r3, r3, #1	; 0x1
   10708:	1afffff6 	bne	106e8 <HubPortReset+0x84>
   1070c:	e5d52000 	ldrb	r2, [r5]
   10710:	e3120001 	tst	r2, #1	; 0x1
   10714:	0afffff3 	beq	106e8 <HubPortReset+0x84>
   10718:	e3120002 	tst	r2, #2	; 0x2
   1071c:	0affffef 	beq	106e0 <HubPortReset+0x7c>
   10720:	e1a00008 	mov	r0, r8
   10724:	e3a01014 	mov	r1, #20	; 0x14
   10728:	e1a02007 	mov	r2, r7
   1072c:	ebffff73 	bl	10500 <HubChangePortFeature>
   10730:	eaffffed 	b	106ec <HubPortReset+0x88>
   10734:	00004e20 	.word	0x00004e20

00010738 <HubPortConnectionChanged>:
   10738:	e92d47f0 	push	{r4, r5, r6, r7, r8, r9, sl, lr}
   1073c:	e1a04000 	mov	r4, r0
   10740:	e1a06001 	mov	r6, r1
   10744:	e5907404 	ldr	r7, [r0, #1028]
   10748:	ebffff07 	bl	1036c <HubPortGetStatus>
   1074c:	e2505000 	subs	r5, r0, #0	; 0x0
   10750:	0a000003 	beq	10764 <HubPortConnectionChanged+0x2c>
   10754:	e1a00c05 	lsl	r0, r5, #24
   10758:	e1a00c40 	asr	r0, r0, #24
   1075c:	e8bd47f0 	pop	{r4, r5, r6, r7, r8, r9, sl, lr}
   10760:	e12fff1e 	bx	lr
   10764:	e2869004 	add	r9, r6, #4	; 0x4
   10768:	e0879109 	add	r9, r7, r9, lsl #2
   1076c:	e1a03005 	mov	r3, r5
   10770:	e1a00004 	mov	r0, r4
   10774:	e3a01010 	mov	r1, #16	; 0x10
   10778:	e1a02006 	mov	r2, r6
   1077c:	ebffff5f 	bl	10500 <HubChangePortFeature>
   10780:	e5d93004 	ldrb	r3, [r9, #4]
   10784:	e3130003 	tst	r3, #3	; 0x3
   10788:	e286800e 	add	r8, r6, #14	; 0xe
   1078c:	e289a004 	add	sl, r9, #4	; 0x4
   10790:	0a000055 	beq	108ec <HubPortConnectionChanged+0x1b4>
   10794:	e0873108 	add	r3, r7, r8, lsl #2
   10798:	e5d30005 	ldrb	r0, [r3, #5]
   1079c:	e5d32004 	ldrb	r2, [r3, #4]
   107a0:	e5d31006 	ldrb	r1, [r3, #6]
   107a4:	e1822400 	orr	r2, r2, r0, lsl #8
   107a8:	e5d30007 	ldrb	r0, [r3, #7]
   107ac:	e1823801 	orr	r3, r2, r1, lsl #16
   107b0:	e1930c00 	orrs	r0, r3, r0, lsl #24
   107b4:	0a000009 	beq	107e0 <HubPortConnectionChanged+0xa8>
   107b8:	ebfff6d7 	bl	e31c <UsbDeallocateDevice>
   107bc:	e0873108 	add	r3, r7, r8, lsl #2
   107c0:	e3a02000 	mov	r2, #0	; 0x0
   107c4:	e5c32004 	strb	r2, [r3, #4]
   107c8:	e5c32005 	strb	r2, [r3, #5]
   107cc:	e5c32006 	strb	r2, [r3, #6]
   107d0:	e5c32007 	strb	r2, [r3, #7]
   107d4:	e5d93004 	ldrb	r3, [r9, #4]
   107d8:	e3130001 	tst	r3, #1	; 0x1
   107dc:	0affffdc 	beq	10754 <HubPortConnectionChanged+0x1c>
   107e0:	e1a00004 	mov	r0, r4
   107e4:	e1a01006 	mov	r1, r6
   107e8:	ebffff9d 	bl	10664 <HubPortReset>
   107ec:	e3500000 	cmp	r0, #0	; 0x0
   107f0:	0a000001 	beq	107fc <HubPortConnectionChanged+0xc4>
   107f4:	e1a05000 	mov	r5, r0
   107f8:	eaffffd5 	b	10754 <HubPortConnectionChanged+0x1c>
   107fc:	e0879108 	add	r9, r7, r8, lsl #2
   10800:	e2890004 	add	r0, r9, #4	; 0x4
   10804:	ebfff695 	bl	e260 <UsbAllocateDevice>
   10808:	e3500000 	cmp	r0, #0	; 0x0
   1080c:	1afffff8 	bne	107f4 <HubPortConnectionChanged+0xbc>
   10810:	e1a00004 	mov	r0, r4
   10814:	e1a01006 	mov	r1, r6
   10818:	ebfffed3 	bl	1036c <HubPortGetStatus>
   1081c:	e3500000 	cmp	r0, #0	; 0x0
   10820:	1afffff3 	bne	107f4 <HubPortConnectionChanged+0xbc>
   10824:	e5da3001 	ldrb	r3, [sl, #1]
   10828:	e3130004 	tst	r3, #4	; 0x4
   1082c:	0a000037 	beq	10910 <HubPortConnectionChanged+0x1d8>
   10830:	e5d93004 	ldrb	r3, [r9, #4]
   10834:	e5d9c005 	ldrb	ip, [r9, #5]
   10838:	e5d91006 	ldrb	r1, [r9, #6]
   1083c:	e5d92007 	ldrb	r2, [r9, #7]
   10840:	e183340c 	orr	r3, r3, ip, lsl #8
   10844:	e1833801 	orr	r3, r3, r1, lsl #16
   10848:	e1833c02 	orr	r3, r3, r2, lsl #24
   1084c:	e5c30004 	strb	r0, [r3, #4]
   10850:	e0877108 	add	r7, r7, r8, lsl #2
   10854:	e5d70005 	ldrb	r0, [r7, #5]
   10858:	e5d73004 	ldrb	r3, [r7, #4]
   1085c:	e5d71006 	ldrb	r1, [r7, #6]
   10860:	e5d72007 	ldrb	r2, [r7, #7]
   10864:	e1833400 	orr	r3, r3, r0, lsl #8
   10868:	e1833801 	orr	r3, r3, r1, lsl #16
   1086c:	e1833c02 	orr	r3, r3, r2, lsl #24
   10870:	e58343fc 	str	r4, [r3, #1020]
   10874:	e5c36007 	strb	r6, [r3, #7]
   10878:	e5d73004 	ldrb	r3, [r7, #4]
   1087c:	e5d71005 	ldrb	r1, [r7, #5]
   10880:	e5d72006 	ldrb	r2, [r7, #6]
   10884:	e1833401 	orr	r3, r3, r1, lsl #8
   10888:	e5d70007 	ldrb	r0, [r7, #7]
   1088c:	e1833802 	orr	r3, r3, r2, lsl #16
   10890:	e1830c00 	orr	r0, r3, r0, lsl #24
   10894:	ebfff5e7 	bl	e038 <UsbScanDevice>
   10898:	e2508000 	subs	r8, r0, #0	; 0x0
   1089c:	0affffac 	beq	10754 <HubPortConnectionChanged+0x1c>
   108a0:	e5d71005 	ldrb	r1, [r7, #5]
   108a4:	e5d73004 	ldrb	r3, [r7, #4]
   108a8:	e5d72006 	ldrb	r2, [r7, #6]
   108ac:	e1833401 	orr	r3, r3, r1, lsl #8
   108b0:	e5d70007 	ldrb	r0, [r7, #7]
   108b4:	e1833802 	orr	r3, r3, r2, lsl #16
   108b8:	e1830c00 	orr	r0, r3, r0, lsl #24
   108bc:	ebfff696 	bl	e31c <UsbDeallocateDevice>
   108c0:	e3a03000 	mov	r3, #0	; 0x0
   108c4:	e5c73004 	strb	r3, [r7, #4]
   108c8:	e5c73005 	strb	r3, [r7, #5]
   108cc:	e5c73006 	strb	r3, [r7, #6]
   108d0:	e5c73007 	strb	r3, [r7, #7]
   108d4:	e1a00004 	mov	r0, r4
   108d8:	e3a01001 	mov	r1, #1	; 0x1
   108dc:	e1a02006 	mov	r2, r6
   108e0:	ebffff06 	bl	10500 <HubChangePortFeature>
   108e4:	e1a05008 	mov	r5, r8
   108e8:	eaffff99 	b	10754 <HubPortConnectionChanged+0x1c>
   108ec:	e0872108 	add	r2, r7, r8, lsl #2
   108f0:	e5d23004 	ldrb	r3, [r2, #4]
   108f4:	e5d20005 	ldrb	r0, [r2, #5]
   108f8:	e5d21006 	ldrb	r1, [r2, #6]
   108fc:	e1830400 	orr	r0, r3, r0, lsl #8
   10900:	e5d23007 	ldrb	r3, [r2, #7]
   10904:	e1800801 	orr	r0, r0, r1, lsl #16
   10908:	e1800c03 	orr	r0, r0, r3, lsl #24
   1090c:	eaffffa9 	b	107b8 <HubPortConnectionChanged+0x80>
   10910:	e3130002 	tst	r3, #2	; 0x2
   10914:	e5d90005 	ldrb	r0, [r9, #5]
   10918:	e5d93004 	ldrb	r3, [r9, #4]
   1091c:	e5d91006 	ldrb	r1, [r9, #6]
   10920:	e5d92007 	ldrb	r2, [r9, #7]
   10924:	e1833400 	orr	r3, r3, r0, lsl #8
   10928:	e1833801 	orr	r3, r3, r1, lsl #16
   1092c:	e1833c02 	orr	r3, r3, r2, lsl #24
   10930:	13a02002 	movne	r2, #2	; 0x2
   10934:	03a02001 	moveq	r2, #1	; 0x1
   10938:	e5c32004 	strb	r2, [r3, #4]
   1093c:	eaffffc3 	b	10850 <HubPortConnectionChanged+0x118>

00010940 <HubCheckConnection>:
   10940:	e92d45f8 	push	{r3, r4, r5, r6, r7, r8, sl, lr}
   10944:	e1a04000 	mov	r4, r0
   10948:	e1a05001 	mov	r5, r1
   1094c:	e590a404 	ldr	sl, [r0, #1028]
   10950:	ebfffe85 	bl	1036c <HubPortGetStatus>
   10954:	e2507000 	subs	r7, r0, #0	; 0x0
   10958:	1a000014 	bne	109b0 <HubCheckConnection+0x70>
   1095c:	e2858004 	add	r8, r5, #4	; 0x4
   10960:	e08a8108 	add	r8, sl, r8, lsl #2
   10964:	e2886004 	add	r6, r8, #4	; 0x4
   10968:	e5d63002 	ldrb	r3, [r6, #2]
   1096c:	e3130001 	tst	r3, #1	; 0x1
   10970:	1a000029 	bne	10a1c <HubCheckConnection+0xdc>
   10974:	e3130002 	tst	r3, #2	; 0x2
   10978:	1a000010 	bne	109c0 <HubCheckConnection+0x80>
   1097c:	e5d83004 	ldrb	r3, [r8, #4]
   10980:	e3130004 	tst	r3, #4	; 0x4
   10984:	1a000034 	bne	10a5c <HubCheckConnection+0x11c>
   10988:	e5d63002 	ldrb	r3, [r6, #2]
   1098c:	e3130008 	tst	r3, #8	; 0x8
   10990:	1a000028 	bne	10a38 <HubCheckConnection+0xf8>
   10994:	e3130010 	tst	r3, #16	; 0x10
   10998:	0a000004 	beq	109b0 <HubCheckConnection+0x70>
   1099c:	e1a00004 	mov	r0, r4
   109a0:	e3a01014 	mov	r1, #20	; 0x14
   109a4:	e1a02005 	mov	r2, r5
   109a8:	e3a03000 	mov	r3, #0	; 0x0
   109ac:	ebfffed3 	bl	10500 <HubChangePortFeature>
   109b0:	e1a00c07 	lsl	r0, r7, #24
   109b4:	e1a00c40 	asr	r0, r0, #24
   109b8:	e8bd45f8 	pop	{r3, r4, r5, r6, r7, r8, sl, lr}
   109bc:	e12fff1e 	bx	lr
   109c0:	e1a02005 	mov	r2, r5
   109c4:	e3a03000 	mov	r3, #0	; 0x0
   109c8:	e1a00004 	mov	r0, r4
   109cc:	e3a01011 	mov	r1, #17	; 0x11
   109d0:	ebfffeca 	bl	10500 <HubChangePortFeature>
   109d4:	e5d83004 	ldrb	r3, [r8, #4]
   109d8:	e2032003 	and	r2, r3, #3	; 0x3
   109dc:	e3520001 	cmp	r2, #1	; 0x1
   109e0:	1affffe6 	bne	10980 <HubCheckConnection+0x40>
   109e4:	e285200e 	add	r2, r5, #14	; 0xe
   109e8:	e08aa102 	add	sl, sl, r2, lsl #2
   109ec:	e5da1005 	ldrb	r1, [sl, #5]
   109f0:	e5da2004 	ldrb	r2, [sl, #4]
   109f4:	e5da0006 	ldrb	r0, [sl, #6]
   109f8:	e1822401 	orr	r2, r2, r1, lsl #8
   109fc:	e5da1007 	ldrb	r1, [sl, #7]
   10a00:	e1822800 	orr	r2, r2, r0, lsl #16
   10a04:	e1921c01 	orrs	r1, r2, r1, lsl #24
   10a08:	0affffdc 	beq	10980 <HubCheckConnection+0x40>
   10a0c:	e1a00004 	mov	r0, r4
   10a10:	e1a01005 	mov	r1, r5
   10a14:	ebffff47 	bl	10738 <HubPortConnectionChanged>
   10a18:	eaffffd7 	b	1097c <HubCheckConnection+0x3c>
   10a1c:	e1a00004 	mov	r0, r4
   10a20:	e1a01005 	mov	r1, r5
   10a24:	ebffff43 	bl	10738 <HubPortConnectionChanged>
   10a28:	e5d63002 	ldrb	r3, [r6, #2]
   10a2c:	e3130002 	tst	r3, #2	; 0x2
   10a30:	0affffd1 	beq	1097c <HubCheckConnection+0x3c>
   10a34:	eaffffe1 	b	109c0 <HubCheckConnection+0x80>
   10a38:	e3a03000 	mov	r3, #0	; 0x0
   10a3c:	e3a01013 	mov	r1, #19	; 0x13
   10a40:	e1a02005 	mov	r2, r5
   10a44:	e1a00004 	mov	r0, r4
   10a48:	ebfffeac 	bl	10500 <HubChangePortFeature>
   10a4c:	e1a00004 	mov	r0, r4
   10a50:	ebfffed9 	bl	105bc <HubPowerOn>
   10a54:	e5d63002 	ldrb	r3, [r6, #2]
   10a58:	eaffffcd 	b	10994 <HubCheckConnection+0x54>
   10a5c:	e1a00004 	mov	r0, r4
   10a60:	e3a01002 	mov	r1, #2	; 0x2
   10a64:	e1a02005 	mov	r2, r5
   10a68:	e3a03000 	mov	r3, #0	; 0x0
   10a6c:	ebfffea3 	bl	10500 <HubChangePortFeature>
   10a70:	eaffffc4 	b	10988 <HubCheckConnection+0x48>

00010a74 <HubRecursiveCheck>:
   10a74:	e92d40f8 	push	{r3, r4, r5, r6, r7, lr}
   10a78:	e5904404 	ldr	r4, [r0, #1028]
   10a7c:	e5d42011 	ldrb	r2, [r4, #17]
   10a80:	e5d43010 	ldrb	r3, [r4, #16]
   10a84:	e5d41012 	ldrb	r1, [r4, #18]
   10a88:	e1833402 	orr	r3, r3, r2, lsl #8
   10a8c:	e5d42013 	ldrb	r2, [r4, #19]
   10a90:	e1833801 	orr	r3, r3, r1, lsl #16
   10a94:	e1932c02 	orrs	r2, r3, r2, lsl #24
   10a98:	e1a06000 	mov	r6, r0
   10a9c:	0a000023 	beq	10b30 <HubRecursiveCheck+0xbc>
   10aa0:	e59f7090 	ldr	r7, [pc, #144]	; 10b38 <HubRecursiveCheck+0xc4>
   10aa4:	e3a05000 	mov	r5, #0	; 0x0
   10aa8:	ea000008 	b	10ad0 <HubRecursiveCheck+0x5c>
   10aac:	e5d42011 	ldrb	r2, [r4, #17]
   10ab0:	e5d43010 	ldrb	r3, [r4, #16]
   10ab4:	e5d41012 	ldrb	r1, [r4, #18]
   10ab8:	e1833402 	orr	r3, r3, r2, lsl #8
   10abc:	e5d42013 	ldrb	r2, [r4, #19]
   10ac0:	e1833801 	orr	r3, r3, r1, lsl #16
   10ac4:	e1833c02 	orr	r3, r3, r2, lsl #24
   10ac8:	e1530005 	cmp	r3, r5
   10acc:	9a000017 	bls	10b30 <HubRecursiveCheck+0xbc>
   10ad0:	e20510ff 	and	r1, r5, #255	; 0xff
   10ad4:	e1a00006 	mov	r0, r6
   10ad8:	ebffff98 	bl	10940 <HubCheckConnection>
   10adc:	e285300e 	add	r3, r5, #14	; 0xe
   10ae0:	e3500000 	cmp	r0, #0	; 0x0
   10ae4:	e0843103 	add	r3, r4, r3, lsl #2
   10ae8:	e2855001 	add	r5, r5, #1	; 0x1
   10aec:	1a00000f 	bne	10b30 <HubRecursiveCheck+0xbc>
   10af0:	e5d32004 	ldrb	r2, [r3, #4]
   10af4:	e5d31005 	ldrb	r1, [r3, #5]
   10af8:	e5d30006 	ldrb	r0, [r3, #6]
   10afc:	e1821401 	orr	r1, r2, r1, lsl #8
   10b00:	e5d32007 	ldrb	r2, [r3, #7]
   10b04:	e1813800 	orr	r3, r1, r0, lsl #16
   10b08:	e1930c02 	orrs	r0, r3, r2, lsl #24
   10b0c:	0affffe6 	beq	10aac <HubRecursiveCheck+0x38>
   10b10:	e5901404 	ldr	r1, [r0, #1028]
   10b14:	e3510000 	cmp	r1, #0	; 0x0
   10b18:	0affffe3 	beq	10aac <HubRecursiveCheck+0x38>
   10b1c:	e5913000 	ldr	r3, [r1]
   10b20:	e1530007 	cmp	r3, r7
   10b24:	1affffe0 	bne	10aac <HubRecursiveCheck+0x38>
   10b28:	ebffffd1 	bl	10a74 <HubRecursiveCheck>
   10b2c:	eaffffde 	b	10aac <HubRecursiveCheck+0x38>
   10b30:	e8bd40f8 	pop	{r3, r4, r5, r6, r7, lr}
   10b34:	e12fff1e 	bx	lr
   10b38:	48554230 	.word	0x48554230

00010b3c <HubScan>:
   10b3c:	e92d40f8 	push	{r3, r4, r5, r6, r7, lr}
   10b40:	e1a03181 	lsl	r3, r1, #3
   10b44:	e0832001 	add	r2, r3, r1
   10b48:	e0802002 	add	r2, r0, r2
   10b4c:	e2822030 	add	r2, r2, #48	; 0x30
   10b50:	e5d22008 	ldrb	r2, [r2, #8]
   10b54:	e3520001 	cmp	r2, #1	; 0x1
   10b58:	e1a06000 	mov	r6, r0
   10b5c:	1a000072 	bne	10d2c <HubScan+0x1f0>
   10b60:	e0613003 	rsb	r3, r1, r3
   10b64:	e0803203 	add	r3, r0, r3, lsl #4
   10b68:	e5d3207e 	ldrb	r2, [r3, #126]
   10b6c:	e1b023a2 	lsrs	r2, r2, #7
   10b70:	e2833078 	add	r3, r3, #120	; 0x78
   10b74:	0a00006c 	beq	10d2c <HubScan+0x1f0>
   10b78:	e5d33007 	ldrb	r3, [r3, #7]
   10b7c:	e2033003 	and	r3, r3, #3	; 0x3
   10b80:	e3530003 	cmp	r3, #3	; 0x3
   10b84:	1a000068 	bne	10d2c <HubScan+0x1f0>
   10b88:	e59f31b8 	ldr	r3, [pc, #440]	; 10d48 <HubScan+0x20c>
   10b8c:	e5803010 	str	r3, [r0, #16]
   10b90:	e59f31b4 	ldr	r3, [pc, #436]	; 10d4c <HubScan+0x210>
   10b94:	e580300c 	str	r3, [r0, #12]
   10b98:	e3a00064 	mov	r0, #100	; 0x64
   10b9c:	ebfff0ae 	bl	ce5c <MemoryAllocate>
   10ba0:	e3500000 	cmp	r0, #0	; 0x0
   10ba4:	e1a05000 	mov	r5, r0
   10ba8:	e5860404 	str	r0, [r6, #1028]
   10bac:	0a000063 	beq	10d40 <HubScan+0x204>
   10bb0:	e5903004 	ldr	r3, [r0, #4]
   10bb4:	e3a03064 	mov	r3, #100	; 0x64
   10bb8:	e5803004 	str	r3, [r0, #4]
   10bbc:	e5903000 	ldr	r3, [r0]
   10bc0:	e59f3188 	ldr	r3, [pc, #392]	; 10d50 <HubScan+0x214>
   10bc4:	e3a04000 	mov	r4, #0	; 0x0
   10bc8:	e5803000 	str	r3, [r0]
   10bcc:	e1a02004 	mov	r2, r4
   10bd0:	e284300e 	add	r3, r4, #14	; 0xe
   10bd4:	e2844001 	add	r4, r4, #1	; 0x1
   10bd8:	e0853103 	add	r3, r5, r3, lsl #2
   10bdc:	e354000a 	cmp	r4, #10	; 0xa
   10be0:	e5c32004 	strb	r2, [r3, #4]
   10be4:	e5c32005 	strb	r2, [r3, #5]
   10be8:	e5c32006 	strb	r2, [r3, #6]
   10bec:	e5c32007 	strb	r2, [r3, #7]
   10bf0:	1afffff6 	bne	10bd0 <HubScan+0x94>
   10bf4:	e1a00006 	mov	r0, r6
   10bf8:	ebfffd67 	bl	1019c <HubReadDescriptor>
   10bfc:	e3500000 	cmp	r0, #0	; 0x0
   10c00:	e1a07000 	mov	r7, r0
   10c04:	1a000019 	bne	10c70 <HubScan+0x134>
   10c08:	e5d5200d 	ldrb	r2, [r5, #13]
   10c0c:	e5d5300c 	ldrb	r3, [r5, #12]
   10c10:	e5d5100e 	ldrb	r1, [r5, #14]
   10c14:	e1833402 	orr	r3, r3, r2, lsl #8
   10c18:	e5d5200f 	ldrb	r2, [r5, #15]
   10c1c:	e1833801 	orr	r3, r3, r1, lsl #16
   10c20:	e1833c02 	orr	r3, r3, r2, lsl #24
   10c24:	e5d32002 	ldrb	r2, [r3, #2]
   10c28:	e352000a 	cmp	r2, #10	; 0xa
   10c2c:	91a01c22 	lsrls	r1, r2, #24
   10c30:	95c52010 	strbls	r2, [r5, #16]
   10c34:	93a02000 	movls	r2, #0	; 0x0
   10c38:	95c52011 	strbls	r2, [r5, #17]
   10c3c:	95c52012 	strbls	r2, [r5, #18]
   10c40:	85c54010 	strbhi	r4, [r5, #16]
   10c44:	85c50011 	strbhi	r0, [r5, #17]
   10c48:	85c50012 	strbhi	r0, [r5, #18]
   10c4c:	85c50013 	strbhi	r0, [r5, #19]
   10c50:	95c51013 	strbls	r1, [r5, #19]
   10c54:	e5d33003 	ldrb	r3, [r3, #3]
   10c58:	e2032003 	and	r2, r3, #3	; 0x3
   10c5c:	e3520001 	cmp	r2, #1	; 0x1
   10c60:	9a000006 	bls	10c80 <HubScan+0x144>
   10c64:	e1a00006 	mov	r0, r6
   10c68:	ebfffd14 	bl	100c0 <HubDeallocate>
   10c6c:	e3a070fb 	mov	r7, #251	; 0xfb
   10c70:	e1a00c07 	lsl	r0, r7, #24
   10c74:	e1a00c40 	asr	r0, r0, #24
   10c78:	e8bd40f8 	pop	{r3, r4, r5, r6, r7, lr}
   10c7c:	e12fff1e 	bx	lr
   10c80:	e1a031a3 	lsr	r3, r3, #3
   10c84:	e2033003 	and	r3, r3, #3	; 0x3
   10c88:	e3530001 	cmp	r3, #1	; 0x1
   10c8c:	e1a00006 	mov	r0, r6
   10c90:	9a000002 	bls	10ca0 <HubScan+0x164>
   10c94:	ebfffd09 	bl	100c0 <HubDeallocate>
   10c98:	e3a070fb 	mov	r7, #251	; 0xfb
   10c9c:	eafffff3 	b	10c70 <HubScan+0x134>
   10ca0:	ebfffd7b 	bl	10294 <HubGetStatus>
   10ca4:	e2507000 	subs	r7, r0, #0	; 0x0
   10ca8:	1afffff0 	bne	10c70 <HubScan+0x134>
   10cac:	e1a00006 	mov	r0, r6
   10cb0:	ebfffe41 	bl	105bc <HubPowerOn>
   10cb4:	e2507000 	subs	r7, r0, #0	; 0x0
   10cb8:	e1a00006 	mov	r0, r6
   10cbc:	1a00001d 	bne	10d38 <HubScan+0x1fc>
   10cc0:	ebfffd73 	bl	10294 <HubGetStatus>
   10cc4:	e2507000 	subs	r7, r0, #0	; 0x0
   10cc8:	1a000019 	bne	10d34 <HubScan+0x1f8>
   10ccc:	e5d52011 	ldrb	r2, [r5, #17]
   10cd0:	e5d53010 	ldrb	r3, [r5, #16]
   10cd4:	e5d51012 	ldrb	r1, [r5, #18]
   10cd8:	e1833402 	orr	r3, r3, r2, lsl #8
   10cdc:	e5d52013 	ldrb	r2, [r5, #19]
   10ce0:	e1833801 	orr	r3, r3, r1, lsl #16
   10ce4:	e1932c02 	orrs	r2, r3, r2, lsl #24
   10ce8:	11a04007 	movne	r4, r7
   10cec:	0affffdf 	beq	10c70 <HubScan+0x134>
   10cf0:	e1a01004 	mov	r1, r4
   10cf4:	e1a00006 	mov	r0, r6
   10cf8:	ebffff10 	bl	10940 <HubCheckConnection>
   10cfc:	e5d52011 	ldrb	r2, [r5, #17]
   10d00:	e5d53010 	ldrb	r3, [r5, #16]
   10d04:	e5d51012 	ldrb	r1, [r5, #18]
   10d08:	e1833402 	orr	r3, r3, r2, lsl #8
   10d0c:	e5d52013 	ldrb	r2, [r5, #19]
   10d10:	e2844001 	add	r4, r4, #1	; 0x1
   10d14:	e1833801 	orr	r3, r3, r1, lsl #16
   10d18:	e20440ff 	and	r4, r4, #255	; 0xff
   10d1c:	e1833c02 	orr	r3, r3, r2, lsl #24
   10d20:	e1540003 	cmp	r4, r3
   10d24:	3afffff1 	bcc	10cf0 <HubScan+0x1b4>
   10d28:	eaffffd0 	b	10c70 <HubScan+0x134>
   10d2c:	e3a070fb 	mov	r7, #251	; 0xfb
   10d30:	eaffffce 	b	10c70 <HubScan+0x134>
   10d34:	e1a00006 	mov	r0, r6
   10d38:	ebfffce0 	bl	100c0 <HubDeallocate>
   10d3c:	eaffffcb 	b	10c70 <HubScan+0x134>
   10d40:	e3a070f9 	mov	r7, #249	; 0xf9
   10d44:	eaffffc9 	b	10c70 <HubScan+0x134>
   10d48:	000100c0 	.word	0x000100c0
   10d4c:	00010020 	.word	0x00010020
   10d50:	48554230 	.word	0x48554230

00010d54 <WriteThroughRegMask>:
   10d54:	e59f3078 	ldr	r3, [pc, #120]	; 10dd4 <WriteThroughRegMask+0x80>
   10d58:	e593c000 	ldr	ip, [r3]
   10d5c:	e59f2074 	ldr	r2, [pc, #116]	; 10dd8 <WriteThroughRegMask+0x84>
   10d60:	e06cc000 	rsb	ip, ip, r0
   10d64:	e15c0002 	cmp	ip, r2
   10d68:	9a000014 	bls	10dc0 <WriteThroughRegMask+0x6c>
   10d6c:	e593c004 	ldr	ip, [r3, #4]
   10d70:	e06cc000 	rsb	ip, ip, r0
   10d74:	e15c0002 	cmp	ip, r2
   10d78:	8a000009 	bhi	10da4 <WriteThroughRegMask+0x50>
   10d7c:	e35c0040 	cmp	ip, #64	; 0x40
   10d80:	e59f3054 	ldr	r3, [pc, #84]	; 10ddc <WriteThroughRegMask+0x88>
   10d84:	03811a1f 	orreq	r1, r1, #126976	; 0x1f000
   10d88:	e5902000 	ldr	r2, [r0]
   10d8c:	03811d05 	orreq	r1, r1, #320	; 0x140
   10d90:	13e01000 	mvnne	r1, #0	; 0x0
   10d94:	e5933000 	ldr	r3, [r3]
   10d98:	e0011002 	and	r1, r1, r2
   10d9c:	e783100c 	str	r1, [r3, ip]
   10da0:	e12fff1e 	bx	lr
   10da4:	e5933008 	ldr	r3, [r3, #8]
   10da8:	e1530000 	cmp	r3, r0
   10dac:	05932000 	ldreq	r2, [r3]
   10db0:	059f3028 	ldreq	r3, [pc, #40]	; 10de0 <WriteThroughRegMask+0x8c>
   10db4:	05933000 	ldreq	r3, [r3]
   10db8:	05832000 	streq	r2, [r3]
   10dbc:	e12fff1e 	bx	lr
   10dc0:	e59f301c 	ldr	r3, [pc, #28]	; 10de4 <WriteThroughRegMask+0x90>
   10dc4:	e5902000 	ldr	r2, [r0]
   10dc8:	e5933000 	ldr	r3, [r3]
   10dcc:	e783200c 	str	r2, [r3, ip]
   10dd0:	e12fff1e 	bx	lr
   10dd4:	0001a630 	.word	0x0001a630
   10dd8:	000003ff 	.word	0x000003ff
   10ddc:	0001a648 	.word	0x0001a648
   10de0:	0001a64c 	.word	0x0001a64c
   10de4:	0001a644 	.word	0x0001a644

00010de8 <WriteThroughReg>:
   10de8:	e3a01000 	mov	r1, #0	; 0x0
   10dec:	eaffffd8 	b	10d54 <WriteThroughRegMask>

00010df0 <ReadBackReg>:
   10df0:	e59f3088 	ldr	r3, [pc, #136]	; 10e80 <ReadBackReg+0x90>
   10df4:	e5932000 	ldr	r2, [r3]
   10df8:	e59f1084 	ldr	r1, [pc, #132]	; 10e84 <ReadBackReg+0x94>
   10dfc:	e0622000 	rsb	r2, r2, r0
   10e00:	e1520001 	cmp	r2, r1
   10e04:	8a000006 	bhi	10e24 <ReadBackReg+0x34>
   10e08:	e59f3078 	ldr	r3, [pc, #120]	; 10e88 <ReadBackReg+0x98>
   10e0c:	e3520044 	cmp	r2, #68	; 0x44
   10e10:	e5933000 	ldr	r3, [r3]
   10e14:	0a00000d 	beq	10e50 <ReadBackReg+0x60>
   10e18:	e7933002 	ldr	r3, [r3, r2]
   10e1c:	e5803000 	str	r3, [r0]
   10e20:	e12fff1e 	bx	lr
   10e24:	e5932004 	ldr	r2, [r3, #4]
   10e28:	e0622000 	rsb	r2, r2, r0
   10e2c:	e1520001 	cmp	r2, r1
   10e30:	9a00000f 	bls	10e74 <ReadBackReg+0x84>
   10e34:	e5933008 	ldr	r3, [r3, #8]
   10e38:	e1530000 	cmp	r3, r0
   10e3c:	059f2048 	ldreq	r2, [pc, #72]	; 10e8c <ReadBackReg+0x9c>
   10e40:	05922000 	ldreq	r2, [r2]
   10e44:	05922000 	ldreq	r2, [r2]
   10e48:	05832000 	streq	r2, [r3]
   10e4c:	e12fff1e 	bx	lr
   10e50:	e5932044 	ldr	r2, [r3, #68]
   10e54:	e5802000 	str	r2, [r0]
   10e58:	e5932048 	ldr	r2, [r3, #72]
   10e5c:	e5802004 	str	r2, [r0, #4]
   10e60:	e593204c 	ldr	r2, [r3, #76]
   10e64:	e5802008 	str	r2, [r0, #8]
   10e68:	e5933050 	ldr	r3, [r3, #80]
   10e6c:	e580300c 	str	r3, [r0, #12]
   10e70:	e12fff1e 	bx	lr
   10e74:	e59f3014 	ldr	r3, [pc, #20]	; 10e90 <ReadBackReg+0xa0>
   10e78:	e5933000 	ldr	r3, [r3]
   10e7c:	eaffffe5 	b	10e18 <ReadBackReg+0x28>
   10e80:	0001a630 	.word	0x0001a630
   10e84:	000003ff 	.word	0x000003ff
   10e88:	0001a644 	.word	0x0001a644
   10e8c:	0001a64c 	.word	0x0001a64c
   10e90:	0001a648 	.word	0x0001a648

00010e94 <ClearReg>:
   10e94:	e59f3058 	ldr	r3, [pc, #88]	; 10ef4 <ClearReg+0x60>
   10e98:	e5931000 	ldr	r1, [r3]
   10e9c:	e59f2054 	ldr	r2, [pc, #84]	; 10ef8 <ClearReg+0x64>
   10ea0:	e0611000 	rsb	r1, r1, r0
   10ea4:	e1510002 	cmp	r1, r2
   10ea8:	8a000006 	bhi	10ec8 <ClearReg+0x34>
   10eac:	e3a03000 	mov	r3, #0	; 0x0
   10eb0:	e3510044 	cmp	r1, #68	; 0x44
   10eb4:	e5803000 	str	r3, [r0]
   10eb8:	05803004 	streq	r3, [r0, #4]
   10ebc:	05803008 	streq	r3, [r0, #8]
   10ec0:	0580300c 	streq	r3, [r0, #12]
   10ec4:	e12fff1e 	bx	lr
   10ec8:	e5931004 	ldr	r1, [r3, #4]
   10ecc:	e0611000 	rsb	r1, r1, r0
   10ed0:	e1510002 	cmp	r1, r2
   10ed4:	93a03000 	movls	r3, #0	; 0x0
   10ed8:	95803000 	strls	r3, [r0]
   10edc:	912fff1e 	bxls	lr
   10ee0:	e5933008 	ldr	r3, [r3, #8]
   10ee4:	e1530000 	cmp	r3, r0
   10ee8:	03a02000 	moveq	r2, #0	; 0x0
   10eec:	05832000 	streq	r2, [r3]
   10ef0:	e12fff1e 	bx	lr
   10ef4:	0001a630 	.word	0x0001a630
   10ef8:	000003ff 	.word	0x000003ff

00010efc <SetReg>:
   10efc:	e59f3084 	ldr	r3, [pc, #132]	; 10f88 <SetReg+0x8c>
   10f00:	e5931000 	ldr	r1, [r3]
   10f04:	e59f2080 	ldr	r2, [pc, #128]	; 10f8c <SetReg+0x90>
   10f08:	e0611000 	rsb	r1, r1, r0
   10f0c:	e1510002 	cmp	r1, r2
   10f10:	8a000006 	bhi	10f30 <SetReg+0x34>
   10f14:	e3e03000 	mvn	r3, #0	; 0x0
   10f18:	e3510044 	cmp	r1, #68	; 0x44
   10f1c:	e5803000 	str	r3, [r0]
   10f20:	05803004 	streq	r3, [r0, #4]
   10f24:	05803008 	streq	r3, [r0, #8]
   10f28:	0580300c 	streq	r3, [r0, #12]
   10f2c:	e12fff1e 	bx	lr
   10f30:	e5931004 	ldr	r1, [r3, #4]
   10f34:	e0611000 	rsb	r1, r1, r0
   10f38:	e1510002 	cmp	r1, r2
   10f3c:	8a00000a 	bhi	10f6c <SetReg+0x70>
   10f40:	e2413c01 	sub	r3, r1, #256	; 0x100
   10f44:	e59f2044 	ldr	r2, [pc, #68]	; 10f90 <SetReg+0x94>
   10f48:	e2433001 	sub	r3, r3, #1	; 0x1
   10f4c:	e1530002 	cmp	r3, r2
   10f50:	8a000002 	bhi	10f60 <SetReg+0x64>
   10f54:	e201101f 	and	r1, r1, #31	; 0x1f
   10f58:	e3510008 	cmp	r1, #8	; 0x8
   10f5c:	0a000007 	beq	10f80 <SetReg+0x84>
   10f60:	e3e03000 	mvn	r3, #0	; 0x0
   10f64:	e5803000 	str	r3, [r0]
   10f68:	e12fff1e 	bx	lr
   10f6c:	e5933008 	ldr	r3, [r3, #8]
   10f70:	e1530000 	cmp	r3, r0
   10f74:	03e02000 	mvneq	r2, #0	; 0x0
   10f78:	05832000 	streq	r2, [r3]
   10f7c:	e12fff1e 	bx	lr
   10f80:	e59f300c 	ldr	r3, [pc, #12]	; 10f94 <SetReg+0x98>
   10f84:	eafffff6 	b	10f64 <SetReg+0x68>
   10f88:	0001a630 	.word	0x0001a630
   10f8c:	000003ff 	.word	0x000003ff
   10f90:	000001fe 	.word	0x000001fe
   10f94:	00003fff 	.word	0x00003fff

00010f98 <HcdReset>:
   10f98:	e92d4038 	push	{r3, r4, r5, lr}
   10f9c:	e59f50a0 	ldr	r5, [pc, #160]	; 11044 <HcdReset+0xac>
   10fa0:	e5950000 	ldr	r0, [r5]
   10fa4:	e2800010 	add	r0, r0, #16	; 0x10
   10fa8:	ebffff90 	bl	10df0 <ReadBackReg>
   10fac:	e3a04601 	mov	r4, #1048576	; 0x100000
   10fb0:	ea000002 	b	10fc0 <HcdReset+0x28>
   10fb4:	ebffff8d 	bl	10df0 <ReadBackReg>
   10fb8:	e2544001 	subs	r4, r4, #1	; 0x1
   10fbc:	0a00001e 	beq	1103c <HcdReset+0xa4>
   10fc0:	e5953000 	ldr	r3, [r5]
   10fc4:	e5d32013 	ldrb	r2, [r3, #19]
   10fc8:	e3120080 	tst	r2, #128	; 0x80
   10fcc:	e2830010 	add	r0, r3, #16	; 0x10
   10fd0:	0afffff7 	beq	10fb4 <HcdReset+0x1c>
   10fd4:	e5d32010 	ldrb	r2, [r3, #16]
   10fd8:	e1a00003 	mov	r0, r3
   10fdc:	e3823001 	orr	r3, r2, #1	; 0x1
   10fe0:	e5e03010 	strb	r3, [r0, #16]!
   10fe4:	ebffff7f 	bl	10de8 <WriteThroughReg>
   10fe8:	e59f3054 	ldr	r3, [pc, #84]	; 11044 <HcdReset+0xac>
   10fec:	e5930000 	ldr	r0, [r3]
   10ff0:	e2800010 	add	r0, r0, #16	; 0x10
   10ff4:	ebffff7d 	bl	10df0 <ReadBackReg>
   10ff8:	e3a04601 	mov	r4, #1048576	; 0x100000
   10ffc:	ea000002 	b	1100c <HcdReset+0x74>
   11000:	ebffff7a 	bl	10df0 <ReadBackReg>
   11004:	e2544001 	subs	r4, r4, #1	; 0x1
   11008:	0a00000b 	beq	1103c <HcdReset+0xa4>
   1100c:	e5953000 	ldr	r3, [r5]
   11010:	e5d32010 	ldrb	r2, [r3, #16]
   11014:	e2122001 	ands	r2, r2, #1	; 0x1
   11018:	e2830010 	add	r0, r3, #16	; 0x10
   1101c:	1afffff7 	bne	11000 <HcdReset+0x68>
   11020:	e5d33013 	ldrb	r3, [r3, #19]
   11024:	e3130080 	tst	r3, #128	; 0x80
   11028:	0afffff4 	beq	11000 <HcdReset+0x68>
   1102c:	e1a00c02 	lsl	r0, r2, #24
   11030:	e1a00c40 	asr	r0, r0, #24
   11034:	e8bd4038 	pop	{r3, r4, r5, lr}
   11038:	e12fff1e 	bx	lr
   1103c:	e3a020fc 	mov	r2, #252	; 0xfc
   11040:	eafffff9 	b	1102c <HcdReset+0x94>
   11044:	0001a630 	.word	0x0001a630

00011048 <HcdTransmitFifoFlush>:
   11048:	e92d4038 	push	{r3, r4, r5, lr}
   1104c:	e59f5084 	ldr	r5, [pc, #132]	; 110d8 <HcdTransmitFifoFlush+0x90>
   11050:	e5953000 	ldr	r3, [r5]
   11054:	e1a04000 	mov	r4, r0
   11058:	e2830010 	add	r0, r3, #16	; 0x10
   1105c:	ebffff8c 	bl	10e94 <ClearReg>
   11060:	e5953000 	ldr	r3, [r5]
   11064:	e5d32010 	ldrb	r2, [r3, #16]
   11068:	e204401f 	and	r4, r4, #31	; 0x1f
   1106c:	e3c22d1f 	bic	r2, r2, #1984	; 0x7c0
   11070:	e1824304 	orr	r4, r2, r4, lsl #6
   11074:	e5c34010 	strb	r4, [r3, #16]
   11078:	e5d32010 	ldrb	r2, [r3, #16]
   1107c:	e1a00003 	mov	r0, r3
   11080:	e3823020 	orr	r3, r2, #32	; 0x20
   11084:	e5e03010 	strb	r3, [r0, #16]!
   11088:	ebffff56 	bl	10de8 <WriteThroughReg>
   1108c:	e5950000 	ldr	r0, [r5]
   11090:	e2800010 	add	r0, r0, #16	; 0x10
   11094:	ebffff55 	bl	10df0 <ReadBackReg>
   11098:	e3a04601 	mov	r4, #1048576	; 0x100000
   1109c:	ea000002 	b	110ac <HcdTransmitFifoFlush+0x64>
   110a0:	ebffff52 	bl	10df0 <ReadBackReg>
   110a4:	e2544001 	subs	r4, r4, #1	; 0x1
   110a8:	0a000008 	beq	110d0 <HcdTransmitFifoFlush+0x88>
   110ac:	e5950000 	ldr	r0, [r5]
   110b0:	e5d03010 	ldrb	r3, [r0, #16]
   110b4:	e2133020 	ands	r3, r3, #32	; 0x20
   110b8:	e2800010 	add	r0, r0, #16	; 0x10
   110bc:	1afffff7 	bne	110a0 <HcdTransmitFifoFlush+0x58>
   110c0:	e1a00c03 	lsl	r0, r3, #24
   110c4:	e1a00c40 	asr	r0, r0, #24
   110c8:	e8bd4038 	pop	{r3, r4, r5, lr}
   110cc:	e12fff1e 	bx	lr
   110d0:	e3a030fc 	mov	r3, #252	; 0xfc
   110d4:	eafffff9 	b	110c0 <HcdTransmitFifoFlush+0x78>
   110d8:	0001a630 	.word	0x0001a630

000110dc <HcdReceiveFifoFlush>:
   110dc:	e92d4038 	push	{r3, r4, r5, lr}
   110e0:	e59f5068 	ldr	r5, [pc, #104]	; 11150 <HcdReceiveFifoFlush+0x74>
   110e4:	e5950000 	ldr	r0, [r5]
   110e8:	e2800010 	add	r0, r0, #16	; 0x10
   110ec:	ebffff68 	bl	10e94 <ClearReg>
   110f0:	e5950000 	ldr	r0, [r5]
   110f4:	e5d03010 	ldrb	r3, [r0, #16]
   110f8:	e3833010 	orr	r3, r3, #16	; 0x10
   110fc:	e5e03010 	strb	r3, [r0, #16]!
   11100:	ebffff38 	bl	10de8 <WriteThroughReg>
   11104:	e5950000 	ldr	r0, [r5]
   11108:	e2800010 	add	r0, r0, #16	; 0x10
   1110c:	ebffff37 	bl	10df0 <ReadBackReg>
   11110:	e3a04601 	mov	r4, #1048576	; 0x100000
   11114:	ea000002 	b	11124 <HcdReceiveFifoFlush+0x48>
   11118:	ebffff34 	bl	10df0 <ReadBackReg>
   1111c:	e2544001 	subs	r4, r4, #1	; 0x1
   11120:	0a000008 	beq	11148 <HcdReceiveFifoFlush+0x6c>
   11124:	e5950000 	ldr	r0, [r5]
   11128:	e5d03010 	ldrb	r3, [r0, #16]
   1112c:	e2133010 	ands	r3, r3, #16	; 0x10
   11130:	e2800010 	add	r0, r0, #16	; 0x10
   11134:	1afffff7 	bne	11118 <HcdReceiveFifoFlush+0x3c>
   11138:	e1a00c03 	lsl	r0, r3, #24
   1113c:	e1a00c40 	asr	r0, r0, #24
   11140:	e8bd4038 	pop	{r3, r4, r5, lr}
   11144:	e12fff1e 	bx	lr
   11148:	e3a030fc 	mov	r3, #252	; 0xfc
   1114c:	eafffff9 	b	11138 <HcdReceiveFifoFlush+0x5c>
   11150:	0001a630 	.word	0x0001a630

00011154 <HcdPrepareChannel>:
   11154:	e92d4ff0 	push	{r4, r5, r6, r7, r8, r9, sl, fp, lr}
   11158:	e59fb308 	ldr	fp, [pc, #776]	; 11468 <HcdPrepareChannel+0x314>
   1115c:	e59bc000 	ldr	ip, [fp]
   11160:	e59cc048 	ldr	ip, [ip, #72]
   11164:	e1a0c72c 	lsr	ip, ip, #14
   11168:	e20cc00f 	and	ip, ip, #15	; 0xf
   1116c:	e151000c 	cmp	r1, ip
   11170:	e24dd00c 	sub	sp, sp, #12	; 0xc
   11174:	e1a04001 	mov	r4, r1
   11178:	e1a0a000 	mov	sl, r0
   1117c:	e1a07002 	mov	r7, r2
   11180:	e1a08003 	mov	r8, r3
   11184:	ca0000b5 	bgt	11460 <HcdPrepareChannel+0x30c>
   11188:	e1a05281 	lsl	r5, r1, #5
   1118c:	e59b0004 	ldr	r0, [fp, #4]
   11190:	e2856f42 	add	r6, r5, #264	; 0x108
   11194:	e0800006 	add	r0, r0, r6
   11198:	ebffff57 	bl	10efc <SetReg>
   1119c:	e59b0004 	ldr	r0, [fp, #4]
   111a0:	e0800006 	add	r0, r0, r6
   111a4:	ebffff0f 	bl	10de8 <WriteThroughReg>
   111a8:	e2844008 	add	r4, r4, #8	; 0x8
   111ac:	e59b0004 	ldr	r0, [fp, #4]
   111b0:	e1a06284 	lsl	r6, r4, #5
   111b4:	e0800006 	add	r0, r0, r6
   111b8:	ebffff35 	bl	10e94 <ClearReg>
   111bc:	e59b1004 	ldr	r1, [fp, #4]
   111c0:	e5dd2031 	ldrb	r2, [sp, #49]
   111c4:	e7913284 	ldr	r3, [r1, r4, lsl #5]
   111c8:	e202207f 	and	r2, r2, #127	; 0x7f
   111cc:	e3c3357f 	bic	r3, r3, #532676608	; 0x1fc00000
   111d0:	e1833b02 	orr	r3, r3, r2, lsl #22
   111d4:	e7813284 	str	r3, [r1, r4, lsl #5]
   111d8:	e7912284 	ldr	r2, [r1, r4, lsl #5]
   111dc:	e5dd3030 	ldrb	r3, [sp, #48]
   111e0:	e3c22b1e 	bic	r2, r2, #30720	; 0x7800
   111e4:	e1a03223 	lsr	r3, r3, #4
   111e8:	e1823583 	orr	r3, r2, r3, lsl #11
   111ec:	e7813284 	str	r3, [r1, r4, lsl #5]
   111f0:	e0813006 	add	r3, r1, r6
   111f4:	e5dd2032 	ldrb	r2, [sp, #50]
   111f8:	e5d30001 	ldrb	r0, [r3, #1]
   111fc:	e1a02282 	lsl	r2, r2, #5
   11200:	e3c00080 	bic	r0, r0, #128	; 0x80
   11204:	e2022080 	and	r2, r2, #128	; 0x80
   11208:	e1822000 	orr	r2, r2, r0
   1120c:	e5c32001 	strb	r2, [r3, #1]
   11210:	e5dd2030 	ldrb	r2, [sp, #48]
   11214:	e202200c 	and	r2, r2, #12	; 0xc
   11218:	e5d30002 	ldrb	r0, [r3, #2]
   1121c:	e252c008 	subs	ip, r2, #8	; 0x8
   11220:	e27c9000 	rsbs	r9, ip, #0	; 0x0
   11224:	e0b9900c 	adcs	r9, r9, ip
   11228:	e3c00002 	bic	r0, r0, #2	; 0x2
   1122c:	e1800089 	orr	r0, r0, r9, lsl #1
   11230:	e5c30002 	strb	r0, [r3, #2]
   11234:	e5d30002 	ldrb	r0, [r3, #2]
   11238:	e5ddc032 	ldrb	ip, [sp, #50]
   1123c:	e3c0000c 	bic	r0, r0, #12	; 0xc
   11240:	e20cc003 	and	ip, ip, #3	; 0x3
   11244:	e180010c 	orr	r0, r0, ip, lsl #2
   11248:	e5c30002 	strb	r0, [r3, #2]
   1124c:	e5dd3030 	ldrb	r3, [sp, #48]
   11250:	e2133003 	ands	r3, r3, #3	; 0x3
   11254:	e20990ff 	and	r9, r9, #255	; 0xff
   11258:	03a03008 	moveq	r3, #8	; 0x8
   1125c:	0a000005 	beq	11278 <HcdPrepareChannel+0x124>
   11260:	e3530001 	cmp	r3, #1	; 0x1
   11264:	03a03010 	moveq	r3, #16	; 0x10
   11268:	0a000002 	beq	11278 <HcdPrepareChannel+0x124>
   1126c:	e3530002 	cmp	r3, #2	; 0x2
   11270:	13a03040 	movne	r3, #64	; 0x40
   11274:	03a03020 	moveq	r3, #32	; 0x20
   11278:	e7910284 	ldr	r0, [r1, r4, lsl #5]
   1127c:	e3c00e7f 	bic	r0, r0, #2032	; 0x7f0
   11280:	e3c0000f 	bic	r0, r0, #15	; 0xf
   11284:	e1803003 	orr	r3, r0, r3
   11288:	e7813284 	str	r3, [r1, r4, lsl #5]
   1128c:	e1a06284 	lsl	r6, r4, #5
   11290:	e0811006 	add	r1, r1, r6
   11294:	e5d13003 	ldrb	r3, [r1, #3]
   11298:	e3c33080 	bic	r3, r3, #128	; 0x80
   1129c:	e5c13003 	strb	r3, [r1, #3]
   112a0:	e5d13003 	ldrb	r3, [r1, #3]
   112a4:	e3c33040 	bic	r3, r3, #64	; 0x40
   112a8:	e5c13003 	strb	r3, [r1, #3]
   112ac:	e1a00001 	mov	r0, r1
   112b0:	e58d2004 	str	r2, [sp, #4]
   112b4:	ebfffecb 	bl	10de8 <WriteThroughReg>
   112b8:	e59b0004 	ldr	r0, [fp, #4]
   112bc:	e0800006 	add	r0, r0, r6
   112c0:	e2800004 	add	r0, r0, #4	; 0x4
   112c4:	ebfffef2 	bl	10e94 <ClearReg>
   112c8:	e59d2004 	ldr	r2, [sp, #4]
   112cc:	e59fb194 	ldr	fp, [pc, #404]	; 11468 <HcdPrepareChannel+0x314>
   112d0:	e3520000 	cmp	r2, #0	; 0x0
   112d4:	e59b3004 	ldr	r3, [fp, #4]
   112d8:	1a000036 	bne	113b8 <HcdPrepareChannel+0x264>
   112dc:	e0830006 	add	r0, r3, r6
   112e0:	e2800004 	add	r0, r0, #4	; 0x4
   112e4:	ebfffebf 	bl	10de8 <WriteThroughReg>
   112e8:	e59b0004 	ldr	r0, [fp, #4]
   112ec:	e2853e11 	add	r3, r5, #272	; 0x110
   112f0:	e0800003 	add	r0, r0, r3
   112f4:	ebfffee6 	bl	10e94 <ClearReg>
   112f8:	e59b6004 	ldr	r6, [fp, #4]
   112fc:	e0862005 	add	r2, r6, r5
   11300:	e5921110 	ldr	r1, [r2, #272]
   11304:	e3c734ff 	bic	r3, r7, #-16777216	; 0xff000000
   11308:	e3c3373e 	bic	r3, r3, #16252928	; 0xf80000
   1130c:	e1a019a1 	lsr	r1, r1, #19
   11310:	e1833981 	orr	r3, r3, r1, lsl #19
   11314:	e5823110 	str	r3, [r2, #272]
   11318:	e7960284 	ldr	r0, [r6, r4, lsl #5]
   1131c:	e7961284 	ldr	r1, [r6, r4, lsl #5]
   11320:	e1a00a80 	lsl	r0, r0, #21
   11324:	e1a00aa0 	lsr	r0, r0, #21
   11328:	e1a01a81 	lsl	r1, r1, #21
   1132c:	e2400001 	sub	r0, r0, #1	; 0x1
   11330:	e0800007 	add	r0, r0, r7
   11334:	e1a01aa1 	lsr	r1, r1, #21
   11338:	eb000611 	bl	12b84 <__aeabi_uidiv>
   1133c:	e0863005 	add	r3, r6, r5
   11340:	e5932110 	ldr	r2, [r3, #272]
   11344:	e3c2257f 	bic	r2, r2, #532676608	; 0x1fc00000
   11348:	e1a00b00 	lsl	r0, r0, #22
   1134c:	e3c2270e 	bic	r2, r2, #3670016	; 0x380000
   11350:	e18221a0 	orr	r2, r2, r0, lsr #3
   11354:	e5832110 	str	r2, [r3, #272]
   11358:	e0863005 	add	r3, r6, r5
   1135c:	e5932110 	ldr	r2, [r3, #272]
   11360:	e1a02182 	lsl	r2, r2, #3
   11364:	e1b02b22 	lsrs	r2, r2, #22
   11368:	05932110 	ldreq	r2, [r3, #272]
   1136c:	03c2257f 	biceq	r2, r2, #532676608	; 0x1fc00000
   11370:	03c2270e 	biceq	r2, r2, #3670016	; 0x380000
   11374:	03822702 	orreq	r2, r2, #524288	; 0x80000
   11378:	05832110 	streq	r2, [r3, #272]
   1137c:	e0863005 	add	r3, r6, r5
   11380:	e5d32113 	ldrb	r2, [r3, #275]
   11384:	e2088003 	and	r8, r8, #3	; 0x3
   11388:	e3c22060 	bic	r2, r2, #96	; 0x60
   1138c:	e1828288 	orr	r8, r2, r8, lsl #5
   11390:	e2850e11 	add	r0, r5, #272	; 0x110
   11394:	e0860000 	add	r0, r6, r0
   11398:	e5c38113 	strb	r8, [r3, #275]
   1139c:	ebfffe91 	bl	10de8 <WriteThroughReg>
   113a0:	e3a00000 	mov	r0, #0	; 0x0
   113a4:	e1a00c00 	lsl	r0, r0, #24
   113a8:	e1a00c40 	asr	r0, r0, #24
   113ac:	e28dd00c 	add	sp, sp, #12	; 0xc
   113b0:	e8bd4ff0 	pop	{r4, r5, r6, r7, r8, r9, sl, fp, lr}
   113b4:	e12fff1e 	bx	lr
   113b8:	e0836006 	add	r6, r3, r6
   113bc:	e2860004 	add	r0, r6, #4	; 0x4
   113c0:	e5d03003 	ldrb	r3, [r0, #3]
   113c4:	e3833080 	orr	r3, r3, #128	; 0x80
   113c8:	e5c03003 	strb	r3, [r0, #3]
   113cc:	e59a33fc 	ldr	r3, [sl, #1020]
   113d0:	e5962004 	ldr	r2, [r6, #4]
   113d4:	e5933000 	ldr	r3, [r3]
   113d8:	e3c22dfe 	bic	r2, r2, #16256	; 0x3f80
   113dc:	e203307f 	and	r3, r3, #127	; 0x7f
   113e0:	e1823383 	orr	r3, r2, r3, lsl #7
   113e4:	e5863004 	str	r3, [r6, #4]
   113e8:	e5d63004 	ldrb	r3, [r6, #4]
   113ec:	e5da2007 	ldrb	r2, [sl, #7]
   113f0:	e3c3307f 	bic	r3, r3, #127	; 0x7f
   113f4:	e202207f 	and	r2, r2, #127	; 0x7f
   113f8:	e1833002 	orr	r3, r3, r2
   113fc:	e5c63004 	strb	r3, [r6, #4]
   11400:	ebfffe78 	bl	10de8 <WriteThroughReg>
   11404:	e59b0004 	ldr	r0, [fp, #4]
   11408:	e2853e11 	add	r3, r5, #272	; 0x110
   1140c:	e0800003 	add	r0, r0, r3
   11410:	ebfffe9f 	bl	10e94 <ClearReg>
   11414:	e59b6004 	ldr	r6, [fp, #4]
   11418:	e0863005 	add	r3, r6, r5
   1141c:	e5931110 	ldr	r1, [r3, #272]
   11420:	e3c724ff 	bic	r2, r7, #-16777216	; 0xff000000
   11424:	e3c2273e 	bic	r2, r2, #16252928	; 0xf80000
   11428:	e1a019a1 	lsr	r1, r1, #19
   1142c:	e1822981 	orr	r2, r2, r1, lsl #19
   11430:	e3590000 	cmp	r9, #0	; 0x0
   11434:	e5832110 	str	r2, [r3, #272]
   11438:	0affffb6 	beq	11318 <HcdPrepareChannel+0x1c4>
   1143c:	e5932110 	ldr	r2, [r3, #272]
   11440:	e2877007 	add	r7, r7, #7	; 0x7
   11444:	e1a07987 	lsl	r7, r7, #19
   11448:	e3c2257f 	bic	r2, r2, #532676608	; 0x1fc00000
   1144c:	e1a07b27 	lsr	r7, r7, #22
   11450:	e3c2270e 	bic	r2, r2, #3670016	; 0x380000
   11454:	e1822987 	orr	r2, r2, r7, lsl #19
   11458:	e5832110 	str	r2, [r3, #272]
   1145c:	eaffffbd 	b	11358 <HcdPrepareChannel+0x204>
   11460:	e3a000fe 	mov	r0, #254	; 0xfe
   11464:	eaffffce 	b	113a4 <HcdPrepareChannel+0x250>
   11468:	0001a630 	.word	0x0001a630

0001146c <HcdTransmitChannel>:
   1146c:	e92d41f0 	push	{r4, r5, r6, r7, r8, lr}
   11470:	e59f409c 	ldr	r4, [pc, #156]	; 11514 <HcdTransmitChannel+0xa8>
   11474:	e2806008 	add	r6, r0, #8	; 0x8
   11478:	e1a07000 	mov	r7, r0
   1147c:	e5940004 	ldr	r0, [r4, #4]
   11480:	e1a05286 	lsl	r5, r6, #5
   11484:	e0800005 	add	r0, r0, r5
   11488:	e2800004 	add	r0, r0, #4	; 0x4
   1148c:	e1a08001 	mov	r8, r1
   11490:	ebfffe56 	bl	10df0 <ReadBackReg>
   11494:	e5943004 	ldr	r3, [r4, #4]
   11498:	e0833005 	add	r3, r3, r5
   1149c:	e5d32006 	ldrb	r2, [r3, #6]
   114a0:	e2833004 	add	r3, r3, #4	; 0x4
   114a4:	e3c22001 	bic	r2, r2, #1	; 0x1
   114a8:	e1a00003 	mov	r0, r3
   114ac:	e5c32002 	strb	r2, [r3, #2]
   114b0:	ebfffe4c 	bl	10de8 <WriteThroughReg>
   114b4:	e5940004 	ldr	r0, [r4, #4]
   114b8:	e1a07287 	lsl	r7, r7, #5
   114bc:	e0803007 	add	r3, r0, r7
   114c0:	e5932114 	ldr	r2, [r3, #276]
   114c4:	e2830f45 	add	r0, r3, #276	; 0x114
   114c8:	e5838114 	str	r8, [r3, #276]
   114cc:	ebfffe45 	bl	10de8 <WriteThroughReg>
   114d0:	e5940004 	ldr	r0, [r4, #4]
   114d4:	e0800005 	add	r0, r0, r5
   114d8:	ebfffe44 	bl	10df0 <ReadBackReg>
   114dc:	e5940004 	ldr	r0, [r4, #4]
   114e0:	e7903286 	ldr	r3, [r0, r6, lsl #5]
   114e4:	e3c33603 	bic	r3, r3, #3145728	; 0x300000
   114e8:	e3833601 	orr	r3, r3, #1048576	; 0x100000
   114ec:	e7803286 	str	r3, [r0, r6, lsl #5]
   114f0:	e0800005 	add	r0, r0, r5
   114f4:	e5d03003 	ldrb	r3, [r0, #3]
   114f8:	e3833080 	orr	r3, r3, #128	; 0x80
   114fc:	e5c03003 	strb	r3, [r0, #3]
   11500:	e5d03003 	ldrb	r3, [r0, #3]
   11504:	e3c33040 	bic	r3, r3, #64	; 0x40
   11508:	e5c03003 	strb	r3, [r0, #3]
   1150c:	e8bd41f0 	pop	{r4, r5, r6, r7, r8, lr}
   11510:	eafffe34 	b	10de8 <WriteThroughReg>
   11514:	0001a630 	.word	0x0001a630

00011518 <HcdChannelInterruptToError>:
   11518:	e20130ff 	and	r3, r1, #255	; 0xff
   1151c:	e3130004 	tst	r3, #4	; 0x4
   11520:	e24dd008 	sub	sp, sp, #8	; 0x8
   11524:	13a03c01 	movne	r3, #256	; 0x100
   11528:	e58d1004 	str	r1, [sp, #4]
   1152c:	13a0c0fc 	movne	ip, #252	; 0xfc
   11530:	15803008 	strne	r3, [r0, #8]
   11534:	1a00002a 	bne	115e4 <HcdChannelInterruptToError+0xcc>
   11538:	e3130008 	tst	r3, #8	; 0x8
   1153c:	13a03002 	movne	r3, #2	; 0x2
   11540:	15803008 	strne	r3, [r0, #8]
   11544:	13a0c0fc 	movne	ip, #252	; 0xfc
   11548:	1a000025 	bne	115e4 <HcdChannelInterruptToError+0xcc>
   1154c:	e3130010 	tst	r3, #16	; 0x10
   11550:	13a03010 	movne	r3, #16	; 0x10
   11554:	15803008 	strne	r3, [r0, #8]
   11558:	13a0c0fc 	movne	ip, #252	; 0xfc
   1155c:	1a000020 	bne	115e4 <HcdChannelInterruptToError+0xcc>
   11560:	e3130020 	tst	r3, #32	; 0x20
   11564:	03a0c0f8 	moveq	ip, #248	; 0xf8
   11568:	13a0c000 	movne	ip, #0	; 0x0
   1156c:	e3130040 	tst	r3, #64	; 0x40
   11570:	13a03c02 	movne	r3, #512	; 0x200
   11574:	15803008 	strne	r3, [r0, #8]
   11578:	13a0c0fc 	movne	ip, #252	; 0xfc
   1157c:	1a000018 	bne	115e4 <HcdChannelInterruptToError+0xcc>
   11580:	e5dd1005 	ldrb	r1, [sp, #5]
   11584:	e3110001 	tst	r1, #1	; 0x1
   11588:	13a03008 	movne	r3, #8	; 0x8
   1158c:	15803008 	strne	r3, [r0, #8]
   11590:	13a0c0fc 	movne	ip, #252	; 0xfc
   11594:	1a000012 	bne	115e4 <HcdChannelInterruptToError+0xcc>
   11598:	e3110002 	tst	r1, #2	; 0x2
   1159c:	13a03004 	movne	r3, #4	; 0x4
   115a0:	15803008 	strne	r3, [r0, #8]
   115a4:	13a0c0fc 	movne	ip, #252	; 0xfc
   115a8:	1a00000d 	bne	115e4 <HcdChannelInterruptToError+0xcc>
   115ac:	e3130080 	tst	r3, #128	; 0x80
   115b0:	13a03080 	movne	r3, #128	; 0x80
   115b4:	15803008 	strne	r3, [r0, #8]
   115b8:	13a0c0fc 	movne	ip, #252	; 0xfc
   115bc:	1a000008 	bne	115e4 <HcdChannelInterruptToError+0xcc>
   115c0:	e3110004 	tst	r1, #4	; 0x4
   115c4:	13a03040 	movne	r3, #64	; 0x40
   115c8:	15803008 	strne	r3, [r0, #8]
   115cc:	13a0c0fc 	movne	ip, #252	; 0xfc
   115d0:	1a000003 	bne	115e4 <HcdChannelInterruptToError+0xcc>
   115d4:	e3130001 	tst	r3, #1	; 0x1
   115d8:	1a000001 	bne	115e4 <HcdChannelInterruptToError+0xcc>
   115dc:	e3520000 	cmp	r2, #0	; 0x0
   115e0:	13a0c0f8 	movne	ip, #248	; 0xf8
   115e4:	e1a00c0c 	lsl	r0, ip, #24
   115e8:	e1a00c40 	asr	r0, r0, #24
   115ec:	e28dd008 	add	sp, sp, #8	; 0x8
   115f0:	e12fff1e 	bx	lr

000115f4 <HcdChannelSendWaitOne>:
   115f4:	e92d4ff0 	push	{r4, r5, r6, r7, r8, r9, sl, fp, lr}
   115f8:	e24dd01c 	sub	sp, sp, #28	; 0x1c
   115fc:	e1a07282 	lsl	r7, r2, #5
   11600:	e2828008 	add	r8, r2, #8	; 0x8
   11604:	e1a09002 	mov	r9, r2
   11608:	e59d2044 	ldr	r2, [sp, #68]
   1160c:	e3a0a000 	mov	sl, #0	; 0x0
   11610:	e0832002 	add	r2, r3, r2
   11614:	e58d1014 	str	r1, [sp, #20]
   11618:	e59f4284 	ldr	r4, [pc, #644]	; 118a4 <HcdChannelSendWaitOne+0x2b0>
   1161c:	e58d000c 	str	r0, [sp, #12]
   11620:	e58d2008 	str	r2, [sp, #8]
   11624:	e58da004 	str	sl, [sp, #4]
   11628:	e2876f42 	add	r6, r7, #264	; 0x108
   1162c:	e287be11 	add	fp, r7, #272	; 0x110
   11630:	e1a08288 	lsl	r8, r8, #5
   11634:	e5940004 	ldr	r0, [r4, #4]
   11638:	e0800006 	add	r0, r0, r6
   1163c:	ebfffe2e 	bl	10efc <SetReg>
   11640:	e5940004 	ldr	r0, [r4, #4]
   11644:	e0800006 	add	r0, r0, r6
   11648:	ebfffde6 	bl	10de8 <WriteThroughReg>
   1164c:	e5940004 	ldr	r0, [r4, #4]
   11650:	e080000b 	add	r0, r0, fp
   11654:	ebfffde5 	bl	10df0 <ReadBackReg>
   11658:	e5940004 	ldr	r0, [r4, #4]
   1165c:	e0800008 	add	r0, r0, r8
   11660:	e2800004 	add	r0, r0, #4	; 0x4
   11664:	ebfffde1 	bl	10df0 <ReadBackReg>
   11668:	e1a00009 	mov	r0, r9
   1166c:	e59d1008 	ldr	r1, [sp, #8]
   11670:	ebffff7d 	bl	1146c <HcdTransmitChannel>
   11674:	e59f522c 	ldr	r5, [pc, #556]	; 118a8 <HcdChannelSendWaitOne+0x2b4>
   11678:	ea000002 	b	11688 <HcdChannelSendWaitOne+0x94>
   1167c:	eb00054e 	bl	12bbc <MicroDelay>
   11680:	e2555001 	subs	r5, r5, #1	; 0x1
   11684:	0a00005d 	beq	11800 <HcdChannelSendWaitOne+0x20c>
   11688:	e5940004 	ldr	r0, [r4, #4]
   1168c:	e0800006 	add	r0, r0, r6
   11690:	ebfffdd6 	bl	10df0 <ReadBackReg>
   11694:	e5943004 	ldr	r3, [r4, #4]
   11698:	e0832007 	add	r2, r3, r7
   1169c:	e5d22108 	ldrb	r2, [r2, #264]
   116a0:	e3120002 	tst	r2, #2	; 0x2
   116a4:	e3a0000a 	mov	r0, #10	; 0xa
   116a8:	0afffff3 	beq	1167c <HcdChannelSendWaitOne+0x88>
   116ac:	e083000b 	add	r0, r3, fp
   116b0:	ebfffdce 	bl	10df0 <ReadBackReg>
   116b4:	e59f31e8 	ldr	r3, [pc, #488]	; 118a4 <HcdChannelSendWaitOne+0x2b0>
   116b8:	e5932004 	ldr	r2, [r3, #4]
   116bc:	e0823008 	add	r3, r2, r8
   116c0:	e5d31007 	ldrb	r1, [r3, #7]
   116c4:	e1b013a1 	lsrs	r1, r1, #7
   116c8:	e2833007 	add	r3, r3, #7	; 0x7
   116cc:	0a00006a 	beq	1187c <HcdChannelSendWaitOne+0x288>
   116d0:	e0823007 	add	r3, r2, r7
   116d4:	e5d31108 	ldrb	r1, [r3, #264]
   116d8:	e3110020 	tst	r1, #32	; 0x20
   116dc:	0a00003b 	beq	117d0 <HcdChannelSendWaitOne+0x1dc>
   116e0:	e3a03003 	mov	r3, #3	; 0x3
   116e4:	e58da010 	str	sl, [sp, #16]
   116e8:	e1a0a003 	mov	sl, r3
   116ec:	e0820006 	add	r0, r2, r6
   116f0:	ebfffe01 	bl	10efc <SetReg>
   116f4:	e5940004 	ldr	r0, [r4, #4]
   116f8:	e0800006 	add	r0, r0, r6
   116fc:	ebfffdb9 	bl	10de8 <WriteThroughReg>
   11700:	e5940004 	ldr	r0, [r4, #4]
   11704:	e0800008 	add	r0, r0, r8
   11708:	e2800004 	add	r0, r0, #4	; 0x4
   1170c:	ebfffdb7 	bl	10df0 <ReadBackReg>
   11710:	e5943004 	ldr	r3, [r4, #4]
   11714:	e0833008 	add	r3, r3, r8
   11718:	e5d32006 	ldrb	r2, [r3, #6]
   1171c:	e2833004 	add	r3, r3, #4	; 0x4
   11720:	e3822001 	orr	r2, r2, #1	; 0x1
   11724:	e1a00003 	mov	r0, r3
   11728:	e5c32002 	strb	r2, [r3, #2]
   1172c:	ebfffdad 	bl	10de8 <WriteThroughReg>
   11730:	e5940004 	ldr	r0, [r4, #4]
   11734:	e0800008 	add	r0, r0, r8
   11738:	e5d03003 	ldrb	r3, [r0, #3]
   1173c:	e3833080 	orr	r3, r3, #128	; 0x80
   11740:	e5c03003 	strb	r3, [r0, #3]
   11744:	e5d03003 	ldrb	r3, [r0, #3]
   11748:	e3c33040 	bic	r3, r3, #64	; 0x40
   1174c:	e5c03003 	strb	r3, [r0, #3]
   11750:	ebfffda4 	bl	10de8 <WriteThroughReg>
   11754:	e59f514c 	ldr	r5, [pc, #332]	; 118a8 <HcdChannelSendWaitOne+0x2b4>
   11758:	ea000002 	b	11768 <HcdChannelSendWaitOne+0x174>
   1175c:	eb000516 	bl	12bbc <MicroDelay>
   11760:	e2555001 	subs	r5, r5, #1	; 0x1
   11764:	0a000025 	beq	11800 <HcdChannelSendWaitOne+0x20c>
   11768:	e5940004 	ldr	r0, [r4, #4]
   1176c:	e0800006 	add	r0, r0, r6
   11770:	ebfffd9e 	bl	10df0 <ReadBackReg>
   11774:	e5942004 	ldr	r2, [r4, #4]
   11778:	e0823007 	add	r3, r2, r7
   1177c:	e5d31108 	ldrb	r1, [r3, #264]
   11780:	e3110002 	tst	r1, #2	; 0x2
   11784:	e3a00064 	mov	r0, #100	; 0x64
   11788:	e2833f42 	add	r3, r3, #264	; 0x108
   1178c:	0afffff2 	beq	1175c <HcdChannelSendWaitOne+0x168>
   11790:	e5d31000 	ldrb	r1, [r3]
   11794:	e3110040 	tst	r1, #64	; 0x40
   11798:	0a00002a 	beq	11848 <HcdChannelSendWaitOne+0x254>
   1179c:	e25aa001 	subs	sl, sl, #1	; 0x1
   117a0:	1affffd1 	bne	116ec <HcdChannelSendWaitOne+0xf8>
   117a4:	e59f0100 	ldr	r0, [pc, #256]	; 118ac <HcdChannelSendWaitOne+0x2b8>
   117a8:	e59da010 	ldr	sl, [sp, #16]
   117ac:	eb000502 	bl	12bbc <MicroDelay>
   117b0:	e59d3004 	ldr	r3, [sp, #4]
   117b4:	e28aa001 	add	sl, sl, #1	; 0x1
   117b8:	e2833001 	add	r3, r3, #1	; 0x1
   117bc:	e3530002 	cmp	r3, #2	; 0x2
   117c0:	935a0009 	cmpls	sl, #9	; 0x9
   117c4:	e58d3004 	str	r3, [sp, #4]
   117c8:	9affff99 	bls	11634 <HcdChannelSendWaitOne+0x40>
   117cc:	ea000005 	b	117e8 <HcdChannelSendWaitOne+0x1f4>
   117d0:	e5d32108 	ldrb	r2, [r3, #264]
   117d4:	e3120010 	tst	r2, #16	; 0x10
   117d8:	1a000011 	bne	11824 <HcdChannelSendWaitOne+0x230>
   117dc:	e5d33108 	ldrb	r3, [r3, #264]
   117e0:	e1b033a3 	lsrs	r3, r3, #7
   117e4:	1a000014 	bne	1183c <HcdChannelSendWaitOne+0x248>
   117e8:	e59d3004 	ldr	r3, [sp, #4]
   117ec:	e3530003 	cmp	r3, #3	; 0x3
   117f0:	135a000a 	cmpne	sl, #10	; 0xa
   117f4:	13a00000 	movne	r0, #0	; 0x0
   117f8:	03a00001 	moveq	r0, #1	; 0x1
   117fc:	1a000003 	bne	11810 <HcdChannelSendWaitOne+0x21c>
   11800:	e59d200c 	ldr	r2, [sp, #12]
   11804:	e3a03080 	mov	r3, #128	; 0x80
   11808:	e5823008 	str	r3, [r2, #8]
   1180c:	e3a000f8 	mov	r0, #248	; 0xf8
   11810:	e1a00c00 	lsl	r0, r0, #24
   11814:	e1a00c40 	asr	r0, r0, #24
   11818:	e28dd01c 	add	sp, sp, #28	; 0x1c
   1181c:	e8bd4ff0 	pop	{r4, r5, r6, r7, r8, r9, sl, fp, lr}
   11820:	e12fff1e 	bx	lr
   11824:	e59d3004 	ldr	r3, [sp, #4]
   11828:	e59f007c 	ldr	r0, [pc, #124]	; 118ac <HcdChannelSendWaitOne+0x2b8>
   1182c:	e2433001 	sub	r3, r3, #1	; 0x1
   11830:	e58d3004 	str	r3, [sp, #4]
   11834:	eb0004e0 	bl	12bbc <MicroDelay>
   11838:	eaffffdc 	b	117b0 <HcdChannelSendWaitOne+0x1bc>
   1183c:	e59f0068 	ldr	r0, [pc, #104]	; 118ac <HcdChannelSendWaitOne+0x2b8>
   11840:	eb0004dd 	bl	12bbc <MicroDelay>
   11844:	eaffffd9 	b	117b0 <HcdChannelSendWaitOne+0x1bc>
   11848:	e5d32000 	ldrb	r2, [r3]
   1184c:	e3120010 	tst	r2, #16	; 0x10
   11850:	e59da010 	ldr	sl, [sp, #16]
   11854:	1afffff2 	bne	11824 <HcdChannelSendWaitOne+0x230>
   11858:	e5d32000 	ldrb	r2, [r3]
   1185c:	e1b023a2 	lsrs	r2, r2, #7
   11860:	1afffff5 	bne	1183c <HcdChannelSendWaitOne+0x248>
   11864:	e5931000 	ldr	r1, [r3]
   11868:	e59d000c 	ldr	r0, [sp, #12]
   1186c:	ebffff29 	bl	11518 <HcdChannelInterruptToError>
   11870:	e3500000 	cmp	r0, #0	; 0x0
   11874:	0affffdb 	beq	117e8 <HcdChannelSendWaitOne+0x1f4>
   11878:	eaffffe4 	b	11810 <HcdChannelSendWaitOne+0x21c>
   1187c:	e5d33000 	ldrb	r3, [r3]
   11880:	e0822007 	add	r2, r2, r7
   11884:	e5921108 	ldr	r1, [r2, #264]
   11888:	e1a023a3 	lsr	r2, r3, #7
   1188c:	e59d000c 	ldr	r0, [sp, #12]
   11890:	e2222001 	eor	r2, r2, #1	; 0x1
   11894:	ebffff1f 	bl	11518 <HcdChannelInterruptToError>
   11898:	e3500000 	cmp	r0, #0	; 0x0
   1189c:	0affffd1 	beq	117e8 <HcdChannelSendWaitOne+0x1f4>
   118a0:	eaffffda 	b	11810 <HcdChannelSendWaitOne+0x21c>
   118a4:	0001a630 	.word	0x0001a630
   118a8:	00001388 	.word	0x00001388
   118ac:	000061a8 	.word	0x000061a8

000118b0 <HcdChannelSendWait>:
   118b0:	e92d4ff0 	push	{r4, r5, r6, r7, r8, r9, sl, fp, lr}
   118b4:	e24dd01c 	sub	sp, sp, #28	; 0x1c
   118b8:	e59d4040 	ldr	r4, [sp, #64]
   118bc:	e58d1014 	str	r1, [sp, #20]
   118c0:	e58d1000 	str	r1, [sp]
   118c4:	e1a0a002 	mov	sl, r2
   118c8:	e1a01002 	mov	r1, r2
   118cc:	e1a0b003 	mov	fp, r3
   118d0:	e1a02004 	mov	r2, r4
   118d4:	e5dd3048 	ldrb	r3, [sp, #72]
   118d8:	e1a09000 	mov	r9, r0
   118dc:	ebfffe1c 	bl	11154 <HcdPrepareChannel>
   118e0:	e2508000 	subs	r8, r0, #0	; 0x0
   118e4:	13a03080 	movne	r3, #128	; 0x80
   118e8:	15893008 	strne	r3, [r9, #8]
   118ec:	1a00002b 	bne	119a0 <HcdChannelSendWait+0xf0>
   118f0:	e59f60cc 	ldr	r6, [pc, #204]	; 119c4 <HcdChannelSendWait+0x114>
   118f4:	e1a0528a 	lsl	r5, sl, #5
   118f8:	e285ce11 	add	ip, r5, #272	; 0x110
   118fc:	e5962004 	ldr	r2, [r6, #4]
   11900:	e58dc010 	str	ip, [sp, #16]
   11904:	e1a00008 	mov	r0, r8
   11908:	e59dc044 	ldr	ip, [sp, #68]
   1190c:	e0822005 	add	r2, r2, r5
   11910:	e5927110 	ldr	r7, [r2, #272]
   11914:	e59d1014 	ldr	r1, [sp, #20]
   11918:	e58d0004 	str	r0, [sp, #4]
   1191c:	e1a0200a 	mov	r2, sl
   11920:	e1a0300b 	mov	r3, fp
   11924:	e58d4000 	str	r4, [sp]
   11928:	e58dc008 	str	ip, [sp, #8]
   1192c:	e1a00009 	mov	r0, r9
   11930:	ebffff2f 	bl	115f4 <HcdChannelSendWaitOne>
   11934:	e1a07187 	lsl	r7, r7, #3
   11938:	e2508000 	subs	r8, r0, #0	; 0x0
   1193c:	e1a07b27 	lsr	r7, r7, #22
   11940:	1a000016 	bne	119a0 <HcdChannelSendWait+0xf0>
   11944:	e5960004 	ldr	r0, [r6, #4]
   11948:	e59dc010 	ldr	ip, [sp, #16]
   1194c:	e080000c 	add	r0, r0, ip
   11950:	ebfffd26 	bl	10df0 <ReadBackReg>
   11954:	e5962004 	ldr	r2, [r6, #4]
   11958:	e0823005 	add	r3, r2, r5
   1195c:	e5930110 	ldr	r0, [r3, #272]
   11960:	e5931110 	ldr	r1, [r3, #272]
   11964:	e3c004ff 	bic	r0, r0, #-16777216	; 0xff000000
   11968:	e1a01181 	lsl	r1, r1, #3
   1196c:	e3c0073e 	bic	r0, r0, #16252928	; 0xf80000
   11970:	e1570b21 	cmp	r7, r1, lsr #22
   11974:	e0600004 	rsb	r0, r0, r4
   11978:	0a000003 	beq	1198c <HcdChannelSendWait+0xdc>
   1197c:	e5933110 	ldr	r3, [r3, #272]
   11980:	e1a03183 	lsl	r3, r3, #3
   11984:	e1b03b23 	lsrs	r3, r3, #22
   11988:	1affffde 	bne	11908 <HcdChannelSendWait+0x58>
   1198c:	e0825005 	add	r5, r2, r5
   11990:	e5953110 	ldr	r3, [r5, #272]
   11994:	e1a03183 	lsl	r3, r3, #3
   11998:	e1570b23 	cmp	r7, r3, lsr #22
   1199c:	0a000004 	beq	119b4 <HcdChannelSendWait+0x104>
   119a0:	e1a00c08 	lsl	r0, r8, #24
   119a4:	e1a00c40 	asr	r0, r0, #24
   119a8:	e28dd01c 	add	sp, sp, #28	; 0x1c
   119ac:	e8bd4ff0 	pop	{r4, r5, r6, r7, r8, r9, sl, fp, lr}
   119b0:	e12fff1e 	bx	lr
   119b4:	e3a03080 	mov	r3, #128	; 0x80
   119b8:	e5893008 	str	r3, [r9, #8]
   119bc:	e3a080fc 	mov	r8, #252	; 0xfc
   119c0:	eafffff6 	b	119a0 <HcdChannelSendWait+0xf0>
   119c4:	0001a630 	.word	0x0001a630

000119c8 <HcdSumbitControlMessage>:
   119c8:	e92d4ff0 	push	{r4, r5, r6, r7, r8, r9, sl, fp, lr}
   119cc:	e59fc234 	ldr	ip, [pc, #564]	; 11c08 <HcdSumbitControlMessage+0x240>
   119d0:	e1a0e421 	lsr	lr, r1, #8
   119d4:	e59c4000 	ldr	r4, [ip]
   119d8:	e201c0ff 	and	ip, r1, #255	; 0xff
   119dc:	e20ee0ff 	and	lr, lr, #255	; 0xff
   119e0:	e1a0b22c 	lsr	fp, ip, #4
   119e4:	e24dd02c 	sub	sp, sp, #44	; 0x2c
   119e8:	e1a0712c 	lsr	r7, ip, #2
   119ec:	e15e0004 	cmp	lr, r4
   119f0:	e20c6003 	and	r6, ip, #3	; 0x3
   119f4:	e20bc0ff 	and	ip, fp, #255	; 0xff
   119f8:	e1a04000 	mov	r4, r0
   119fc:	e58d101c 	str	r1, [sp, #28]
   11a00:	e1a0a002 	mov	sl, r2
   11a04:	e1a08003 	mov	r8, r3
   11a08:	e59d5050 	ldr	r5, [sp, #80]
   11a0c:	e2077003 	and	r7, r7, #3	; 0x3
   11a10:	e58dc018 	str	ip, [sp, #24]
   11a14:	0a000070 	beq	11bdc <HcdSumbitControlMessage+0x214>
   11a18:	e5dd3026 	ldrb	r3, [sp, #38]
   11a1c:	e1862107 	orr	r2, r6, r7, lsl #2
   11a20:	e20330f8 	and	r3, r3, #248	; 0xf8
   11a24:	e5cd3026 	strb	r3, [sp, #38]
   11a28:	e182220b 	orr	r2, r2, fp, lsl #4
   11a2c:	e3a03102 	mov	r3, #-2147483648	; 0x80000000
   11a30:	e20eb0ff 	and	fp, lr, #255	; 0xff
   11a34:	e5cd2024 	strb	r2, [sp, #36]
   11a38:	e5cdb025 	strb	fp, [sp, #37]
   11a3c:	e5803008 	str	r3, [r0, #8]
   11a40:	e3a03008 	mov	r3, #8	; 0x8
   11a44:	e3a09000 	mov	r9, #0	; 0x0
   11a48:	e58d3000 	str	r3, [sp]
   11a4c:	e3a03003 	mov	r3, #3	; 0x3
   11a50:	e5809408 	str	r9, [r0, #1032]
   11a54:	e59d1024 	ldr	r1, [sp, #36]
   11a58:	e58d3008 	str	r3, [sp, #8]
   11a5c:	e58d5004 	str	r5, [sp, #4]
   11a60:	e1a02009 	mov	r2, r9
   11a64:	e1a03005 	mov	r3, r5
   11a68:	ebffff90 	bl	118b0 <HcdChannelSendWait>
   11a6c:	e1500009 	cmp	r0, r9
   11a70:	11a00009 	movne	r0, r9
   11a74:	1a000017 	bne	11ad8 <HcdSumbitControlMessage+0x110>
   11a78:	e15a0009 	cmp	sl, r9
   11a7c:	e5dd3026 	ldrb	r3, [sp, #38]
   11a80:	e59f9184 	ldr	r9, [pc, #388]	; 11c0c <HcdSumbitControlMessage+0x244>
   11a84:	0a000030 	beq	11b4c <HcdSumbitControlMessage+0x184>
   11a88:	e3130004 	tst	r3, #4	; 0x4
   11a8c:	0a000055 	beq	11be8 <HcdSumbitControlMessage+0x220>
   11a90:	e5dd201e 	ldrb	r2, [sp, #30]
   11a94:	e3c31004 	bic	r1, r3, #4	; 0x4
   11a98:	e2022004 	and	r2, r2, #4	; 0x4
   11a9c:	e1822001 	orr	r2, r2, r1
   11aa0:	e599300c 	ldr	r3, [r9, #12]
   11aa4:	e5cd2026 	strb	r2, [sp, #38]
   11aa8:	e3a02002 	mov	r2, #2	; 0x2
   11aac:	e58d2008 	str	r2, [sp, #8]
   11ab0:	e58d8000 	str	r8, [sp]
   11ab4:	e3a02000 	mov	r2, #0	; 0x0
   11ab8:	e58d5004 	str	r5, [sp, #4]
   11abc:	e1a00004 	mov	r0, r4
   11ac0:	e59d1024 	ldr	r1, [sp, #36]
   11ac4:	ebffff79 	bl	118b0 <HcdChannelSendWait>
   11ac8:	e3500000 	cmp	r0, #0	; 0x0
   11acc:	e59f2138 	ldr	r2, [pc, #312]	; 11c0c <HcdSumbitControlMessage+0x244>
   11ad0:	13a00000 	movne	r0, #0	; 0x0
   11ad4:	0a000004 	beq	11aec <HcdSumbitControlMessage+0x124>
   11ad8:	e1a00c00 	lsl	r0, r0, #24
   11adc:	e1a00c40 	asr	r0, r0, #24
   11ae0:	e28dd02c 	add	sp, sp, #44	; 0x2c
   11ae4:	e8bd4ff0 	pop	{r4, r5, r6, r7, r8, r9, sl, fp, lr}
   11ae8:	e12fff1e 	bx	lr
   11aec:	e5920004 	ldr	r0, [r2, #4]
   11af0:	e2800e11 	add	r0, r0, #272	; 0x110
   11af4:	e58d2014 	str	r2, [sp, #20]
   11af8:	ebfffcbc 	bl	10df0 <ReadBackReg>
   11afc:	e5dd3026 	ldrb	r3, [sp, #38]
   11b00:	e3130004 	tst	r3, #4	; 0x4
   11b04:	e59d2014 	ldr	r2, [sp, #20]
   11b08:	0a00003c 	beq	11c00 <HcdSumbitControlMessage+0x238>
   11b0c:	e5922004 	ldr	r2, [r2, #4]
   11b10:	e5923110 	ldr	r3, [r2, #272]
   11b14:	e3c334ff 	bic	r3, r3, #-16777216	; 0xff000000
   11b18:	e3c3373e 	bic	r3, r3, #16252928	; 0xf80000
   11b1c:	e1530008 	cmp	r3, r8
   11b20:	95923110 	ldrls	r3, [r2, #272]
   11b24:	93c334ff 	bicls	r3, r3, #-16777216	; 0xff000000
   11b28:	93c3373e 	bicls	r3, r3, #16252928	; 0xf80000
   11b2c:	90633008 	rsbls	r3, r3, r8
   11b30:	95843408 	strls	r3, [r4, #1032]
   11b34:	85848408 	strhi	r8, [r4, #1032]
   11b38:	e1a0000a 	mov	r0, sl
   11b3c:	e5942408 	ldr	r2, [r4, #1032]
   11b40:	e599100c 	ldr	r1, [r9, #12]
   11b44:	ebffee1e 	bl	d3c4 <MemoryCopy>
   11b48:	e5dd3026 	ldrb	r3, [sp, #38]
   11b4c:	e3580000 	cmp	r8, #0	; 0x0
   11b50:	15dd201e 	ldrbne	r2, [sp, #30]
   11b54:	11a02122 	lsrne	r2, r2, #2
   11b58:	12222001 	eorne	r2, r2, #1	; 0x1
   11b5c:	e59dc018 	ldr	ip, [sp, #24]
   11b60:	12022001 	andne	r2, r2, #1	; 0x1
   11b64:	03a02001 	moveq	r2, #1	; 0x1
   11b68:	e20310f8 	and	r1, r3, #248	; 0xf8
   11b6c:	e1866107 	orr	r6, r6, r7, lsl #2
   11b70:	e599300c 	ldr	r3, [r9, #12]
   11b74:	e1812102 	orr	r2, r1, r2, lsl #2
   11b78:	e186920c 	orr	r9, r6, ip, lsl #4
   11b7c:	e5cd2026 	strb	r2, [sp, #38]
   11b80:	e3a06000 	mov	r6, #0	; 0x0
   11b84:	e5cd9024 	strb	r9, [sp, #36]
   11b88:	e5cdb025 	strb	fp, [sp, #37]
   11b8c:	e3a02002 	mov	r2, #2	; 0x2
   11b90:	e58d5004 	str	r5, [sp, #4]
   11b94:	e58d2008 	str	r2, [sp, #8]
   11b98:	e58d6000 	str	r6, [sp]
   11b9c:	e1a00004 	mov	r0, r4
   11ba0:	e59d1024 	ldr	r1, [sp, #36]
   11ba4:	e1a02006 	mov	r2, r6
   11ba8:	ebffff40 	bl	118b0 <HcdChannelSendWait>
   11bac:	e2505000 	subs	r5, r0, #0	; 0x0
   11bb0:	e59f7054 	ldr	r7, [pc, #84]	; 11c0c <HcdSumbitControlMessage+0x244>
   11bb4:	11a00006 	movne	r0, r6
   11bb8:	1affffc6 	bne	11ad8 <HcdSumbitControlMessage+0x110>
   11bbc:	e5970004 	ldr	r0, [r7, #4]
   11bc0:	e2800e11 	add	r0, r0, #272	; 0x110
   11bc4:	ebfffc89 	bl	10df0 <ReadBackReg>
   11bc8:	e5973004 	ldr	r3, [r7, #4]
   11bcc:	e1a00005 	mov	r0, r5
   11bd0:	e5933110 	ldr	r3, [r3, #272]
   11bd4:	e5845008 	str	r5, [r4, #8]
   11bd8:	eaffffbe 	b	11ad8 <HcdSumbitControlMessage+0x110>
   11bdc:	e58d5000 	str	r5, [sp]
   11be0:	eb0001de 	bl	12360 <HcdProcessRootHubMessage>
   11be4:	eaffffbb 	b	11ad8 <HcdSumbitControlMessage+0x110>
   11be8:	e1a0100a 	mov	r1, sl
   11bec:	e599000c 	ldr	r0, [r9, #12]
   11bf0:	e1a02008 	mov	r2, r8
   11bf4:	ebffedf2 	bl	d3c4 <MemoryCopy>
   11bf8:	e5dd3026 	ldrb	r3, [sp, #38]
   11bfc:	eaffffa3 	b	11a90 <HcdSumbitControlMessage+0xc8>
   11c00:	e5848408 	str	r8, [r4, #1032]
   11c04:	eaffffd0 	b	11b4c <HcdSumbitControlMessage+0x184>
   11c08:	0001a650 	.word	0x0001a650
   11c0c:	0001a630 	.word	0x0001a630

00011c10 <HcdInitialise>:
   11c10:	e92d4010 	push	{r4, lr}
   11c14:	e59f1168 	ldr	r1, [pc, #360]	; 11d84 <HcdInitialise+0x174>
   11c18:	e24dd008 	sub	sp, sp, #8	; 0x8
   11c1c:	e3a00b01 	mov	r0, #1024	; 0x400
   11c20:	ebffec8b 	bl	ce54 <MemoryReserve>
   11c24:	e59f315c 	ldr	r3, [pc, #348]	; 11d88 <HcdInitialise+0x178>
   11c28:	e5830000 	str	r0, [r3]
   11c2c:	e3a00b01 	mov	r0, #1024	; 0x400
   11c30:	ebffec89 	bl	ce5c <MemoryAllocate>
   11c34:	e59f4150 	ldr	r4, [pc, #336]	; 11d8c <HcdInitialise+0x17c>
   11c38:	e59f1150 	ldr	r1, [pc, #336]	; 11d90 <HcdInitialise+0x180>
   11c3c:	e5840000 	str	r0, [r4]
   11c40:	e3a00b01 	mov	r0, #1024	; 0x400
   11c44:	ebffec82 	bl	ce54 <MemoryReserve>
   11c48:	e59f3144 	ldr	r3, [pc, #324]	; 11d94 <HcdInitialise+0x184>
   11c4c:	e5830000 	str	r0, [r3]
   11c50:	e3a00b01 	mov	r0, #1024	; 0x400
   11c54:	ebffec80 	bl	ce5c <MemoryAllocate>
   11c58:	e59f1138 	ldr	r1, [pc, #312]	; 11d98 <HcdInitialise+0x188>
   11c5c:	e5840004 	str	r0, [r4, #4]
   11c60:	e3a00004 	mov	r0, #4	; 0x4
   11c64:	ebffec7a 	bl	ce54 <MemoryReserve>
   11c68:	e59f312c 	ldr	r3, [pc, #300]	; 11d9c <HcdInitialise+0x18c>
   11c6c:	e5830000 	str	r0, [r3]
   11c70:	e3a00004 	mov	r0, #4	; 0x4
   11c74:	ebffec78 	bl	ce5c <MemoryAllocate>
   11c78:	e5943000 	ldr	r3, [r4]
   11c7c:	e5840008 	str	r0, [r4, #8]
   11c80:	e2830040 	add	r0, r3, #64	; 0x40
   11c84:	ebfffc59 	bl	10df0 <ReadBackReg>
   11c88:	e5940000 	ldr	r0, [r4]
   11c8c:	e280003c 	add	r0, r0, #60	; 0x3c
   11c90:	ebfffc56 	bl	10df0 <ReadBackReg>
   11c94:	e5940000 	ldr	r0, [r4]
   11c98:	e5902040 	ldr	r2, [r0, #64]
   11c9c:	e59f30fc 	ldr	r3, [pc, #252]	; 11da0 <HcdInitialise+0x190>
   11ca0:	e3c22eff 	bic	r2, r2, #4080	; 0xff0
   11ca4:	e3c2200f 	bic	r2, r2, #15	; 0xf
   11ca8:	e1520003 	cmp	r2, r3
   11cac:	0a00000f 	beq	11cf0 <HcdInitialise+0xe0>
   11cb0:	e3e03004 	mvn	r3, #4	; 0x4
   11cb4:	e5cd3007 	strb	r3, [sp, #7]
   11cb8:	ebffed7b 	bl	d2ac <MemoryDeallocate>
   11cbc:	e5940004 	ldr	r0, [r4, #4]
   11cc0:	e3500000 	cmp	r0, #0	; 0x0
   11cc4:	1bffed78 	blne	d2ac <MemoryDeallocate>
   11cc8:	e5940008 	ldr	r0, [r4, #8]
   11ccc:	e3500000 	cmp	r0, #0	; 0x0
   11cd0:	1bffed75 	blne	d2ac <MemoryDeallocate>
   11cd4:	e5dd0007 	ldrb	r0, [sp, #7]
   11cd8:	e20000ff 	and	r0, r0, #255	; 0xff
   11cdc:	e1a00c00 	lsl	r0, r0, #24
   11ce0:	e1a00c40 	asr	r0, r0, #24
   11ce4:	e28dd008 	add	sp, sp, #8	; 0x8
   11ce8:	e8bd4010 	pop	{r4, lr}
   11cec:	e12fff1e 	bx	lr
   11cf0:	e2800044 	add	r0, r0, #68	; 0x44
   11cf4:	ebfffc3d 	bl	10df0 <ReadBackReg>
   11cf8:	e5940000 	ldr	r0, [r4]
   11cfc:	e5d03048 	ldrb	r3, [r0, #72]
   11d00:	e2033018 	and	r3, r3, #24	; 0x18
   11d04:	e3530010 	cmp	r3, #16	; 0x10
   11d08:	1affffe8 	bne	11cb0 <HcdInitialise+0xa0>
   11d0c:	e5d03048 	ldrb	r3, [r0, #72]
   11d10:	e31300c0 	tst	r3, #192	; 0xc0
   11d14:	0affffe5 	beq	11cb0 <HcdInitialise+0xa0>
   11d18:	e5940004 	ldr	r0, [r4, #4]
   11d1c:	ebfffc33 	bl	10df0 <ReadBackReg>
   11d20:	e5940000 	ldr	r0, [r4]
   11d24:	e2800008 	add	r0, r0, #8	; 0x8
   11d28:	ebfffc30 	bl	10df0 <ReadBackReg>
   11d2c:	e5943000 	ldr	r3, [r4]
   11d30:	e5d32008 	ldrb	r2, [r3, #8]
   11d34:	e3c22001 	bic	r2, r2, #1	; 0x1
   11d38:	e2830018 	add	r0, r3, #24	; 0x18
   11d3c:	e5c32008 	strb	r2, [r3, #8]
   11d40:	ebfffc53 	bl	10e94 <ClearReg>
   11d44:	e5940000 	ldr	r0, [r4]
   11d48:	e2800018 	add	r0, r0, #24	; 0x18
   11d4c:	ebfffc25 	bl	10de8 <WriteThroughReg>
   11d50:	e5940000 	ldr	r0, [r4]
   11d54:	e2800008 	add	r0, r0, #8	; 0x8
   11d58:	ebfffc22 	bl	10de8 <WriteThroughReg>
   11d5c:	eb0003b2 	bl	12c2c <PowerOnUsb>
   11d60:	e3500000 	cmp	r0, #0	; 0x0
   11d64:	e5cd0007 	strb	r0, [sp, #7]
   11d68:	0affffdb 	beq	11cdc <HcdInitialise+0xcc>
   11d6c:	e5940000 	ldr	r0, [r4]
   11d70:	e3e03004 	mvn	r3, #4	; 0x4
   11d74:	e3500000 	cmp	r0, #0	; 0x0
   11d78:	e5cd3007 	strb	r3, [sp, #7]
   11d7c:	0affffce 	beq	11cbc <HcdInitialise+0xac>
   11d80:	eaffffcc 	b	11cb8 <HcdInitialise+0xa8>
   11d84:	20980000 	.word	0x20980000
   11d88:	0001a644 	.word	0x0001a644
   11d8c:	0001a630 	.word	0x0001a630
   11d90:	20980400 	.word	0x20980400
   11d94:	0001a648 	.word	0x0001a648
   11d98:	20980e00 	.word	0x20980e00
   11d9c:	0001a64c 	.word	0x0001a64c
   11da0:	4f542000 	.word	0x4f542000

00011da4 <HcdStart>:
   11da4:	e92d41f0 	push	{r4, r5, r6, r7, r8, lr}
   11da8:	e59f4548 	ldr	r4, [pc, #1352]	; 122f8 <HcdStart+0x554>
   11dac:	e5943000 	ldr	r3, [r4]
   11db0:	e3530000 	cmp	r3, #0	; 0x0
   11db4:	0a00014b 	beq	122e8 <HcdStart+0x544>
   11db8:	e3a00b01 	mov	r0, #1024	; 0x400
   11dbc:	ebffec26 	bl	ce5c <MemoryAllocate>
   11dc0:	e3500000 	cmp	r0, #0	; 0x0
   11dc4:	e584000c 	str	r0, [r4, #12]
   11dc8:	0a000148 	beq	122f0 <HcdStart+0x54c>
   11dcc:	e5940000 	ldr	r0, [r4]
   11dd0:	e280000c 	add	r0, r0, #12	; 0xc
   11dd4:	ebfffc05 	bl	10df0 <ReadBackReg>
   11dd8:	e5943000 	ldr	r3, [r4]
   11ddc:	e5d3200e 	ldrb	r2, [r3, #14]
   11de0:	e3c22010 	bic	r2, r2, #16	; 0x10
   11de4:	e5c3200e 	strb	r2, [r3, #14]
   11de8:	e5d3200e 	ldrb	r2, [r3, #14]
   11dec:	e3c22040 	bic	r2, r2, #64	; 0x40
   11df0:	e283000c 	add	r0, r3, #12	; 0xc
   11df4:	e5c3200e 	strb	r2, [r3, #14]
   11df8:	ebfffbfa 	bl	10de8 <WriteThroughReg>
   11dfc:	ebfffc65 	bl	10f98 <HcdReset>
   11e00:	e2506000 	subs	r6, r0, #0	; 0x0
   11e04:	1a000080 	bne	1200c <HcdStart+0x268>
   11e08:	e5d43010 	ldrb	r3, [r4, #16]
   11e0c:	e3530000 	cmp	r3, #0	; 0x0
   11e10:	0a000092 	beq	12060 <HcdStart+0x2bc>
   11e14:	e5940000 	ldr	r0, [r4]
   11e18:	e280000c 	add	r0, r0, #12	; 0xc
   11e1c:	ebfffbf3 	bl	10df0 <ReadBackReg>
   11e20:	e5940000 	ldr	r0, [r4]
   11e24:	e5d03048 	ldrb	r3, [r0, #72]
   11e28:	e20330c0 	and	r3, r3, #192	; 0xc0
   11e2c:	e3530080 	cmp	r3, #128	; 0x80
   11e30:	0a000105 	beq	1224c <HcdStart+0x4a8>
   11e34:	e5d0300e 	ldrb	r3, [r0, #14]
   11e38:	e3c33002 	bic	r3, r3, #2	; 0x2
   11e3c:	e5c0300e 	strb	r3, [r0, #14]
   11e40:	e5d0300e 	ldrb	r3, [r0, #14]
   11e44:	e3c33008 	bic	r3, r3, #8	; 0x8
   11e48:	e5c0300e 	strb	r3, [r0, #14]
   11e4c:	e280000c 	add	r0, r0, #12	; 0xc
   11e50:	ebfffbe4 	bl	10de8 <WriteThroughReg>
   11e54:	e5940000 	ldr	r0, [r4]
   11e58:	e2800008 	add	r0, r0, #8	; 0x8
   11e5c:	ebfffbe3 	bl	10df0 <ReadBackReg>
   11e60:	e5943000 	ldr	r3, [r4]
   11e64:	e5d32008 	ldrb	r2, [r3, #8]
   11e68:	e3822020 	orr	r2, r2, #32	; 0x20
   11e6c:	e5c32008 	strb	r2, [r3, #8]
   11e70:	e5d3200a 	ldrb	r2, [r3, #10]
   11e74:	e3c22080 	bic	r2, r2, #128	; 0x80
   11e78:	e2830008 	add	r0, r3, #8	; 0x8
   11e7c:	e5c3200a 	strb	r2, [r3, #10]
   11e80:	ebfffbd8 	bl	10de8 <WriteThroughReg>
   11e84:	e5940000 	ldr	r0, [r4]
   11e88:	e280000c 	add	r0, r0, #12	; 0xc
   11e8c:	ebfffbd7 	bl	10df0 <ReadBackReg>
   11e90:	e5940000 	ldr	r0, [r4]
   11e94:	e5d03048 	ldrb	r3, [r0, #72]
   11e98:	e2033007 	and	r3, r3, #7	; 0x7
   11e9c:	e3530006 	cmp	r3, #6	; 0x6
   11ea0:	9a00005f 	bls	12024 <HcdStart+0x280>
   11ea4:	e280000c 	add	r0, r0, #12	; 0xc
   11ea8:	ebfffbce 	bl	10de8 <WriteThroughReg>
   11eac:	e5940008 	ldr	r0, [r4, #8]
   11eb0:	ebfffbf7 	bl	10e94 <ClearReg>
   11eb4:	e5940008 	ldr	r0, [r4, #8]
   11eb8:	ebfffbca 	bl	10de8 <WriteThroughReg>
   11ebc:	e5940004 	ldr	r0, [r4, #4]
   11ec0:	ebfffbca 	bl	10df0 <ReadBackReg>
   11ec4:	e5943000 	ldr	r3, [r4]
   11ec8:	e5d32048 	ldrb	r2, [r3, #72]
   11ecc:	e20220c0 	and	r2, r2, #192	; 0xc0
   11ed0:	e3520080 	cmp	r2, #128	; 0x80
   11ed4:	0a0000e7 	beq	12278 <HcdStart+0x4d4>
   11ed8:	e5943004 	ldr	r3, [r4, #4]
   11edc:	e5d32000 	ldrb	r2, [r3]
   11ee0:	e3c22003 	bic	r2, r2, #3	; 0x3
   11ee4:	e5c32000 	strb	r2, [r3]
   11ee8:	e5940004 	ldr	r0, [r4, #4]
   11eec:	ebfffbbd 	bl	10de8 <WriteThroughReg>
   11ef0:	e5940004 	ldr	r0, [r4, #4]
   11ef4:	ebfffbbd 	bl	10df0 <ReadBackReg>
   11ef8:	e5943004 	ldr	r3, [r4, #4]
   11efc:	e5d32000 	ldrb	r2, [r3]
   11f00:	e3822004 	orr	r2, r2, #4	; 0x4
   11f04:	e1a00003 	mov	r0, r3
   11f08:	e5c32000 	strb	r2, [r3]
   11f0c:	ebfffbb5 	bl	10de8 <WriteThroughReg>
   11f10:	e5940004 	ldr	r0, [r4, #4]
   11f14:	ebfffbb5 	bl	10df0 <ReadBackReg>
   11f18:	e5943000 	ldr	r3, [r4]
   11f1c:	e5940004 	ldr	r0, [r4, #4]
   11f20:	e5d01002 	ldrb	r1, [r0, #2]
   11f24:	e5d32053 	ldrb	r2, [r3, #83]
   11f28:	e1a02322 	lsr	r2, r2, #6
   11f2c:	e2022001 	and	r2, r2, #1	; 0x1
   11f30:	e15203a1 	cmp	r2, r1, lsr #7
   11f34:	05933040 	ldreq	r3, [r3, #64]
   11f38:	ebfffbaa 	bl	10de8 <WriteThroughReg>
   11f3c:	e5940000 	ldr	r0, [r4]
   11f40:	e2800024 	add	r0, r0, #36	; 0x24
   11f44:	ebfffba9 	bl	10df0 <ReadBackReg>
   11f48:	e5943000 	ldr	r3, [r4]
   11f4c:	e1a00003 	mov	r0, r3
   11f50:	e5933024 	ldr	r3, [r3, #36]
   11f54:	e3a03a05 	mov	r3, #20480	; 0x5000
   11f58:	e5a03024 	str	r3, [r0, #36]!
   11f5c:	ebfffba1 	bl	10de8 <WriteThroughReg>
   11f60:	e5940000 	ldr	r0, [r4]
   11f64:	e2800028 	add	r0, r0, #40	; 0x28
   11f68:	ebfffba0 	bl	10df0 <ReadBackReg>
   11f6c:	e5940000 	ldr	r0, [r4]
   11f70:	e5903028 	ldr	r3, [r0, #40]
   11f74:	e1a03803 	lsl	r3, r3, #16
   11f78:	e1a03823 	lsr	r3, r3, #16
   11f7c:	e3833205 	orr	r3, r3, #1342177280	; 0x50000000
   11f80:	e5803028 	str	r3, [r0, #40]
   11f84:	e5903028 	ldr	r3, [r0, #40]
   11f88:	e1a03823 	lsr	r3, r3, #16
   11f8c:	e1a03803 	lsl	r3, r3, #16
   11f90:	e3833a05 	orr	r3, r3, #20480	; 0x5000
   11f94:	e5a03028 	str	r3, [r0, #40]!
   11f98:	ebfffb92 	bl	10de8 <WriteThroughReg>
   11f9c:	e5940000 	ldr	r0, [r4]
   11fa0:	e2800c01 	add	r0, r0, #256	; 0x100
   11fa4:	ebfffb91 	bl	10df0 <ReadBackReg>
   11fa8:	e5940000 	ldr	r0, [r4]
   11fac:	e5903100 	ldr	r3, [r0, #256]
   11fb0:	e1a03803 	lsl	r3, r3, #16
   11fb4:	e1a03823 	lsr	r3, r3, #16
   11fb8:	e3833205 	orr	r3, r3, #1342177280	; 0x50000000
   11fbc:	e5803100 	str	r3, [r0, #256]
   11fc0:	e5903100 	ldr	r3, [r0, #256]
   11fc4:	e1a03823 	lsr	r3, r3, #16
   11fc8:	e1a03803 	lsl	r3, r3, #16
   11fcc:	e3833a0a 	orr	r3, r3, #40960	; 0xa000
   11fd0:	e5a03100 	str	r3, [r0, #256]!
   11fd4:	ebfffb83 	bl	10de8 <WriteThroughReg>
   11fd8:	e5940000 	ldr	r0, [r4]
   11fdc:	ebfffb83 	bl	10df0 <ReadBackReg>
   11fe0:	e5943000 	ldr	r3, [r4]
   11fe4:	e5d32001 	ldrb	r2, [r3, #1]
   11fe8:	e3822004 	orr	r2, r2, #4	; 0x4
   11fec:	e1a00003 	mov	r0, r3
   11ff0:	e5c32001 	strb	r2, [r3, #1]
   11ff4:	ebfffb7b 	bl	10de8 <WriteThroughReg>
   11ff8:	e3a00010 	mov	r0, #16	; 0x10
   11ffc:	ebfffc11 	bl	11048 <HcdTransmitFifoFlush>
   12000:	e2506000 	subs	r6, r0, #0	; 0x0
   12004:	e59f82ec 	ldr	r8, [pc, #748]	; 122f8 <HcdStart+0x554>
   12008:	0a000020 	beq	12090 <HcdStart+0x2ec>
   1200c:	e594000c 	ldr	r0, [r4, #12]
   12010:	ebffeca5 	bl	d2ac <MemoryDeallocate>
   12014:	e1a00c06 	lsl	r0, r6, #24
   12018:	e1a00c40 	asr	r0, r0, #24
   1201c:	e8bd41f0 	pop	{r4, r5, r6, r7, r8, lr}
   12020:	e12fff1e 	bx	lr
   12024:	e3a02001 	mov	r2, #1	; 0x1
   12028:	e1a03312 	lsl	r3, r2, r3
   1202c:	e3130054 	tst	r3, #84	; 0x54
   12030:	1a00009e 	bne	122b0 <HcdStart+0x50c>
   12034:	e313002a 	tst	r3, #42	; 0x2a
   12038:	1a0000a3 	bne	122cc <HcdStart+0x528>
   1203c:	e3130001 	tst	r3, #1	; 0x1
   12040:	0affff97 	beq	11ea4 <HcdStart+0x100>
   12044:	e5d0300d 	ldrb	r3, [r0, #13]
   12048:	e3833002 	orr	r3, r3, #2	; 0x2
   1204c:	e5c0300d 	strb	r3, [r0, #13]
   12050:	e5d0300d 	ldrb	r3, [r0, #13]
   12054:	e1833002 	orr	r3, r3, r2
   12058:	e5c0300d 	strb	r3, [r0, #13]
   1205c:	eaffff90 	b	11ea4 <HcdStart+0x100>
   12060:	e3a03001 	mov	r3, #1	; 0x1
   12064:	e5940000 	ldr	r0, [r4]
   12068:	e5c43010 	strb	r3, [r4, #16]
   1206c:	e5d0300c 	ldrb	r3, [r0, #12]
   12070:	e3833010 	orr	r3, r3, #16	; 0x10
   12074:	e5c0300c 	strb	r3, [r0, #12]
   12078:	e5d0300c 	ldrb	r3, [r0, #12]
   1207c:	e3c33008 	bic	r3, r3, #8	; 0x8
   12080:	e5e0300c 	strb	r3, [r0, #12]!
   12084:	ebfffb57 	bl	10de8 <WriteThroughReg>
   12088:	ebfffbc2 	bl	10f98 <HcdReset>
   1208c:	eaffff60 	b	11e14 <HcdStart+0x70>
   12090:	ebfffc11 	bl	110dc <HcdReceiveFifoFlush>
   12094:	e2506000 	subs	r6, r0, #0	; 0x0
   12098:	1affffdb 	bne	1200c <HcdStart+0x268>
   1209c:	e5980004 	ldr	r0, [r8, #4]
   120a0:	e5d03002 	ldrb	r3, [r0, #2]
   120a4:	e3130080 	tst	r3, #128	; 0x80
   120a8:	1a000043 	bne	121bc <HcdStart+0x418>
   120ac:	e5983000 	ldr	r3, [r8]
   120b0:	e5932048 	ldr	r2, [r3, #72]
   120b4:	e312090f 	tst	r2, #245760	; 0x3c000
   120b8:	0a00001b 	beq	1212c <HcdStart+0x388>
   120bc:	e1a05006 	mov	r5, r6
   120c0:	ea000000 	b	120c8 <HcdStart+0x324>
   120c4:	e5980004 	ldr	r0, [r8, #4]
   120c8:	e2857008 	add	r7, r5, #8	; 0x8
   120cc:	e1a07287 	lsl	r7, r7, #5
   120d0:	e0800007 	add	r0, r0, r7
   120d4:	ebfffb45 	bl	10df0 <ReadBackReg>
   120d8:	e5940004 	ldr	r0, [r4, #4]
   120dc:	e0800007 	add	r0, r0, r7
   120e0:	e5d03003 	ldrb	r3, [r0, #3]
   120e4:	e3c33080 	bic	r3, r3, #128	; 0x80
   120e8:	e5c03003 	strb	r3, [r0, #3]
   120ec:	e5d03003 	ldrb	r3, [r0, #3]
   120f0:	e3833040 	orr	r3, r3, #64	; 0x40
   120f4:	e5c03003 	strb	r3, [r0, #3]
   120f8:	e5d03001 	ldrb	r3, [r0, #1]
   120fc:	e3833080 	orr	r3, r3, #128	; 0x80
   12100:	e5c03001 	strb	r3, [r0, #1]
   12104:	ebfffb37 	bl	10de8 <WriteThroughReg>
   12108:	e5943000 	ldr	r3, [r4]
   1210c:	e5932048 	ldr	r2, [r3, #72]
   12110:	e1a02722 	lsr	r2, r2, #14
   12114:	e2855001 	add	r5, r5, #1	; 0x1
   12118:	e202200f 	and	r2, r2, #15	; 0xf
   1211c:	e1520005 	cmp	r2, r5
   12120:	8affffe7 	bhi	120c4 <HcdStart+0x320>
   12124:	e59f21cc 	ldr	r2, [pc, #460]	; 122f8 <HcdStart+0x554>
   12128:	e5920004 	ldr	r0, [r2, #4]
   1212c:	e5933048 	ldr	r3, [r3, #72]
   12130:	e313090f 	tst	r3, #245760	; 0x3c000
   12134:	0a000020 	beq	121bc <HcdStart+0x418>
   12138:	e3a07000 	mov	r7, #0	; 0x0
   1213c:	e2875008 	add	r5, r7, #8	; 0x8
   12140:	e1a05285 	lsl	r5, r5, #5
   12144:	e0800005 	add	r0, r0, r5
   12148:	ebfffb28 	bl	10df0 <ReadBackReg>
   1214c:	e5940004 	ldr	r0, [r4, #4]
   12150:	e0800005 	add	r0, r0, r5
   12154:	e5d03003 	ldrb	r3, [r0, #3]
   12158:	e3833080 	orr	r3, r3, #128	; 0x80
   1215c:	e5c03003 	strb	r3, [r0, #3]
   12160:	e5d03003 	ldrb	r3, [r0, #3]
   12164:	e3833040 	orr	r3, r3, #64	; 0x40
   12168:	e5c03003 	strb	r3, [r0, #3]
   1216c:	e5d03001 	ldrb	r3, [r0, #1]
   12170:	e3833080 	orr	r3, r3, #128	; 0x80
   12174:	e5c03001 	strb	r3, [r0, #1]
   12178:	ebfffb1a 	bl	10de8 <WriteThroughReg>
   1217c:	e5940004 	ldr	r0, [r4, #4]
   12180:	e0800005 	add	r0, r0, r5
   12184:	ebfffb19 	bl	10df0 <ReadBackReg>
   12188:	e5940004 	ldr	r0, [r4, #4]
   1218c:	e0803005 	add	r3, r0, r5
   12190:	e5d33003 	ldrb	r3, [r3, #3]
   12194:	e1b033a3 	lsrs	r3, r3, #7
   12198:	1afffff8 	bne	12180 <HcdStart+0x3dc>
   1219c:	e59f3154 	ldr	r3, [pc, #340]	; 122f8 <HcdStart+0x554>
   121a0:	e5933000 	ldr	r3, [r3]
   121a4:	e5933048 	ldr	r3, [r3, #72]
   121a8:	e1a03723 	lsr	r3, r3, #14
   121ac:	e2877001 	add	r7, r7, #1	; 0x1
   121b0:	e203300f 	and	r3, r3, #15	; 0xf
   121b4:	e1530007 	cmp	r3, r7
   121b8:	8affffdf 	bhi	1213c <HcdStart+0x398>
   121bc:	e2800040 	add	r0, r0, #64	; 0x40
   121c0:	ebfffb0a 	bl	10df0 <ReadBackReg>
   121c4:	e5940004 	ldr	r0, [r4, #4]
   121c8:	e5d03041 	ldrb	r3, [r0, #65]
   121cc:	e3130010 	tst	r3, #16	; 0x10
   121d0:	1a000007 	bne	121f4 <HcdStart+0x450>
   121d4:	e5d03041 	ldrb	r3, [r0, #65]
   121d8:	e3833010 	orr	r3, r3, #16	; 0x10
   121dc:	e5c03041 	strb	r3, [r0, #65]
   121e0:	e3a01a01 	mov	r1, #4096	; 0x1000
   121e4:	e2800040 	add	r0, r0, #64	; 0x40
   121e8:	ebfffad9 	bl	10d54 <WriteThroughRegMask>
   121ec:	e59f3104 	ldr	r3, [pc, #260]	; 122f8 <HcdStart+0x554>
   121f0:	e5930004 	ldr	r0, [r3, #4]
   121f4:	e2800040 	add	r0, r0, #64	; 0x40
   121f8:	ebfffafc 	bl	10df0 <ReadBackReg>
   121fc:	e5943004 	ldr	r3, [r4, #4]
   12200:	e5d32041 	ldrb	r2, [r3, #65]
   12204:	e3822001 	orr	r2, r2, #1	; 0x1
   12208:	e2830040 	add	r0, r3, #64	; 0x40
   1220c:	e5c32041 	strb	r2, [r3, #65]
   12210:	e3a01c01 	mov	r1, #256	; 0x100
   12214:	ebffface 	bl	10d54 <WriteThroughRegMask>
   12218:	e59f00dc 	ldr	r0, [pc, #220]	; 122fc <HcdStart+0x558>
   1221c:	eb000266 	bl	12bbc <MicroDelay>
   12220:	e5943004 	ldr	r3, [r4, #4]
   12224:	e5d32041 	ldrb	r2, [r3, #65]
   12228:	e3c22001 	bic	r2, r2, #1	; 0x1
   1222c:	e2830040 	add	r0, r3, #64	; 0x40
   12230:	e5c32041 	strb	r2, [r3, #65]
   12234:	e3a01c01 	mov	r1, #256	; 0x100
   12238:	ebfffac5 	bl	10d54 <WriteThroughRegMask>
   1223c:	e5940004 	ldr	r0, [r4, #4]
   12240:	e2800040 	add	r0, r0, #64	; 0x40
   12244:	ebfffae9 	bl	10df0 <ReadBackReg>
   12248:	eaffff71 	b	12014 <HcdStart+0x270>
   1224c:	e5d03049 	ldrb	r3, [r0, #73]
   12250:	e2033003 	and	r3, r3, #3	; 0x3
   12254:	e3530001 	cmp	r3, #1	; 0x1
   12258:	1afffef5 	bne	11e34 <HcdStart+0x90>
   1225c:	e5d0300e 	ldrb	r3, [r0, #14]
   12260:	e3833002 	orr	r3, r3, #2	; 0x2
   12264:	e5c0300e 	strb	r3, [r0, #14]
   12268:	e5d0300e 	ldrb	r3, [r0, #14]
   1226c:	e3833008 	orr	r3, r3, #8	; 0x8
   12270:	e5c0300e 	strb	r3, [r0, #14]
   12274:	eafffef4 	b	11e4c <HcdStart+0xa8>
   12278:	e5d32049 	ldrb	r2, [r3, #73]
   1227c:	e2022003 	and	r2, r2, #3	; 0x3
   12280:	e3520001 	cmp	r2, #1	; 0x1
   12284:	1affff13 	bne	11ed8 <HcdStart+0x134>
   12288:	e5d3300e 	ldrb	r3, [r3, #14]
   1228c:	e3130002 	tst	r3, #2	; 0x2
   12290:	0affff10 	beq	11ed8 <HcdStart+0x134>
   12294:	e59f305c 	ldr	r3, [pc, #92]	; 122f8 <HcdStart+0x554>
   12298:	e5933004 	ldr	r3, [r3, #4]
   1229c:	e5d32000 	ldrb	r2, [r3]
   122a0:	e3c22002 	bic	r2, r2, #2	; 0x2
   122a4:	e3822001 	orr	r2, r2, #1	; 0x1
   122a8:	e5c32000 	strb	r2, [r3]
   122ac:	eaffff0d 	b	11ee8 <HcdStart+0x144>
   122b0:	e5d0300d 	ldrb	r3, [r0, #13]
   122b4:	e3c33002 	bic	r3, r3, #2	; 0x2
   122b8:	e5c0300d 	strb	r3, [r0, #13]
   122bc:	e5d0300d 	ldrb	r3, [r0, #13]
   122c0:	e3c33001 	bic	r3, r3, #1	; 0x1
   122c4:	e5c0300d 	strb	r3, [r0, #13]
   122c8:	eafffef5 	b	11ea4 <HcdStart+0x100>
   122cc:	e5d0300d 	ldrb	r3, [r0, #13]
   122d0:	e3c33002 	bic	r3, r3, #2	; 0x2
   122d4:	e5c0300d 	strb	r3, [r0, #13]
   122d8:	e5d0300d 	ldrb	r3, [r0, #13]
   122dc:	e3833001 	orr	r3, r3, #1	; 0x1
   122e0:	e5c0300d 	strb	r3, [r0, #13]
   122e4:	eafffeee 	b	11ea4 <HcdStart+0x100>
   122e8:	e3a060fc 	mov	r6, #252	; 0xfc
   122ec:	eaffff48 	b	12014 <HcdStart+0x270>
   122f0:	e3a060f9 	mov	r6, #249	; 0xf9
   122f4:	eaffff46 	b	12014 <HcdStart+0x270>
   122f8:	0001a630 	.word	0x0001a630
   122fc:	0000c350 	.word	0x0000c350

00012300 <HcdStop>:
   12300:	e92d4008 	push	{r3, lr}
   12304:	e59f3014 	ldr	r3, [pc, #20]	; 12320 <HcdStop+0x20>
   12308:	e593000c 	ldr	r0, [r3, #12]
   1230c:	e3500000 	cmp	r0, #0	; 0x0
   12310:	1bffebe5 	blne	d2ac <MemoryDeallocate>
   12314:	e3a00000 	mov	r0, #0	; 0x0
   12318:	e8bd4008 	pop	{r3, lr}
   1231c:	e12fff1e 	bx	lr
   12320:	0001a630 	.word	0x0001a630

00012324 <HcdDeinitialise>:
   12324:	e92d4010 	push	{r4, lr}
   12328:	e59f402c 	ldr	r4, [pc, #44]	; 1235c <HcdDeinitialise+0x38>
   1232c:	e5940000 	ldr	r0, [r4]
   12330:	e3500000 	cmp	r0, #0	; 0x0
   12334:	1bffebdc 	blne	d2ac <MemoryDeallocate>
   12338:	e5940004 	ldr	r0, [r4, #4]
   1233c:	e3500000 	cmp	r0, #0	; 0x0
   12340:	1bffebd9 	blne	d2ac <MemoryDeallocate>
   12344:	e5940008 	ldr	r0, [r4, #8]
   12348:	e3500000 	cmp	r0, #0	; 0x0
   1234c:	1bffebd6 	blne	d2ac <MemoryDeallocate>
   12350:	e3a00000 	mov	r0, #0	; 0x0
   12354:	e8bd4010 	pop	{r4, lr}
   12358:	e12fff1e 	bx	lr
   1235c:	0001a630 	.word	0x0001a630

00012360 <HcdProcessRootHubMessage>:
   12360:	e92d4070 	push	{r4, r5, r6, lr}
   12364:	e1a0c821 	lsr	ip, r1, #16
   12368:	e20cc003 	and	ip, ip, #3	; 0x3
   1236c:	e35c0003 	cmp	ip, #3	; 0x3
   12370:	e24dd008 	sub	sp, sp, #8	; 0x8
   12374:	e3a0c102 	mov	ip, #-2147483648	; 0x80000000
   12378:	03a03002 	moveq	r3, #2	; 0x2
   1237c:	e58d1004 	str	r1, [sp, #4]
   12380:	e1a04000 	mov	r4, r0
   12384:	e580c008 	str	ip, [r0, #8]
   12388:	e59d1018 	ldr	r1, [sp, #24]
   1238c:	05803008 	streq	r3, [r0, #8]
   12390:	0a000027 	beq	12434 <HcdProcessRootHubMessage+0xd4>
   12394:	e5d1c001 	ldrb	ip, [r1, #1]
   12398:	e35c0009 	cmp	ip, #9	; 0x9
   1239c:	979ff10c 	ldrls	pc, [pc, ip, lsl #2]
   123a0:	ea00002e 	b	12460 <HcdProcessRootHubMessage+0x100>
   123a4:	000124a4 	.word	0x000124a4
   123a8:	00012444 	.word	0x00012444
   123ac:	00012460 	.word	0x00012460
   123b0:	000123cc 	.word	0x000123cc
   123b4:	00012460 	.word	0x00012460
   123b8:	00012554 	.word	0x00012554
   123bc:	00012470 	.word	0x00012470
   123c0:	00012460 	.word	0x00012460
   123c4:	00012548 	.word	0x00012548
   123c8:	00012420 	.word	0x00012420
   123cc:	e5d13000 	ldrb	r3, [r1]
   123d0:	e3530020 	cmp	r3, #32	; 0x20
   123d4:	0a000011 	beq	12420 <HcdProcessRootHubMessage+0xc0>
   123d8:	e3530023 	cmp	r3, #35	; 0x23
   123dc:	1a00001f 	bne	12460 <HcdProcessRootHubMessage+0x100>
   123e0:	e5d13002 	ldrb	r3, [r1, #2]
   123e4:	e3530004 	cmp	r3, #4	; 0x4
   123e8:	0a000145 	beq	12904 <HcdProcessRootHubMessage+0x5a4>
   123ec:	e3530008 	cmp	r3, #8	; 0x8
   123f0:	1a00000a 	bne	12420 <HcdProcessRootHubMessage+0xc0>
   123f4:	e59f5634 	ldr	r5, [pc, #1588]	; 12a30 <HcdProcessRootHubMessage+0x6d0>
   123f8:	e5950000 	ldr	r0, [r5]
   123fc:	e2800040 	add	r0, r0, #64	; 0x40
   12400:	ebfffa7a 	bl	10df0 <ReadBackReg>
   12404:	e5950000 	ldr	r0, [r5]
   12408:	e5d03041 	ldrb	r3, [r0, #65]
   1240c:	e3833010 	orr	r3, r3, #16	; 0x10
   12410:	e5c03041 	strb	r3, [r0, #65]
   12414:	e3a01a01 	mov	r1, #4096	; 0x1000
   12418:	e2800040 	add	r0, r0, #64	; 0x40
   1241c:	ebfffa4c 	bl	10d54 <WriteThroughRegMask>
   12420:	e3a05000 	mov	r5, #0	; 0x0
   12424:	e5943008 	ldr	r3, [r4, #8]
   12428:	e3c33102 	bic	r3, r3, #-2147483648	; 0x80000000
   1242c:	e5843008 	str	r3, [r4, #8]
   12430:	e5845408 	str	r5, [r4, #1032]
   12434:	e3a00000 	mov	r0, #0	; 0x0
   12438:	e28dd008 	add	sp, sp, #8	; 0x8
   1243c:	e8bd4070 	pop	{r4, r5, r6, lr}
   12440:	e12fff1e 	bx	lr
   12444:	e5d13000 	ldrb	r3, [r1]
   12448:	e3530020 	cmp	r3, #32	; 0x20
   1244c:	0afffff3 	beq	12420 <HcdProcessRootHubMessage+0xc0>
   12450:	e3530023 	cmp	r3, #35	; 0x23
   12454:	0a0000bc 	beq	1274c <HcdProcessRootHubMessage+0x3ec>
   12458:	e3530002 	cmp	r3, #2	; 0x2
   1245c:	0affffef 	beq	12420 <HcdProcessRootHubMessage+0xc0>
   12460:	e5943008 	ldr	r3, [r4, #8]
   12464:	e3833002 	orr	r3, r3, #2	; 0x2
   12468:	e5843008 	str	r3, [r4, #8]
   1246c:	eaffffeb 	b	12420 <HcdProcessRootHubMessage+0xc0>
   12470:	e5d10000 	ldrb	r0, [r1]
   12474:	e3500080 	cmp	r0, #128	; 0x80
   12478:	0a00009f 	beq	126fc <HcdProcessRootHubMessage+0x39c>
   1247c:	e35000a0 	cmp	r0, #160	; 0xa0
   12480:	1afffff6 	bne	12460 <HcdProcessRootHubMessage+0x100>
   12484:	e59f15a8 	ldr	r1, [pc, #1448]	; 12a34 <HcdProcessRootHubMessage+0x6d4>
   12488:	e5f15058 	ldrb	r5, [r1, #88]!
   1248c:	e1530005 	cmp	r3, r5
   12490:	31a05003 	movcc	r5, r3
   12494:	e1a00002 	mov	r0, r2
   12498:	e1a02005 	mov	r2, r5
   1249c:	ebffebc8 	bl	d3c4 <MemoryCopy>
   124a0:	eaffffdf 	b	12424 <HcdProcessRootHubMessage+0xc4>
   124a4:	e5d13000 	ldrb	r3, [r1]
   124a8:	e2433080 	sub	r3, r3, #128	; 0x80
   124ac:	e3530023 	cmp	r3, #35	; 0x23
   124b0:	979ff103 	ldrls	pc, [pc, r3, lsl #2]
   124b4:	ea000039 	b	125a0 <HcdProcessRootHubMessage+0x240>
   124b8:	00012590 	.word	0x00012590
   124bc:	00012580 	.word	0x00012580
   124c0:	00012580 	.word	0x00012580
   124c4:	000125a0 	.word	0x000125a0
   124c8:	000125a0 	.word	0x000125a0
   124cc:	000125a0 	.word	0x000125a0
   124d0:	000125a0 	.word	0x000125a0
   124d4:	000125a0 	.word	0x000125a0
   124d8:	000125a0 	.word	0x000125a0
   124dc:	000125a0 	.word	0x000125a0
   124e0:	000125a0 	.word	0x000125a0
   124e4:	000125a0 	.word	0x000125a0
   124e8:	000125a0 	.word	0x000125a0
   124ec:	000125a0 	.word	0x000125a0
   124f0:	000125a0 	.word	0x000125a0
   124f4:	000125a0 	.word	0x000125a0
   124f8:	000125a0 	.word	0x000125a0
   124fc:	000125a0 	.word	0x000125a0
   12500:	000125a0 	.word	0x000125a0
   12504:	000125a0 	.word	0x000125a0
   12508:	000125a0 	.word	0x000125a0
   1250c:	000125a0 	.word	0x000125a0
   12510:	000125a0 	.word	0x000125a0
   12514:	000125a0 	.word	0x000125a0
   12518:	000125a0 	.word	0x000125a0
   1251c:	000125a0 	.word	0x000125a0
   12520:	000125a0 	.word	0x000125a0
   12524:	000125a0 	.word	0x000125a0
   12528:	000125a0 	.word	0x000125a0
   1252c:	000125a0 	.word	0x000125a0
   12530:	000125a0 	.word	0x000125a0
   12534:	000125a0 	.word	0x000125a0
   12538:	00012570 	.word	0x00012570
   1253c:	000125a0 	.word	0x000125a0
   12540:	000125a0 	.word	0x000125a0
   12544:	000125b0 	.word	0x000125b0
   12548:	e3a05001 	mov	r5, #1	; 0x1
   1254c:	e5c25000 	strb	r5, [r2]
   12550:	eaffffb3 	b	12424 <HcdProcessRootHubMessage+0xc4>
   12554:	e5d13002 	ldrb	r3, [r1, #2]
   12558:	e5d12003 	ldrb	r2, [r1, #3]
   1255c:	e1832402 	orr	r2, r3, r2, lsl #8
   12560:	e59f34d0 	ldr	r3, [pc, #1232]	; 12a38 <HcdProcessRootHubMessage+0x6d8>
   12564:	e3a05000 	mov	r5, #0	; 0x0
   12568:	e5832000 	str	r2, [r3]
   1256c:	eaffffac 	b	12424 <HcdProcessRootHubMessage+0xc4>
   12570:	e3a03000 	mov	r3, #0	; 0x0
   12574:	e5823000 	str	r3, [r2]
   12578:	e3a05004 	mov	r5, #4	; 0x4
   1257c:	eaffffa8 	b	12424 <HcdProcessRootHubMessage+0xc4>
   12580:	e3a03000 	mov	r3, #0	; 0x0
   12584:	e1c230b0 	strh	r3, [r2]
   12588:	e3a05002 	mov	r5, #2	; 0x2
   1258c:	eaffffa4 	b	12424 <HcdProcessRootHubMessage+0xc4>
   12590:	e3a03001 	mov	r3, #1	; 0x1
   12594:	e1c230b0 	strh	r3, [r2]
   12598:	e3a05002 	mov	r5, #2	; 0x2
   1259c:	eaffffa0 	b	12424 <HcdProcessRootHubMessage+0xc4>
   125a0:	e3a03002 	mov	r3, #2	; 0x2
   125a4:	e5803008 	str	r3, [r0, #8]
   125a8:	e3a05000 	mov	r5, #0	; 0x0
   125ac:	eaffff9c 	b	12424 <HcdProcessRootHubMessage+0xc4>
   125b0:	e59f5478 	ldr	r5, [pc, #1144]	; 12a30 <HcdProcessRootHubMessage+0x6d0>
   125b4:	e5950000 	ldr	r0, [r5]
   125b8:	e2800040 	add	r0, r0, #64	; 0x40
   125bc:	e58d2000 	str	r2, [sp]
   125c0:	ebfffa0a 	bl	10df0 <ReadBackReg>
   125c4:	e59d2000 	ldr	r2, [sp]
   125c8:	e3a03000 	mov	r3, #0	; 0x0
   125cc:	e5823000 	str	r3, [r2]
   125d0:	e5953000 	ldr	r3, [r5]
   125d4:	e5d20000 	ldrb	r0, [r2]
   125d8:	e5d31040 	ldrb	r1, [r3, #64]
   125dc:	e3c00001 	bic	r0, r0, #1	; 0x1
   125e0:	e2011001 	and	r1, r1, #1	; 0x1
   125e4:	e1811000 	orr	r1, r1, r0
   125e8:	e5c21000 	strb	r1, [r2]
   125ec:	e5d31040 	ldrb	r1, [r3, #64]
   125f0:	e5d20000 	ldrb	r0, [r2]
   125f4:	e1a010a1 	lsr	r1, r1, #1
   125f8:	e3c00002 	bic	r0, r0, #2	; 0x2
   125fc:	e2011002 	and	r1, r1, #2	; 0x2
   12600:	e1811000 	orr	r1, r1, r0
   12604:	e5c21000 	strb	r1, [r2]
   12608:	e5d30040 	ldrb	r0, [r3, #64]
   1260c:	e20110ff 	and	r1, r1, #255	; 0xff
   12610:	e1a003a0 	lsr	r0, r0, #7
   12614:	e3c11004 	bic	r1, r1, #4	; 0x4
   12618:	e1811100 	orr	r1, r1, r0, lsl #2
   1261c:	e5c21000 	strb	r1, [r2]
   12620:	e5d31040 	ldrb	r1, [r3, #64]
   12624:	e5d20000 	ldrb	r0, [r2]
   12628:	e1a010a1 	lsr	r1, r1, #1
   1262c:	e3c00008 	bic	r0, r0, #8	; 0x8
   12630:	e2011008 	and	r1, r1, #8	; 0x8
   12634:	e1811000 	orr	r1, r1, r0
   12638:	e5c21000 	strb	r1, [r2]
   1263c:	e5d30041 	ldrb	r0, [r3, #65]
   12640:	e20110ff 	and	r1, r1, #255	; 0xff
   12644:	e2000001 	and	r0, r0, #1	; 0x1
   12648:	e3c11010 	bic	r1, r1, #16	; 0x10
   1264c:	e1811200 	orr	r1, r1, r0, lsl #4
   12650:	e5c21000 	strb	r1, [r2]
   12654:	e5d20001 	ldrb	r0, [r2, #1]
   12658:	e5d31041 	ldrb	r1, [r3, #65]
   1265c:	e3c00001 	bic	r0, r0, #1	; 0x1
   12660:	e1a01d81 	lsl	r1, r1, #27
   12664:	e1801fa1 	orr	r1, r0, r1, lsr #31
   12668:	e5c21001 	strb	r1, [r2, #1]
   1266c:	e5d31042 	ldrb	r1, [r3, #66]
   12670:	e3110006 	tst	r1, #6	; 0x6
   12674:	1a0000c9 	bne	129a0 <HcdProcessRootHubMessage+0x640>
   12678:	e5d21001 	ldrb	r1, [r2, #1]
   1267c:	e3811004 	orr	r1, r1, #4	; 0x4
   12680:	e5c21001 	strb	r1, [r2, #1]
   12684:	e5931040 	ldr	r1, [r3, #64]
   12688:	e5d20001 	ldrb	r0, [r2, #1]
   1268c:	e1a01521 	lsr	r1, r1, #10
   12690:	e3c00008 	bic	r0, r0, #8	; 0x8
   12694:	e2011008 	and	r1, r1, #8	; 0x8
   12698:	e1811000 	orr	r1, r1, r0
   1269c:	e5c21001 	strb	r1, [r2, #1]
   126a0:	e5d20002 	ldrb	r0, [r2, #2]
   126a4:	e5d31040 	ldrb	r1, [r3, #64]
   126a8:	e3c00001 	bic	r0, r0, #1	; 0x1
   126ac:	e1a01f01 	lsl	r1, r1, #30
   126b0:	e1801fa1 	orr	r1, r0, r1, lsr #31
   126b4:	e5c21002 	strb	r1, [r2, #2]
   126b8:	e5d31040 	ldrb	r1, [r3, #64]
   126bc:	e5d20002 	ldrb	r0, [r2, #2]
   126c0:	e1a01121 	lsr	r1, r1, #2
   126c4:	e3c00002 	bic	r0, r0, #2	; 0x2
   126c8:	e2011002 	and	r1, r1, #2	; 0x2
   126cc:	e1811000 	orr	r1, r1, r0
   126d0:	e5c21002 	strb	r1, [r2, #2]
   126d4:	e5d31040 	ldrb	r1, [r3, #64]
   126d8:	e5d23002 	ldrb	r3, [r2, #2]
   126dc:	e1a01121 	lsr	r1, r1, #2
   126e0:	e2011008 	and	r1, r1, #8	; 0x8
   126e4:	e20330f7 	and	r3, r3, #247	; 0xf7
   126e8:	e1833001 	orr	r3, r3, r1
   126ec:	e3833010 	orr	r3, r3, #16	; 0x10
   126f0:	e5c23002 	strb	r3, [r2, #2]
   126f4:	e3a05004 	mov	r5, #4	; 0x4
   126f8:	eaffff49 	b	12424 <HcdProcessRootHubMessage+0xc4>
   126fc:	e5d10002 	ldrb	r0, [r1, #2]
   12700:	e5d11003 	ldrb	r1, [r1, #3]
   12704:	e1800401 	orr	r0, r0, r1, lsl #8
   12708:	e1a00800 	lsl	r0, r0, #16
   1270c:	e1a01c20 	lsr	r1, r0, #24
   12710:	e3510002 	cmp	r1, #2	; 0x2
   12714:	e1a00820 	lsr	r0, r0, #16
   12718:	0a0000b2 	beq	129e8 <HcdProcessRootHubMessage+0x688>
   1271c:	e3510003 	cmp	r1, #3	; 0x3
   12720:	0a0000a5 	beq	129bc <HcdProcessRootHubMessage+0x65c>
   12724:	e3510001 	cmp	r1, #1	; 0x1
   12728:	1affff4c 	bne	12460 <HcdProcessRootHubMessage+0x100>
   1272c:	e3530012 	cmp	r3, #18	; 0x12
   12730:	31a05003 	movcc	r5, r3
   12734:	23a05012 	movcs	r5, #18	; 0x12
   12738:	e1a00002 	mov	r0, r2
   1273c:	e59f12f0 	ldr	r1, [pc, #752]	; 12a34 <HcdProcessRootHubMessage+0x6d4>
   12740:	e1a02005 	mov	r2, r5
   12744:	ebffeb1e 	bl	d3c4 <MemoryCopy>
   12748:	eaffff35 	b	12424 <HcdProcessRootHubMessage+0xc4>
   1274c:	e5d13002 	ldrb	r3, [r1, #2]
   12750:	e2433001 	sub	r3, r3, #1	; 0x1
   12754:	e3530012 	cmp	r3, #18	; 0x12
   12758:	979ff103 	ldrls	pc, [pc, r3, lsl #2]
   1275c:	eaffff2f 	b	12420 <HcdProcessRootHubMessage+0xc0>
   12760:	000128d4 	.word	0x000128d4
   12764:	0001285c 	.word	0x0001285c
   12768:	00012420 	.word	0x00012420
   1276c:	00012420 	.word	0x00012420
   12770:	00012420 	.word	0x00012420
   12774:	00012420 	.word	0x00012420
   12778:	00012420 	.word	0x00012420
   1277c:	0001283c 	.word	0x0001283c
   12780:	00012420 	.word	0x00012420
   12784:	00012420 	.word	0x00012420
   12788:	00012420 	.word	0x00012420
   1278c:	00012420 	.word	0x00012420
   12790:	00012420 	.word	0x00012420
   12794:	00012420 	.word	0x00012420
   12798:	00012420 	.word	0x00012420
   1279c:	0001280c 	.word	0x0001280c
   127a0:	000127dc 	.word	0x000127dc
   127a4:	00012420 	.word	0x00012420
   127a8:	000127ac 	.word	0x000127ac
   127ac:	e59f527c 	ldr	r5, [pc, #636]	; 12a30 <HcdProcessRootHubMessage+0x6d0>
   127b0:	e5950000 	ldr	r0, [r5]
   127b4:	e2800040 	add	r0, r0, #64	; 0x40
   127b8:	ebfff98c 	bl	10df0 <ReadBackReg>
   127bc:	e5950000 	ldr	r0, [r5]
   127c0:	e5d03040 	ldrb	r3, [r0, #64]
   127c4:	e3833020 	orr	r3, r3, #32	; 0x20
   127c8:	e5e03040 	strb	r3, [r0, #64]!
   127cc:	e3a01020 	mov	r1, #32	; 0x20
   127d0:	ebfff95f 	bl	10d54 <WriteThroughRegMask>
   127d4:	e3a05000 	mov	r5, #0	; 0x0
   127d8:	eaffff11 	b	12424 <HcdProcessRootHubMessage+0xc4>
   127dc:	e59f524c 	ldr	r5, [pc, #588]	; 12a30 <HcdProcessRootHubMessage+0x6d0>
   127e0:	e5950000 	ldr	r0, [r5]
   127e4:	e2800040 	add	r0, r0, #64	; 0x40
   127e8:	ebfff980 	bl	10df0 <ReadBackReg>
   127ec:	e5950000 	ldr	r0, [r5]
   127f0:	e5d03040 	ldrb	r3, [r0, #64]
   127f4:	e3833008 	orr	r3, r3, #8	; 0x8
   127f8:	e5e03040 	strb	r3, [r0, #64]!
   127fc:	e3a01008 	mov	r1, #8	; 0x8
   12800:	ebfff953 	bl	10d54 <WriteThroughRegMask>
   12804:	e3a05000 	mov	r5, #0	; 0x0
   12808:	eaffff05 	b	12424 <HcdProcessRootHubMessage+0xc4>
   1280c:	e59f521c 	ldr	r5, [pc, #540]	; 12a30 <HcdProcessRootHubMessage+0x6d0>
   12810:	e5950000 	ldr	r0, [r5]
   12814:	e2800040 	add	r0, r0, #64	; 0x40
   12818:	ebfff974 	bl	10df0 <ReadBackReg>
   1281c:	e5950000 	ldr	r0, [r5]
   12820:	e5d03040 	ldrb	r3, [r0, #64]
   12824:	e3833002 	orr	r3, r3, #2	; 0x2
   12828:	e5e03040 	strb	r3, [r0, #64]!
   1282c:	e3a01002 	mov	r1, #2	; 0x2
   12830:	ebfff947 	bl	10d54 <WriteThroughRegMask>
   12834:	e3a05000 	mov	r5, #0	; 0x0
   12838:	eafffef9 	b	12424 <HcdProcessRootHubMessage+0xc4>
   1283c:	e59f51ec 	ldr	r5, [pc, #492]	; 12a30 <HcdProcessRootHubMessage+0x6d0>
   12840:	e5950000 	ldr	r0, [r5]
   12844:	e2800040 	add	r0, r0, #64	; 0x40
   12848:	ebfff968 	bl	10df0 <ReadBackReg>
   1284c:	e5950000 	ldr	r0, [r5]
   12850:	e5d03041 	ldrb	r3, [r0, #65]
   12854:	e3c33010 	bic	r3, r3, #16	; 0x10
   12858:	eafffeec 	b	12410 <HcdProcessRootHubMessage+0xb0>
   1285c:	e59f61d8 	ldr	r6, [pc, #472]	; 12a3c <HcdProcessRootHubMessage+0x6dc>
   12860:	e5960000 	ldr	r0, [r6]
   12864:	ebfff98a 	bl	10e94 <ClearReg>
   12868:	e59f51c0 	ldr	r5, [pc, #448]	; 12a30 <HcdProcessRootHubMessage+0x6d0>
   1286c:	e5960000 	ldr	r0, [r6]
   12870:	ebfff95c 	bl	10de8 <WriteThroughReg>
   12874:	e59f01c4 	ldr	r0, [pc, #452]	; 12a40 <HcdProcessRootHubMessage+0x6e0>
   12878:	eb0000cf 	bl	12bbc <MicroDelay>
   1287c:	e5950000 	ldr	r0, [r5]
   12880:	e2800040 	add	r0, r0, #64	; 0x40
   12884:	ebfff959 	bl	10df0 <ReadBackReg>
   12888:	e5950000 	ldr	r0, [r5]
   1288c:	e5d03040 	ldrb	r3, [r0, #64]
   12890:	e3833040 	orr	r3, r3, #64	; 0x40
   12894:	e5e03040 	strb	r3, [r0, #64]!
   12898:	e3a01040 	mov	r1, #64	; 0x40
   1289c:	ebfff92c 	bl	10d54 <WriteThroughRegMask>
   128a0:	e59f019c 	ldr	r0, [pc, #412]	; 12a44 <HcdProcessRootHubMessage+0x6e4>
   128a4:	eb0000c4 	bl	12bbc <MicroDelay>
   128a8:	e5950000 	ldr	r0, [r5]
   128ac:	e5d03040 	ldrb	r3, [r0, #64]
   128b0:	e3c33040 	bic	r3, r3, #64	; 0x40
   128b4:	e5c03040 	strb	r3, [r0, #64]
   128b8:	e5d03040 	ldrb	r3, [r0, #64]
   128bc:	e3c33080 	bic	r3, r3, #128	; 0x80
   128c0:	e5e03040 	strb	r3, [r0, #64]!
   128c4:	e3a010c0 	mov	r1, #192	; 0xc0
   128c8:	ebfff921 	bl	10d54 <WriteThroughRegMask>
   128cc:	e3a05000 	mov	r5, #0	; 0x0
   128d0:	eafffed3 	b	12424 <HcdProcessRootHubMessage+0xc4>
   128d4:	e59f5154 	ldr	r5, [pc, #340]	; 12a30 <HcdProcessRootHubMessage+0x6d0>
   128d8:	e5950000 	ldr	r0, [r5]
   128dc:	e2800040 	add	r0, r0, #64	; 0x40
   128e0:	ebfff942 	bl	10df0 <ReadBackReg>
   128e4:	e5950000 	ldr	r0, [r5]
   128e8:	e5d03040 	ldrb	r3, [r0, #64]
   128ec:	e3833004 	orr	r3, r3, #4	; 0x4
   128f0:	e5e03040 	strb	r3, [r0, #64]!
   128f4:	e3a01004 	mov	r1, #4	; 0x4
   128f8:	ebfff915 	bl	10d54 <WriteThroughRegMask>
   128fc:	e3a05000 	mov	r5, #0	; 0x0
   12900:	eafffec7 	b	12424 <HcdProcessRootHubMessage+0xc4>
   12904:	e59f5130 	ldr	r5, [pc, #304]	; 12a3c <HcdProcessRootHubMessage+0x6dc>
   12908:	e5950000 	ldr	r0, [r5]
   1290c:	ebfff937 	bl	10df0 <ReadBackReg>
   12910:	e5953000 	ldr	r3, [r5]
   12914:	e5d32000 	ldrb	r2, [r3]
   12918:	e3c22020 	bic	r2, r2, #32	; 0x20
   1291c:	e5c32000 	strb	r2, [r3]
   12920:	e5d32000 	ldrb	r2, [r3]
   12924:	e3c22001 	bic	r2, r2, #1	; 0x1
   12928:	e1a00003 	mov	r0, r3
   1292c:	e5c32000 	strb	r2, [r3]
   12930:	ebfff92c 	bl	10de8 <WriteThroughReg>
   12934:	e59f60f4 	ldr	r6, [pc, #244]	; 12a30 <HcdProcessRootHubMessage+0x6d0>
   12938:	e5950000 	ldr	r0, [r5]
   1293c:	ebfff954 	bl	10e94 <ClearReg>
   12940:	e5950000 	ldr	r0, [r5]
   12944:	ebfff927 	bl	10de8 <WriteThroughReg>
   12948:	e5960000 	ldr	r0, [r6]
   1294c:	e2800040 	add	r0, r0, #64	; 0x40
   12950:	ebfff926 	bl	10df0 <ReadBackReg>
   12954:	e5963000 	ldr	r3, [r6]
   12958:	e5d32040 	ldrb	r2, [r3, #64]
   1295c:	e3c22080 	bic	r2, r2, #128	; 0x80
   12960:	e5c32040 	strb	r2, [r3, #64]
   12964:	e5d32041 	ldrb	r2, [r3, #65]
   12968:	e3822001 	orr	r2, r2, #1	; 0x1
   1296c:	e5c32041 	strb	r2, [r3, #65]
   12970:	e5d32041 	ldrb	r2, [r3, #65]
   12974:	e3822010 	orr	r2, r2, #16	; 0x10
   12978:	e2830040 	add	r0, r3, #64	; 0x40
   1297c:	e5c32041 	strb	r2, [r3, #65]
   12980:	e3a01d46 	mov	r1, #4480	; 0x1180
   12984:	ebfff8f2 	bl	10d54 <WriteThroughRegMask>
   12988:	e59f00b8 	ldr	r0, [pc, #184]	; 12a48 <HcdProcessRootHubMessage+0x6e8>
   1298c:	eb00008a 	bl	12bbc <MicroDelay>
   12990:	e5960000 	ldr	r0, [r6]
   12994:	e5d03041 	ldrb	r3, [r0, #65]
   12998:	e3c33001 	bic	r3, r3, #1	; 0x1
   1299c:	eafffe9b 	b	12410 <HcdProcessRootHubMessage+0xb0>
   129a0:	e5d31042 	ldrb	r1, [r3, #66]
   129a4:	e2011006 	and	r1, r1, #6	; 0x6
   129a8:	e3510004 	cmp	r1, #4	; 0x4
   129ac:	05d21001 	ldrbeq	r1, [r2, #1]
   129b0:	03811002 	orreq	r1, r1, #2	; 0x2
   129b4:	05c21001 	strbeq	r1, [r2, #1]
   129b8:	eaffff31 	b	12684 <HcdProcessRootHubMessage+0x324>
   129bc:	e20000ff 	and	r0, r0, #255	; 0xff
   129c0:	e3500000 	cmp	r0, #0	; 0x0
   129c4:	1a00000f 	bne	12a08 <HcdProcessRootHubMessage+0x6a8>
   129c8:	e59f1064 	ldr	r1, [pc, #100]	; 12a34 <HcdProcessRootHubMessage+0x6d4>
   129cc:	e5f15030 	ldrb	r5, [r1, #48]!
   129d0:	e1530005 	cmp	r3, r5
   129d4:	31a05003 	movcc	r5, r3
   129d8:	e1a00002 	mov	r0, r2
   129dc:	e1a02005 	mov	r2, r5
   129e0:	ebffea77 	bl	d3c4 <MemoryCopy>
   129e4:	eafffe8e 	b	12424 <HcdProcessRootHubMessage+0xc4>
   129e8:	e3530019 	cmp	r3, #25	; 0x19
   129ec:	31a05003 	movcc	r5, r3
   129f0:	23a05019 	movcs	r5, #25	; 0x19
   129f4:	e1a00002 	mov	r0, r2
   129f8:	e59f104c 	ldr	r1, [pc, #76]	; 12a4c <HcdProcessRootHubMessage+0x6ec>
   129fc:	e1a02005 	mov	r2, r5
   12a00:	ebffea6f 	bl	d3c4 <MemoryCopy>
   12a04:	eafffe86 	b	12424 <HcdProcessRootHubMessage+0xc4>
   12a08:	e3500001 	cmp	r0, #1	; 0x1
   12a0c:	1afffe83 	bne	12420 <HcdProcessRootHubMessage+0xc0>
   12a10:	e59f101c 	ldr	r1, [pc, #28]	; 12a34 <HcdProcessRootHubMessage+0x6d4>
   12a14:	e5f15034 	ldrb	r5, [r1, #52]!
   12a18:	e1530005 	cmp	r3, r5
   12a1c:	31a05003 	movcc	r5, r3
   12a20:	e1a00002 	mov	r0, r2
   12a24:	e1a02005 	mov	r2, r5
   12a28:	ebffea65 	bl	d3c4 <MemoryCopy>
   12a2c:	eafffe7c 	b	12424 <HcdProcessRootHubMessage+0xc4>
   12a30:	0001a634 	.word	0x0001a634
   12a34:	00015908 	.word	0x00015908
   12a38:	0001a650 	.word	0x0001a650
   12a3c:	0001a638 	.word	0x0001a638
   12a40:	00001388 	.word	0x00001388
   12a44:	000186a0 	.word	0x000186a0
   12a48:	0000ea60 	.word	0x0000ea60
   12a4c:	0001591c 	.word	0x0001591c

00012a50 <__aeabi_uidivmod>:
   12a50:	e92d0870 	push	{r4, r5, r6, fp}
   12a54:	e28db00c 	add	fp, sp, #12	; 0xc
   12a58:	e24dd018 	sub	sp, sp, #24	; 0x18
   12a5c:	e50b0020 	str	r0, [fp, #-32]
   12a60:	e50b1024 	str	r1, [fp, #-36]
   12a64:	e3a03000 	mov	r3, #0	; 0x0
   12a68:	e3a04000 	mov	r4, #0	; 0x0
   12a6c:	e50b3014 	str	r3, [fp, #-20]
   12a70:	e50b4010 	str	r4, [fp, #-16]
   12a74:	e3a03000 	mov	r3, #0	; 0x0
   12a78:	e50b3018 	str	r3, [fp, #-24]
   12a7c:	ea000029 	b	12b28 <__aeabi_uidivmod+0xd8>
   12a80:	e51b3018 	ldr	r3, [fp, #-24]
   12a84:	e263301f 	rsb	r3, r3, #31	; 0x1f
   12a88:	e51b2024 	ldr	r2, [fp, #-36]
   12a8c:	e1a02312 	lsl	r2, r2, r3
   12a90:	e51b3018 	ldr	r3, [fp, #-24]
   12a94:	e263301f 	rsb	r3, r3, #31	; 0x1f
   12a98:	e1a02332 	lsr	r2, r2, r3
   12a9c:	e51b3024 	ldr	r3, [fp, #-36]
   12aa0:	e1520003 	cmp	r2, r3
   12aa4:	1a00001c 	bne	12b1c <__aeabi_uidivmod+0xcc>
   12aa8:	e51b3018 	ldr	r3, [fp, #-24]
   12aac:	e263301f 	rsb	r3, r3, #31	; 0x1f
   12ab0:	e51b2024 	ldr	r2, [fp, #-36]
   12ab4:	e1a02312 	lsl	r2, r2, r3
   12ab8:	e51b3020 	ldr	r3, [fp, #-32]
   12abc:	e1520003 	cmp	r2, r3
   12ac0:	8a000015 	bhi	12b1c <__aeabi_uidivmod+0xcc>
   12ac4:	e51b3018 	ldr	r3, [fp, #-24]
   12ac8:	e263301f 	rsb	r3, r3, #31	; 0x1f
   12acc:	e51b2024 	ldr	r2, [fp, #-36]
   12ad0:	e1a03312 	lsl	r3, r2, r3
   12ad4:	e51b2020 	ldr	r2, [fp, #-32]
   12ad8:	e0633002 	rsb	r3, r3, r2
   12adc:	e50b3020 	str	r3, [fp, #-32]
   12ae0:	e51b3018 	ldr	r3, [fp, #-24]
   12ae4:	e263301f 	rsb	r3, r3, #31	; 0x1f
   12ae8:	e3a02001 	mov	r2, #1	; 0x1
   12aec:	e1a02312 	lsl	r2, r2, r3
   12af0:	e1a03002 	mov	r3, r2
   12af4:	e1a04fc3 	asr	r4, r3, #31
   12af8:	e24b2014 	sub	r2, fp, #20	; 0x14
   12afc:	e8920006 	ldm	r2, {r1, r2}
   12b00:	e1833001 	orr	r3, r3, r1
   12b04:	e1844002 	orr	r4, r4, r2
   12b08:	e50b3014 	str	r3, [fp, #-20]
   12b0c:	e50b4010 	str	r4, [fp, #-16]
   12b10:	e51b3020 	ldr	r3, [fp, #-32]
   12b14:	e3530000 	cmp	r3, #0	; 0x0
   12b18:	0a000006 	beq	12b38 <__aeabi_uidivmod+0xe8>
   12b1c:	e51b3018 	ldr	r3, [fp, #-24]
   12b20:	e2833001 	add	r3, r3, #1	; 0x1
   12b24:	e50b3018 	str	r3, [fp, #-24]
   12b28:	e51b3018 	ldr	r3, [fp, #-24]
   12b2c:	e353001f 	cmp	r3, #31	; 0x1f
   12b30:	9affffd2 	bls	12a80 <__aeabi_uidivmod+0x30>
   12b34:	ea000000 	b	12b3c <__aeabi_uidivmod+0xec>
   12b38:	e1a00000 	nop			(mov r0,r0)
   12b3c:	e51b2020 	ldr	r2, [fp, #-32]
   12b40:	e1a03002 	mov	r3, r2
   12b44:	e3a04000 	mov	r4, #0	; 0x0
   12b48:	e1a06003 	mov	r6, r3
   12b4c:	e3a05000 	mov	r5, #0	; 0x0
   12b50:	e24b4014 	sub	r4, fp, #20	; 0x14
   12b54:	e8940018 	ldm	r4, {r3, r4}
   12b58:	e1833005 	orr	r3, r3, r5
   12b5c:	e1844006 	orr	r4, r4, r6
   12b60:	e50b3014 	str	r3, [fp, #-20]
   12b64:	e50b4010 	str	r4, [fp, #-16]
   12b68:	e24b4014 	sub	r4, fp, #20	; 0x14
   12b6c:	e8940018 	ldm	r4, {r3, r4}
   12b70:	e1a00003 	mov	r0, r3
   12b74:	e1a01004 	mov	r1, r4
   12b78:	e24bd00c 	sub	sp, fp, #12	; 0xc
   12b7c:	e8bd0870 	pop	{r4, r5, r6, fp}
   12b80:	e12fff1e 	bx	lr

00012b84 <__aeabi_uidiv>:
   12b84:	e92d4810 	push	{r4, fp, lr}
   12b88:	e28db008 	add	fp, sp, #8	; 0x8
   12b8c:	e24dd00c 	sub	sp, sp, #12	; 0xc
   12b90:	e50b0010 	str	r0, [fp, #-16]
   12b94:	e50b1014 	str	r1, [fp, #-20]
   12b98:	e51b0010 	ldr	r0, [fp, #-16]
   12b9c:	e51b1014 	ldr	r1, [fp, #-20]
   12ba0:	ebffffaa 	bl	12a50 <__aeabi_uidivmod>
   12ba4:	e1a03000 	mov	r3, r0
   12ba8:	e1a04001 	mov	r4, r1
   12bac:	e1a00003 	mov	r0, r3
   12bb0:	e24bd008 	sub	sp, fp, #8	; 0x8
   12bb4:	e8bd4810 	pop	{r4, fp, lr}
   12bb8:	e12fff1e 	bx	lr

00012bbc <MicroDelay>:
   12bbc:	e92d0810 	push	{r4, fp}
   12bc0:	e28db004 	add	fp, sp, #4	; 0x4
   12bc4:	e24dd018 	sub	sp, sp, #24	; 0x18
   12bc8:	e50b0018 	str	r0, [fp, #-24]
   12bcc:	e59f3054 	ldr	r3, [pc, #84]	; 12c28 <MicroDelay+0x6c>
   12bd0:	e50b3008 	str	r3, [fp, #-8]
   12bd4:	e51b3008 	ldr	r3, [fp, #-8]
   12bd8:	e8930006 	ldm	r3, {r1, r2}
   12bdc:	e51b0018 	ldr	r0, [fp, #-24]
   12be0:	e1a03000 	mov	r3, r0
   12be4:	e3a04000 	mov	r4, #0	; 0x0
   12be8:	e0933001 	adds	r3, r3, r1
   12bec:	e0a44002 	adc	r4, r4, r2
   12bf0:	e50b3014 	str	r3, [fp, #-20]
   12bf4:	e50b4010 	str	r4, [fp, #-16]
   12bf8:	ea000000 	b	12c00 <MicroDelay+0x44>
   12bfc:	e1a00000 	nop			(mov r0,r0)
   12c00:	e51b3008 	ldr	r3, [fp, #-8]
   12c04:	e8930006 	ldm	r3, {r1, r2}
   12c08:	e24b4014 	sub	r4, fp, #20	; 0x14
   12c0c:	e8940018 	ldm	r4, {r3, r4}
   12c10:	e1520004 	cmp	r2, r4
   12c14:	01510003 	cmpeq	r1, r3
   12c18:	3afffff7 	bcc	12bfc <MicroDelay+0x40>
   12c1c:	e24bd004 	sub	sp, fp, #4	; 0x4
   12c20:	e8bd0810 	pop	{r4, fp}
   12c24:	e12fff1e 	bx	lr
   12c28:	20003004 	.word	0x20003004

00012c2c <PowerOnUsb>:
   12c2c:	e52db004 	push	{fp}		; (str fp, [sp, #-4]!)
   12c30:	e28db000 	add	fp, sp, #0	; 0x0
   12c34:	e24dd00c 	sub	sp, sp, #12	; 0xc
   12c38:	e59f3094 	ldr	r3, [pc, #148]	; 12cd4 <PowerOnUsb+0xa8>
   12c3c:	e50b3008 	str	r3, [fp, #-8]
   12c40:	e1a00000 	nop			(mov r0,r0)
   12c44:	e51b3008 	ldr	r3, [fp, #-8]
   12c48:	e2833018 	add	r3, r3, #24	; 0x18
   12c4c:	e5933000 	ldr	r3, [r3]
   12c50:	e3530000 	cmp	r3, #0	; 0x0
   12c54:	bafffffa 	blt	12c44 <PowerOnUsb+0x18>
   12c58:	e51b3008 	ldr	r3, [fp, #-8]
   12c5c:	e2833020 	add	r3, r3, #32	; 0x20
   12c60:	e3a02080 	mov	r2, #128	; 0x80
   12c64:	e5832000 	str	r2, [r3]
   12c68:	e1a00000 	nop			(mov r0,r0)
   12c6c:	e51b3008 	ldr	r3, [fp, #-8]
   12c70:	e2833018 	add	r3, r3, #24	; 0x18
   12c74:	e5933000 	ldr	r3, [r3]
   12c78:	e2033101 	and	r3, r3, #1073741824	; 0x40000000
   12c7c:	e3530000 	cmp	r3, #0	; 0x0
   12c80:	1afffff9 	bne	12c6c <PowerOnUsb+0x40>
   12c84:	e51b3008 	ldr	r3, [fp, #-8]
   12c88:	e5933000 	ldr	r3, [r3]
   12c8c:	e50b300c 	str	r3, [fp, #-12]
   12c90:	e51b300c 	ldr	r3, [fp, #-12]
   12c94:	e203300f 	and	r3, r3, #15	; 0xf
   12c98:	e3530000 	cmp	r3, #0	; 0x0
   12c9c:	1afffff1 	bne	12c68 <PowerOnUsb+0x3c>
   12ca0:	e51b300c 	ldr	r3, [fp, #-12]
   12ca4:	e3530080 	cmp	r3, #128	; 0x80
   12ca8:	1a000001 	bne	12cb4 <PowerOnUsb+0x88>
   12cac:	e3a03000 	mov	r3, #0	; 0x0
   12cb0:	ea000000 	b	12cb8 <PowerOnUsb+0x8c>
   12cb4:	e3a030fc 	mov	r3, #252	; 0xfc
   12cb8:	e20330ff 	and	r3, r3, #255	; 0xff
   12cbc:	e1a03c03 	lsl	r3, r3, #24
   12cc0:	e1a03c43 	asr	r3, r3, #24
   12cc4:	e1a00003 	mov	r0, r3
   12cc8:	e28bd000 	add	sp, fp, #0	; 0x0
   12ccc:	e8bd0800 	pop	{fp}
   12cd0:	e12fff1e 	bx	lr
   12cd4:	2000b880 	.word	0x2000b880
